(dp0
S'bfd_elf_get_elf_syms'
p1
(L134712880L
L134713737L
tp2
sS'_bfd_elf_swap_versym_in'
p3
(L134711872L
L134711903L
tp4
sS'opncls_bflush'
p5
(L134594208L
L134594211L
tp6
sS'elf_new_obj_attr'
p7
(L134849248L
L134849363L
tp8
sS'coff_write_alien_symbol'
p9
(L134576096L
L134576688L
tp10
sS'bfd_close'
p11
(L134596928L
L134597164L
tp12
sS'fix_syms'
p13
(L134623152L
L134623276L
tp14
sS'htab_create_typed_alloc'
p15
(L135061104L
L135061257L
tp16
sS'print_contents'
p17
(L134530816L
L134531199L
tp18
sS'bfd_get_full_section_contents'
p19
(L134659632L
L134660372L
tp20
sS'lrealpath'
p21
(L135064112L
L135064207L
tp22
sS'cplus_demangle_opname'
p23
(L135006624L
L135007632L
tp24
sS'_bfd_elf_link_output_relocs'
p25
(L134797376L
L134797781L
tp26
sS'_bfd_archive_bsd_update_armap_timestamp'
p27
(L134559424L
L134559774L
tp28
sS'tekhex_set_arch_mach'
p29
(L134632496L
L134632551L
tp30
sS'_bfd_generic_copy_link_hash_symbol_type'
p31
(L134613872L
L134613874L
tp32
sS'_bfd_pei_swap_debugdir_out'
p33
(L134940640L
L134940820L
tp34
sS'_bfd_elf_default_relocs_compatible'
p35
(L134799152L
L134799167L
tp36
sS'bfd_generic_link_read_symbols_0'
p37
(L134611024L
L134611120L
tp38
sS'_bfd_generic_get_elt_at_index'
p39
(L134549808L
L134549860L
tp40
sS'_bfd_elf_link_read_relocs'
p41
(L134796240L
L134796836L
tp42
sS'_bfd_bsd44_write_ar_hdr'
p43
(L134554368L
L134554673L
tp44
sS'bfd_zmalloc'
p45
(L134591040L
L134591110L
tp46
sS'do_ar_emul_append'
p47
(L134540400L
L134540650L
tp48
sS'aout_32_print_symbol'
p49
(L134895184L
L134895434L
tp50
sS'bfd_sym_from_r_symndx'
p51
(L134715744L
L134716086L
tp52
sS'decode_line_info'
p53
(L134645424L
L134648390L
tp54
sS'_bfd_elf_find_inliner_info'
p55
(L134749264L
L134749323L
tp56
sS'consume_count'
p57
(L134991936L
L134992016L
tp58
sS'real_ftell'
p59
(L134568176L
L134568181L
tp60
sS'demangle_expression'
p61
(L134998112L
L134998498L
tp62
sS'_bfd_elf_reloc_type_class'
p63
(L134768112L
L134768115L
tp64
sS'elf_generic_info_to_howto_rel'
p65
(L134975504L
L134975516L
tp66
sS'd_print_array_type'
p67
(L135035472L
L135036111L
tp68
sS'compare_sequences'
p69
(L134642464L
L134642535L
tp70
sS'freeargv'
p71
(L135050864L
L135050926L
tp72
sS'_bfd_merge_sections_free'
p73
(L134991872L
L134991921L
tp74
sS'maybequit'
p75
(L134536576L
L134536602L
tp76
sS'_bfd_ar_spacepad'
p77
(L134546960L
L134547123L
tp78
sS'binary_get_symtab_upper_bound'
p79
(L134630848L
L134630854L
tp80
sS'bfd_put_bits'
p81
(L134592560L
L134592681L
tp82
sS'bfd_elf_set_obj_attr_contents'
p83
(L134849680L
L134850141L
tp84
sS'cmpindexentry'
p85
(L134602464L
L134602492L
tp86
sS'rsrc_sort_entries'
p87
(L134928576L
L134932216L
tp88
sS'coff_i386_is_local_label_name'
p89
(L134909376L
L134909398L
tp90
sS'bfd_elf_record_link_assignment'
p91
(L134794944L
L134795519L
tp92
sS'elf_parse_notes'
p93
(L134750672L
L134755696L
tp94
sS'parse_vma'
p95
(L134544128L
L134544222L
tp96
sS'make_tempname'
p97
(L134544032L
L134544092L
tp98
sS'get_dynamic_reloc_section_name'
p99
(L134775632L
L134775756L
tp100
sS'simple_dummy_reloc_overflow'
p101
(L134658496L
L134658502L
tp102
sS'separate_debug_file_exists'
p103
(L134594768L
L134594967L
tp104
sS'cache_bclose'
p105
(L134569776L
L134569819L
tp106
sS'elf_i386_gc_mark_hook'
p107
(L134664240L
L134664318L
tp108
sS'_bfd_final_link_relocate'
p109
(L134982352L
L134982542L
tp110
sS'aout_32_swap_exec_header_out'
p111
(L134885264L
L134885439L
tp112
sS'bfd_get_error_handler'
p113
(L134563280L
L134563286L
tp114
sS'coff_set_arch_mach_hook'
p115
(L134909184L
L134909269L
tp116
sS'get_pos_bfd'
p117
(L134530656L
L134530810L
tp118
sS'bfd_putb64'
p119
(L134592400L
L134592477L
tp120
sS'yyget_debug'
p121
(L134530400L
L134530406L
tp122
sS'd_template_param'
p123
(L135017456L
L135017542L
tp124
sS'bfd_openstreamr'
p125
(L134596704L
L134596812L
tp126
sS'_bfd_coff_link_hash_table_create'
p127
(L134959408L
L134959500L
tp128
sS'elf_i386_finish_local_dynamic_symbol'
p129
(L134667632L
L134667676L
tp130
sS'bfd_elf32_swap_reloc_in'
p131
(L134695152L
L134695210L
tp132
sS'parse_die'
p133
(L134868688L
L134869191L
tp134
sS'elfcore_write_s390_timer'
p135
(L134766000L
L134766067L
tp136
sS'warn_deprecated'
p137
(L134593600L
L134593799L
tp138
sS'bfd_compress_section_contents'
p139
(L134659392L
L134659626L
tp140
sS'cplus_demangle_fill_name'
p141
(L135038064L
L135038122L
tp142
sS'_bfd_elf_default_action_discarded'
p143
(L134825568L
L134825644L
tp144
sS'bfd_elf_discard_info'
p145
(L134846672L
L134847306L
tp146
sS'string_append_template_idx'
p147
(L134993536L
L134993637L
tp148
sS'bfd_elf_gc_common_finalize_got_offsets'
p149
(L134846192L
L134846595L
tp150
sS'bfd_generic_gc_sections'
p151
(L134983248L
L134983254L
tp152
sS'pe_ILF_save_relocs'
p153
(L134910384L
L134910508L
tp154
sS'bfd_symbol_info'
p155
(L134603488L
L134603570L
tp156
sS'd_make_comp'
p157
(L135016448L
L135016555L
tp158
sS'elfcore_maybe_make_sect'
p159
(L134708720L
L134708820L
tp160
sS'bfd_coff_set_long_section_names_allowed'
p161
(L134904752L
L134904778L
tp162
sS'bfd_generic_relax_section'
p163
(L134983168L
L134983240L
tp164
sS'elf_i386_fake_sections'
p165
(L134662832L
L134662873L
tp166
sS'smart_rename'
p167
(L134539744L
L134540200L
tp168
sS'bfd_hash_set_default_size'
p169
(L134609504L
L134609542L
tp170
sS'bfd_install_relocation'
p171
(L134980576L
L134981498L
tp172
sS'_bfd_default_link_order'
p173
(L134620384L
L134620924L
tp174
sS'_bfd_elf_setup_sections'
p175
(L134713872L
L134714444L
tp176
sS'bfd_elf_final_link'
p177
(L134831744L
L134842395L
tp178
sS'elf_i386_reloc_type_class'
p179
(L134662736L
L134662763L
tp180
sS'elf_i386_readonly_dynrelocs'
p181
(L134663856L
L134664026L
tp182
sS'display_info'
p183
(L134542256L
L134543699L
tp184
sS'_bfd_coff_reloc_link_order'
p185
(L134968592L
L134969323L
tp186
sS'_bfd_elf_find_nearest_line'
p187
(L134748656L
L134749127L
tp188
sS'find_target'
p189
(L134606688L
L134606855L
tp190
sS'd_demangle_callback'
p191
(L135049424L
L135049985L
tp192
sS'ihex_get_section_contents'
p193
(L134640288L
L134641005L
tp194
sS'elfcore_write_s390_todpreg'
p195
(L134766160L
L134766227L
tp196
sS'bfd_0u'
p197
(L134590240L
L134590243L
tp198
sS'ar_extract'
p199
(L134539008L
L134539301L
tp200
sS'_bfd_elf_write_object_contents'
p201
(L134733872L
L134734597L
tp202
sS'cplus_mangle_opname'
p203
(L134994784L
L134994922L
tp204
sS'bfd_follow_gnu_debuglink'
p205
(L134598928L
L134598954L
tp206
sS'coff_real_object_p'
p207
(L134579392L
L134580944L
tp208
sS'_bfd_nocore_core_file_failing_command'
p209
(L134590384L
L134590405L
tp210
sS'aout_32_translate_symbol_table'
p211
(L134889552L
L134890393L
tp212
sS'coff_link_check_archive_element'
p213
(L134957728L
L134957837L
tp214
sS'bfd_section_already_linked_table_free'
p215
(L134621920L
L134621939L
tp216
sS'already_linked_newfunc'
p217
(L134610240L
L134610278L
tp218
sS'htab_remove_elt_with_hash'
p219
(L135062800L
L135062877L
tp220
sS'get_program_header_size'
p221
(L134707520L
L134707977L
tp222
sS'bfd_plugin_make_empty_symbol'
p223
(L134976112L
L134976147L
tp224
sS'strtab_hash_newfunc'
p225
(L134609264L
L134609326L
tp226
sS'srec_get_symtab_upper_bound'
p227
(L134624032L
L134624047L
tp228
sS'bfd_set_error_program_name'
p229
(L134563264L
L134563274L
tp230
sS'bfd_generic_discard_group'
p231
(L134602448L
L134602454L
tp232
sS'_bfd_elf_eh_frame_section_offset'
p233
(L134863520L
L134864012L
tp234
sS'_bfd_elf_link_hash_hide_symbol'
p235
(L134823680L
L134823762L
tp236
sS'register_tm_clones'
p237
(L134524928L
L134524983L
tp238
sS'bfd_perror'
p239
(L134563104L
L134563247L
tp240
sS'simple_save_output_info'
p241
(L134658576L
L134658627L
tp242
sS'bfd_generic_lookup_section_flags'
p243
(L134983264L
L134983327L
tp244
sS'bfd_plugin_core_file_failing_signal'
p245
(L134975888L
L134975917L
tp246
sS'java_demangle_v3_callback'
p247
(L135050560L
L135050586L
tp248
sS'bfd_elf_get_dt_soname'
p249
(L134824224L
L134824265L
tp250
sS'pe_mkobject'
p251
(L134907840L
L134908003L
tp252
sS'yyset_in'
p253
(L134530368L
L134530378L
tp254
sS'pe_ILF_make_a_section'
p255
(L134909824L
L134910100L
tp256
sS'bfd_hash_table_init_n'
p257
(L134607664L
L134607879L
tp258
sS'_bfd_elf_canonicalize_symtab'
p259
(L134742656L
L134742713L
tp260
sS'coff_sort_func_alent'
p261
(L134904896L
L134904948L
tp262
sS'_bfd_elf_can_make_relative'
p263
(L134868624L
L134868630L
tp264
sS'htab_hash_string'
p265
(L135063232L
L135063270L
tp266
sS'bfd_i386_compatible'
p267
(L134977920L
L134977972L
tp268
sS'_bfd_elf_init_2_index_sections'
p269
(L134819280L
L134819465L
tp270
sS'elfcore_write_s390_system_call'
p271
(L134766480L
L134766547L
tp272
sS'bfd_putl64'
p273
(L134592480L
L134592557L
tp274
sS'extract_file'
p275
(L134533792L
L134534490L
tp276
sS'bfd_cache_close'
p277
(L134569984L
L134570020L
tp278
sS'remember_type'
p279
(L134994624L
L134994757L
tp280
sS'yy_create_buffer'
p281
(L134527440L
L134527524L
tp282
sS'_bfd_dwarf2_cleanup_debug_info'
p283
(L134652592L
L134653087L
tp284
sS'_bfd_elf_find_segment_containing_section'
p285
(L134717824L
L134717915L
tp286
sS'bsd_write_armap'
p287
(L134558176L
L134559424L
tp288
sS'srec_mkobject'
p289
(L134625440L
L134625567L
tp290
sS'bfd_set_error_handler'
p291
(L134563248L
L134563264L
tp292
sS'cplus_demangle_type'
p293
(L135038320L
L135040460L
tp294
sS'add_data_entry'
p295
(L134924704L
L134924784L
tp296
sS'bfd_section_from_elf_index'
p297
(L134716096L
L134716131L
tp298
sS'd_function_type'
p299
(L135042064L
L135042146L
tp300
sS'yyset_out'
p301
(L134530384L
L134530394L
tp302
sS'_bfd_elf_size_group_sections'
p303
(L134812960L
L134813042L
tp304
sS'_bfd_elf_get_reloc_upper_bound'
p305
(L134742512L
L134742527L
tp306
sS'bfd_set_format'
p307
(L134589952L
L134590075L
tp308
sS'bfd_make_readable'
p309
(L134597568L
L134597831L
tp310
sS'srec_print_symbol'
p311
(L134625568L
L134625673L
tp312
sS'bfd_errmsg'
p313
(L134562896L
L134563089L
tp314
sS'bfd_elf_get_needed_list'
p315
(L134824160L
L134824180L
tp316
sS'yywrap'
p317
(L134530640L
L134530646L
tp318
sS'separate_alt_debug_file_exists'
p319
(L134594688L
L134594766L
tp320
sS'elf_create_symbuf'
p321
(L134520511L
L134520893L
tp322
sS'bfd_elf_sym_name'
p323
(L134713744L
L134713871L
tp324
sS'_bfd_relocate_contents'
p325
(L134981504L
L134982351L
tp326
sS'bfd_dont_truncate_arname'
p327
(L134555056L
L134555226L
tp328
sS'_bfd_elf_gc_mark_hook'
p329
(L134842400L
L134842628L
tp330
sS'elf32_i386_nacl_elf_object_p'
p331
(L134674496L
L134674536L
tp332
sS'bfd_getl_signed_16'
p333
(L134591472L
L134591497L
tp334
sS'yyensure_buffer_stack'
p335
(L134526848L
L134527011L
tp336
sS'elf_gc_allocate_got_offsets'
p337
(L134770064L
L134770174L
tp338
sS'elf_merge_st_other'
p339
(L134774352L
L134774451L
tp340
sS'memory_btell'
p341
(L134567280L
L134567291L
tp342
sS'aout_32_adjust_sizes_and_vmas'
p343
(L134887344L
L134888865L
tp344
sS'bfd_log2'
p345
(L134593360L
L134593395L
tp346
sS'string_appendn_0'
p347
(L135053712L
L135053760L
tp348
sS'cplus_demangle'
p349
(L134996432L
L134996705L
tp350
sS'_bfd_elf_get_symtab_upper_bound'
p351
(L134742336L
L134742390L
tp352
sS'bfd_elf_gc_common_final_link'
p353
(L134846608L
L134846666L
tp354
sS'bfd_arch_bits_per_address'
p355
(L134562464L
L134562475L
tp356
sS'_bfd_elf_find_line'
p357
(L134749136L
L134749251L
tp358
sS'elf_i386_adjust_dynamic_symbol'
p359
(L134672800L
L134673368L
tp360
sS'bfd_getb32'
p361
(L134591568L
L134591603L
tp362
sS'bfd_make_writable'
p363
(L134597424L
L134597564L
tp364
sS'report'
p365
(L134541360L
L134541480L
tp366
sS'is_gnu_v3_mangled_dtor'
p367
(L135050640L
L135050675L
tp368
sS'bfd_openr_iovec'
p369
(L134598144L
L134598315L
tp370
sS'bfd_elf32_swap_dyn_in'
p371
(L134695440L
L134695491L
tp372
sS'bfd_rename_section'
p373
(L134601488L
L134601525L
tp374
sS'bfd_elf_set_group_contents'
p375
(L134708176L
L134708714L
tp376
sS'bfd_octets_per_byte'
p377
(L134562720L
L134562785L
tp378
sS'dlang_parse_real'
p379
(L135054432L
L135054952L
tp380
sS'coff_classify_symbol'
p381
(L134910512L
L134910763L
tp382
sS'ar_emul_append'
p383
(L134540368L
L134540398L
tp384
sS'coff_get_normalized_symtab'
p385
(L134581680L
L134583338L
tp386
sS'bfd_plugin_get_symtab_upper_bound'
p387
(L134975792L
L134975856L
tp388
sS'_bfd_elf_obj_attrs_arg_type'
p389
(L134850320L
L134850431L
tp390
sS'_bfd_elf_get_lineno'
p391
(L134748560L
L134748591L
tp392
sS'd_demangle'
p393
(L135050000L
L135050110L
tp394
sS'bfd_slurp_armap'
p395
(L134550560L
L134551740L
tp396
sS'elfcore_write_ppc_vsx'
p397
(L134765920L
L134765987L
tp398
sS'template_in_dir'
p399
(L134540944L
L134541058L
tp400
sS'tekhex_get_symbol_info'
p401
(L134632560L
L134632581L
tp402
sS'squangle_mop_up'
p403
(L134992240L
L134992423L
tp404
sS'bfd_elf_hash'
p405
(L134711936L
L134711990L
tp406
sS'_bfd_generic_make_empty_symbol'
p407
(L134602992L
L134603027L
tp408
sS'd_print_comp'
p409
(L135032576L
L135032628L
tp410
sS'hash_file_ptr'
p411
(L134545760L
L134545767L
tp412
sS'bfd_realloc_or_free'
p413
(L134590928L
L134591034L
tp414
sS'bfd_elf_make_object'
p415
(L134712240L
L134712283L
tp416
sS'_bfd_pe_bfd_copy_private_section_data'
p417
(L134951904L
L134952110L
tp418
sS'_bfd_elf_notice_as_needed'
p419
(L134799232L
L134799300L
tp420
sS'_bfd_find_arch_match'
p421
(L134606560L
L134606682L
tp422
sS'demangle_template_template_parm'
p423
(L135007632L
L135007942L
tp424
sS'_bfd_look_for_bfd_in_cache'
p425
(L134547552L
L134547620L
tp426
sS'bfd_alt_mach_code'
p427
(L134566240L
L134566354L
tp428
sS'xmalloc'
p429
(L135067984L
L135068027L
tp430
sS'_bfd_elf_get_dynamic_reloc_section'
p431
(L134848320L
L134848404L
tp432
sS'elfcore_write_prxfpreg'
p433
(L134765680L
L134765747L
tp434
sS'bfd_check_format_matches'
p435
(L134587888L
L134589901L
tp436
sS'bfd_gnu_truncate_arname'
p437
(L134555232L
L134555378L
tp438
sS'elf_link_input_bfd'
p439
(L134825824L
L134831740L
tp440
sS'dlang_demangle'
p441
(L135059424L
L135059626L
tp442
sS'bfd_decode_symclass'
p443
(L134603040L
L134603445L
tp444
sS'bfd_fatal'
p445
(L134541328L
L134541355L
tp446
sS'tekhex_get_section_contents'
p447
(L134634416L
L134634489L
tp448
sS'srec_set_arch_mach'
p449
(L134624784L
L134624821L
tp450
sS'bfd_plugin_core_file_pid'
p451
(L134975856L
L134975885L
tp452
sS'coff_bad_format_hook'
p453
(L134904784L
L134904834L
tp454
sS'filename_ncmp'
p455
(L135059648L
L135059653L
tp456
sS'_bfd_elf_default_got_elt_size'
p457
(L134848288L
L134848318L
tp458
sS'coff_write_symbol'
p459
(L134572256L
L134573866L
tp460
sS'cplus_demangle_v3_callback'
p461
(L135050496L
L135050521L
tp462
sS'_bfd_elf_post_process_headers'
p463
(L134769456L
L134769507L
tp464
sS'_bfd_elf_common_definition'
p465
(L134848240L
L134848255L
tp466
sS'bfd_get_reloc_code_name'
p467
(L134983136L
L134983163L
tp468
sS'srec_set_section_contents'
p469
(L134624240L
L134624784L
tp470
sS'd_print_mod_list'
p471
(L135034528L
L135035460L
tp472
sS'_bfd_elf_print_private_bfd_data'
p473
(L134745472L
L134748387L
tp474
sS'split_directories'
p475
(L135064272L
L135064645L
tp476
sS'bfd_plugin_bfd_print_private_bfd_data'
p477
(L134975952L
L134975984L
tp478
sS'coff_read_word'
p479
(L134520893L
L134520979L
tp480
sS'demangle_template_value_parm'
p481
(L134996720L
L134998103L
tp482
sS'_bfd_elf_canonicalize_dynamic_symtab'
p483
(L134742720L
L134742777L
tp484
sS'_bfd_elf_maybe_function_sym'
p485
(L134769552L
L134769616L
tp486
sS'pe_print_private_bfd_data'
p487
(L134916160L
L134916195L
tp488
sS'bfd_find_version_for_sym'
p489
(L134623520L
L134623960L
tp490
sS'_bfd_pei_swap_sym_in'
p491
(L134932224L
L134932872L
tp492
sS'bfd_elf32_write_shdrs_and_ehdr'
p493
(L134698304L
L134698663L
tp494
sS'memory_bflush'
p495
(L134567296L
L134567299L
tp496
sS'yyrestart'
p497
(L134527536L
L134527659L
tp498
sS'bfd_set_error'
p499
(L134563648L
L134563723L
tp500
sS'_bfd_elf_common_section'
p501
(L134848272L
L134848278L
tp502
sS'bfd_elf32_swap_symbol_out'
p503
(L134695568L
L134695751L
tp504
sS'bfd_link_repair_undef_list'
p505
(L134613616L
L134613694L
tp506
sS'bfd_hash_newfunc'
p507
(L134609328L
L134609361L
tp508
sS'elfcore_write_linux_prpsinfo32'
p509
(L134764560L
L134764946L
tp510
sS'_bfd_elf_rel_vtable_reloc_fn'
p511
(L134750208L
L134750211L
tp512
sS'_bfd_elf_canonicalize_dynamic_reloc'
p513
(L134742928L
L134743216L
tp514
sS'elf_i386_finish_dynamic_symbol'
p515
(L134665904L
L134667623L
tp516
sS'd_call_offset'
p517
(L135018400L
L135018508L
tp518
sS'ar_open'
p519
(L134536608L
L134537095L
tp520
sS'bfd_elf_gc_mark_dynamic_ref_symbol'
p521
(L134843856L
L134844040L
tp522
sS'elf_adjust_dynstr_offsets'
p523
(L134777792L
L134777838L
tp524
sS'find_debug_info_0'
p525
(L134642592L
L134642693L
tp526
sS'_bfd_elf_make_dynamic_segment'
p527
(L134717920L
L134717978L
tp528
sS'mangle_name'
p529
(L134630912L
L134631056L
tp530
sS'bfd_close_all_done'
p531
(L134597168L
L134597340L
tp532
sS'open_inarch'
p533
(L134535056L
L134535797L
tp534
sS'xexit'
p535
(L135067760L
L135067786L
tp536
sS'elf_i386_check_relocs'
p537
(L134687280L
L134689696L
tp538
sS'_bfd_elf_strtab_finalize'
p539
(L134854304L
L134854728L
tp540
sS'elf_i386_local_htab_hash'
p541
(L134662640L
L134662674L
tp542
sS'qualifier_string'
p543
(L134992736L
L134992824L
tp544
sS'bfd_get_stab_name'
p545
(L134988048L
L134988074L
tp546
sS'bfd_nonfatal'
p547
(L134541184L
L134541328L
tp548
sS'create_info_hash_table'
p549
(L134641472L
L134641576L
tp550
sS'rsrc_parse_directory'
p551
(L134928160L
L134928468L
tp552
sS'elf_generic_info_to_howto'
p553
(L134975488L
L134975500L
tp554
sS'_bfd_coff_write_task_globals'
p555
(L134959152L
L134959245L
tp556
sS'_bfd_elf_strtab_addref'
p557
(L134853408L
L134853515L
tp558
sS'elfcore_write_linux_prpsinfo64'
p559
(L134764960L
L134765354L
tp560
sS'd_source_name'
p561
(L135017600L
L135017796L
tp562
sS'_bfd_elf_swap_vernaux_in'
p563
(L134711632L
L134711730L
tp564
sS'bfd_elf32_object_p'
p565
(L134701744L
L134703706L
tp566
sS'_bfd_elf_get_synthetic_symtab'
p567
(L134768560L
L134769441L
tp568
sS'bfd_get_next_mapent'
p569
(L134547392L
L134547494L
tp570
sS'elf_i386_finish_dynamic_sections'
p571
(L134664320L
L134665904L
tp572
sS'_bfd_pei_swap_debugdir_in'
p573
(L134939152L
L134939295L
tp574
sS'bfd_simple_get_relocated_section_contents'
p575
(L134658688L
L134659385L
tp576
sS'bfd_get_reloc_upper_bound'
p577
(L134563728L
L134563781L
tp578
sS'bfd_make_section_anyway'
p579
(L134601152L
L134601187L
tp580
sS'_bfd_get_elt_at_filepos'
p581
(L134549104L
L134549806L
tp582
sS'_bfd_elf_link_hash_newfunc'
p583
(L134772080L
L134772299L
tp584
sS'bfd_is_section_compressed'
p585
(L134660432L
L134660644L
tp586
sS'choose_tmpdir'
p587
(L135066000L
L135066488L
tp588
sS'cache_bmmap'
p589
(L134570736L
L134571039L
tp590
sS'bfd_elf_print_symbol'
p591
(L134714720L
L134715612L
tp592
sS'bfd_elf_string_from_elf_section_0'
p593
(L134712400L
L134712866L
tp594
sS'aout_32_get_symbol_info'
p595
(L134895024L
L134895175L
tp596
sS'get_file_size'
p597
(L134544224L
L134544492L
tp598
sS'_bfd_coff_section_already_linked'
p599
(L134587472L
L134587873L
tp600
sS'd_number_component'
p601
(L135017312L
L135017379L
tp602
sS'countargv'
p603
(L135052432L
L135052482L
tp604
sS'aout_32_minisymbol_to_symbol'
p605
(L134895568L
L134895825L
tp606
sS'bfd_scan_vma'
p607
(L134565744L
L134565749L
tp608
sS'pe_ILF_make_a_symbol_reloc'
p609
(L134920592L
L134920732L
tp610
sS'srec_get_section_contents'
p611
(L134625760L
L134626803L
tp612
sS'_bfd_elf_set_arch_mach'
p613
(L134748592L
L134748652L
tp614
sS'_bfd_generic_read_minisymbols'
p615
(L134603584L
L134603786L
tp616
sS'elf_i386_copy_indirect_symbol'
p617
(L134663552L
L134663846L
tp618
sS'bfd_arch_list'
p619
(L134562160L
L134562289L
tp620
sS'bfd_elf_mkcorefile'
p621
(L134712288L
L134712367L
tp622
sS'bfd_elf_link_mark_dynamic_symbol'
p623
(L134769616L
L134769722L
tp624
sS'yyparse'
p625
(L134525152L
L134526551L
tp626
sS'bfd_generic_link_read_symbols'
p627
(L134613792L
L134613821L
tp628
sS'd_lookup_template_argument'
p629
(L135018512L
L135018622L
tp630
sS'fini_reloc_cookie_for_section'
p631
(L134770496L
L134770568L
tp632
sS'bfd_elf_gc_sections'
p633
(L134844176L
L134845215L
tp634
sS'yyfree'
p635
(L134530624L
L134530629L
tp636
sS'coff_i386_reloc_name_lookup'
p637
(L134909280L
L134909367L
tp638
sS'ar_emul_default_parse_arg'
p639
(L134540928L
L134540931L
tp640
sS'comp_unit_find_line'
p641
(L134651056L
L134651444L
tp642
sS'_bfd_elf_strtab_add'
p643
(L134853168L
L134853401L
tp644
sS'tekhex_get_symtab_upper_bound'
p645
(L134632128L
L134632143L
tp646
sS'_bfd_pei_only_swap_filehdr_out'
p647
(L134936928L
L134938030L
tp648
sS'aout_32_set_section_contents'
p649
(L134889088L
L134889491L
tp650
sS'archive_close_worker'
p651
(L134546928L
L134546957L
tp652
sS'bfd_calc_gnu_debuglink_crc32'
p653
(L134598480L
L134598533L
tp654
sS'yylex_destroy'
p655
(L134530432L
L134530585L
tp656
sS'cie_hash'
p657
(L134854848L
L134854856L
tp658
sS'_bfd_elf_create_got_section'
p659
(L134787872L
L134788192L
tp660
sS'bfd_target_list'
p661
(L134607440L
L134607570L
tp662
sS'read_signed_leb128'
p663
(L134593872L
L134593941L
tp664
sS'pe_ILF_make_a_symbol'
p665
(L134909408L
L134909809L
tp666
sS'rsrc_print_name'
p667
(L134924784L
L134924861L
tp668
sS'elf_link_read_relocs_from_section'
p669
(L134775008L
L134775528L
tp670
sS'objalloc_free_block'
p671
(L135067168L
L135067486L
tp672
sS'_bfd_generic_section_already_linked'
p673
(L134622624L
L134622817L
tp674
sS'get_segment_type'
p675
(L134706512L
L134706670L
tp676
sS'bfd_make_section_with_flags'
p677
(L134601200L
L134601398L
tp678
sS'xcalloc'
p679
(L135068032L
L135068103L
tp680
sS'memory_bclose'
p681
(L134567456L
L134567506L
tp682
sS'xatexit_cleanup'
p683
(L135067584L
L135067632L
tp684
sS'bfd_plugin_core_file_failing_command'
p685
(L134975920L
L134975949L
tp686
sS'elf_link_output_extsym'
p687
(L134778528L
L134782041L
tp688
sS'is_ctor_or_dtor'
p689
(L135048816L
L135049077L
tp690
sS'find_separate_debug_file'
p691
(L134594976L
L134595711L
tp692
sS'bfd_default_set_arch_mach'
p693
(L134562576L
L134562650L
tp694
sS'pe_bfd_object_p'
p695
(L134920736L
L134923807L
tp696
sS'ihex_mkobject'
p697
(L134636032L
L134636103L
tp698
sS'rsrc_print_resource_directory'
p699
(L134926736L
L134927508L
tp700
sS'aout_32_swap_std_reloc_out'
p701
(L134891952L
L134892384L
tp702
sS'bfd_elf_add_obj_attr_int'
p703
(L134850432L
L134850527L
tp704
sS'yyerror'
p705
(L134525072L
L134525139L
tp706
sS'write_obj_attribute'
p707
(L134849072L
L134849233L
tp708
sS'generic_core_file_matches_executable_p'
p709
(L134978976L
L134979106L
tp710
sS'_bfd_archive_bsd_construct_extended_name_table'
p711
(L134553984L
L134554023L
tp712
sS'_bfd_elf_export_symbol'
p713
(L134794816L
L134794936L
tp714
sS'd_unqualified_name'
p715
(L135041104L
L135041966L
tp716
sS'coff_canonicalize_symtab'
p717
(L134574016L
L134574122L
tp718
sS'srec_get_symbol_info'
p719
(L134624832L
L134624853L
tp720
sS'elf_i386_reloc_type_lookup'
p721
(L134662048L
L134662630L
tp722
sS'read_unsigned_leb128'
p723
(L134593808L
L134593859L
tp724
sS'objalloc_free'
p725
(L135067104L
L135067158L
tp726
sS'nacl_modify_program_headers'
p727
(L134692896L
L134693202L
tp728
sS'coff_find_nearest_line'
p729
(L134586928L
L134587031L
tp730
sS'coff_get_reloc_upper_bound'
p731
(L134583344L
L134583403L
tp732
sS'try_load_plugin'
p733
(L134976320L
L134976868L
tp734
sS'_bfd_pei_swap_sym_out'
p735
(L134932880L
L134933038L
tp736
sS'ar_replace'
p737
(L134538096L
L134538709L
tp738
sS'consume_count_with_underscores'
p739
(L134992016L
L134992095L
tp740
sS'bfd_getb16'
p741
(L134591376L
L134591393L
tp742
sS'elf32_r_info'
p743
(L134705088L
L134705103L
tp744
sS'bfd_hash_replace'
p745
(L134609040L
L134609135L
tp746
sS'yyset_debug'
p747
(L134530416L
L134530426L
tp748
sS'bfd_plugin_print_symbol'
p749
(L134975760L
L134975781L
tp750
sS'bfd_zalloc2'
p751
(L134598320L
L134598437L
tp752
sS'demangle_arm_hp_template'
p753
(L135004608L
L135006503L
tp754
sS'bfd_elf_link_record_local_dynamic_symbol'
p755
(L134795520L
L134795956L
tp756
sS'bfd_elf32_swap_reloc_out'
p757
(L134695296L
L134695357L
tp758
sS'_bfd_elf_validate_reloc'
p759
(L134749664L
L134750084L
tp760
sS'_bfd_add_bfd_to_archive_cache'
p761
(L134547632L
L134547828L
tp762
sS'coff_count_linenumbers'
p763
(L134574656L
L134574893L
tp764
sS'bfd_default_scan'
p765
(L134560976L
L134561944L
tp766
sS'bfd_elf_get_dyn_lib_class'
p767
(L134824048L
L134824097L
tp768
sS'string_need_1'
p769
(L135053072L
L135053172L
tp770
sS'trad_unix_core_file_failing_signal'
p771
(L134978016L
L134978022L
tp772
sS'bfd_fprintf_vma'
p773
(L134566192L
L134566235L
tp774
sS'yy_scan_buffer'
p775
(L134529936L
L134530083L
tp776
sS'sec_merge_hash_newfunc'
p777
(L134988320L
L134988434L
tp778
sS'coff_write_armap'
p779
(L134559776L
L134560716L
tp780
sS'd_cv_qualifiers'
p781
(L135016640L
L135016905L
tp782
sS'ar_addmod'
p783
(L134537264L
L134537527L
tp784
sS'_bfd_n1'
p785
(L134590272L
L134590296L
tp786
sS'bfd_elf32_core_file_failing_command'
p787
(L134705120L
L134705140L
tp788
sS'd_print_function_type'
p789
(L135036112L
L135036895L
tp790
sS'_bfd_elf_new_section_hook'
p791
(L134716528L
L134716735L
tp792
sS'aout_link_free_symbols'
p793
(L134878224L
L134878292L
tp794
sS'aout_32_reloc_type_lookup'
p795
(L134884768L
L134884892L
tp796
sS'bfd_section_list_clear'
p797
(L134599968L
L134600042L
tp798
sS'elf_i386_allocate_dynrelocs'
p799
(L134667680L
L134669032L
tp800
sS'ar_emul_default_replace'
p801
(L134540784L
L134540882L
tp802
sS'd_growable_string_callback_adapter'
p803
(L135018864L
L135019057L
tp804
sS'remove_output'
p805
(L134531248L
L134531312L
tp806
sS'coff_symbol_from'
p807
(L134574896L
L134574936L
tp808
sS'_bfd_elf_make_section_from_shdr'
p809
(L134759072L
L134759114L
tp810
sS'bfd_elf32_swap_phdr_out'
p811
(L134700624L
L134700818L
tp812
sS'tekhex_init'
p813
(L134634624L
L134634730L
tp814
sS'bfd_get_gp_size'
p815
(L134565376L
L134565442L
tp816
sS'bfd_set_start_address'
p817
(L134565344L
L134565361L
tp818
sS'htab_create_alloc'
p819
(L135061264L
L135061327L
tp820
sS'_bfd_elf_create_ifunc_sections'
p821
(L134690016L
L134690421L
tp822
sS'opncls_btell'
p823
(L134593968L
L134593982L
tp824
sS'elf_collect_hash_codes'
p825
(L134771872L
L134772077L
tp826
sS'_bfd_elf_canonicalize_reloc'
p827
(L134742528L
L134742649L
tp828
sS'dlang_attributes'
p829
(L135053408L
L135053590L
tp830
sS'aout_32_get_lineno'
p831
(L134895008L
L134895011L
tp832
sS'normalize'
p833
(L134534496L
L134534618L
tp834
sS'bfd_search_for_target'
p835
(L134607584L
L134607657L
tp836
sS'bfd_release'
p837
(L134598448L
L134598467L
tp838
sS'lbasename'
p839
(L135064064L
L135064098L
tp840
sS'_bfd_coff_link_input_bfd'
p841
(L134959584L
L134968583L
tp842
sS'bfd_open_file'
p843
(L134570112L
L134570407L
tp844
sS'ihex_set_arch_mach'
p845
(L134636112L
L134636167L
tp846
sS'_bfd_elf_get_dynamic_reloc_upper_bound'
p847
(L134742784L
L134742924L
tp848
sS'_bfd_elf_is_local_label_name'
p849
(L134748480L
L134748558L
tp850
sS'coff_slurp_symbol_table_0'
p851
(L134910768L
L134913068L
tp852
sS'coff_swap_scnhdr_in'
p853
(L134908912L
L134909177L
tp854
sS'coff_set_arch_mach'
p855
(L134916080L
L134916160L
tp856
sS'is_gnu_v3_mangled_ctor'
p857
(L135050592L
L135050627L
tp858
sS'_bfd_generic_link_add_archive_symbols'
p859
(L134613888L
L134614680L
tp860
sS'_bfd_elf_swap_verdaux_out'
p861
(L134711328L
L134711389L
tp862
sS'opncls_bread'
p863
(L134594064L
L134594140L
tp864
sS'print_version'
p865
(L134545232L
L134545371L
tp866
sS'yyget_in'
p867
(L134530288L
L134530294L
tp868
sS'bfd_bread'
p869
(L134568320L
L134568480L
tp870
sS'aout_32_make_empty_symbol'
p871
(L134889504L
L134889539L
tp872
sS'elf_i386_get_local_sym_hash'
p873
(L134674624L
L134674943L
tp874
sS'_bfd_elf_stringtab_init'
p875
(L134715616L
L134715732L
tp876
sS'bfd_assert'
p877
(L134563360L
L134563432L
tp878
sS'_bfd_write_section_stabs'
p879
(L134987280L
L134987731L
tp880
sS'_bfd_elf_copy_private_bfd_data'
p881
(L134714560L
L134714710L
tp882
sS'adjust_relative_path'
p883
(L134546240L
L134546924L
tp884
sS'd_compact_number'
p885
(L135017392L
L135017447L
tp886
sS'iterative_hash'
p887
(L135063280L
L135063920L
tp888
sS'_bfd_new_bfd'
p889
(L134595712L
L134595912L
tp890
sS'main'
p891
(L134520992L
L134524828L
tp892
sS'elf_i386_tls_transition'
p893
(L134674944L
L134676516L
tp894
sS'elfcore_write_arm_vfp'
p895
(L134766640L
L134766707L
tp896
sS'bfd_elf_add_obj_attr_string'
p897
(L134850528L
L134850639L
tp898
sS'_bfd_elf_map_sections_to_segments'
p899
(L134717984L
L134720962L
tp900
sS'bfd_section_from_shdr'
p901
(L134759120L
L134763425L
tp902
sS'bfd_generic_define_common_symbol'
p903
(L134623328L
L134623516L
tp904
sS'bfd_elf_size_dynsym_hash_dynstr'
p905
(L134819472L
L134823157L
tp906
sS'rsrc_count_directory'
p907
(L134924080L
L134924526L
tp908
sS'bfd_elf_is_group_section'
p909
(L134714448L
L134714470L
tp910
sS'sym_is_global'
p911
(L134707984L
L134708059L
tp912
sS'_bfd_stab_section_find_nearest_line'
p913
(L134603808L
L134606560L
tp914
sS'remember_Btype'
p915
(L134992832L
L134992895L
tp916
sS'bfd_generic_is_group_section'
p917
(L134602432L
L134602435L
tp918
sS'_bfd_add_merge_section'
p919
(L134989024L
L134989672L
tp920
sS'_bfd_elf_get_sec_type_attr'
p921
(L134716368L
L134716516L
tp922
sS'bfd_elf_generic_reloc'
p923
(L134714480L
L134714553L
tp924
sS'bfd_hash_traverse'
p925
(L134609376L
L134609496L
tp926
sS'd_print_mod_0'
p927
(L135032640L
L135034523L
tp928
sS'memory_bread'
p929
(L134567760L
L134567922L
tp930
sS'binary_object_p'
p931
(L134631280L
L134631444L
tp932
sS'stab_link_includes_newfunc'
p933
(L134984240L
L134984330L
tp934
sS'bfd_core_file_failing_signal'
p935
(L134978768L
L134978822L
tp936
sS'_bfd_elf_copy_private_header_data'
p937
(L134735600L
L134742033L
tp938
sS'_bfd_dwarf2_find_nearest_line'
p939
(L134654720L
L134658460L
tp940
sS'cplus_demangle_name_to_style'
p941
(L134994976L
L134995037L
tp942
sS'message'
p943
(L134976224L
L134976313L
tp944
sS'info_hash_table_newfunc'
p945
(L134641584L
L134641671L
tp946
sS'_bfd_pei_swap_aouthdr_in'
p947
(L134934576L
L134935424L
tp948
sS'resolve_section'
p949
(L134775760L
L134775946L
tp950
sS'_bfd_generic_link_hash_newfunc'
p951
(L134611232L
L134611327L
tp952
sS'htab_find'
p953
(L135062240L
L135062280L
tp954
sS'endian_string'
p955
(L134541072L
L134541184L
tp956
sS'd_expr_primary'
p957
(L135048528L
L135048816L
tp958
sS'elfcore_write_s390_ctrs'
p959
(L134766240L
L134766307L
tp960
sS'bfd_arch_get_compatible'
p961
(L134562304L
L134562400L
tp962
sS'expandargv'
p963
(L135051680L
L135052429L
tp964
sS'_bfd_elf_section_from_bfd_section'
p965
(L134720976L
L134721195L
tp966
sS'd_print_subexpr'
p967
(L135037728L
L135038053L
tp968
sS'ar_emul_default_usage'
p969
(L134540256L
L134540365L
tp970
sS'bfd_getb_signed_64'
p971
(L134592016L
L134592158L
tp972
sS'bfd_find_target'
p973
(L134606944L
L134607090L
tp974
sS'dummy_reloc16_estimate'
p975
(L134905776L
L134905807L
tp976
sS'bfd_section_already_linked_table_traverse'
p977
(L134621696L
L134621731L
tp978
sS'cache_bread'
p979
(L134571600L
L134572144L
tp980
sS'ignore_section_sym'
p981
(L134708064L
L134708171L
tp982
sS'aout_link_input_section'
p983
(L134879936L
L134884758L
tp984
sS'bfd_generic_get_relocated_section_contents'
p985
(L134983344L
L134984225L
tp986
sS'is_vma_in_section'
p987
(L134924048L
L134924080L
tp988
sS'find_abstract_instance_name'
p989
(L134648400L
L134649180L
tp990
sS'bfd_getl64'
p991
(L134591888L
L134592013L
tp992
sS'bfd_get_section_contents'
p993
(L134602064L
L134602401L
tp994
sS'_bfd_stab_section_offset'
p995
(L134987952L
L134988037L
tp996
sS'_bfd_merged_section_offset'
p997
(L134991360L
L134991870L
tp998
sS'_bfd_elf_make_section_from_shdr_0'
p999
(L134755696L
L134759062L
tp1000
sS'bfd_plugin_set_plugin'
p1001
(L134977584L
L134977594L
tp1002
sS'bfd_elf_bfd_from_remote_memory'
p1003
(L134768528L
L134768549L
tp1004
sS'rsrc_write_entry'
p1005
(L134924864L
L134925214L
tp1006
sS'generic_add_output_symbol'
p1007
(L134610656L
L134610780L
tp1008
sS'_bfd_generic_final_link'
p1009
(L134620928L
L134621630L
tp1010
sS'internal_srec_write_object_contents'
p1011
(L134626816L
L134627706L
tp1012
sS'bfd_plugin_set_program_name'
p1013
(L134977568L
L134977578L
tp1014
sS'make_relative_prefix'
p1015
(L135065936L
L135065961L
tp1016
sS'bfd_tell'
p1017
(L134568592L
L134568693L
tp1018
sS'yy_fatal_error'
p1019
(L134526800L
L134526848L
tp1020
sS'coff_swap_reloc_out'
p1021
(L134904464L
L134904548L
tp1022
sS'unix_lbasename'
p1023
(L135063936L
L135063970L
tp1024
sS'_bfd_nocore_core_file_matches_executable_p'
p1025
(L134590352L
L134590373L
tp1026
sS'i386linux_write_object_contents'
p1027
(L134872096L
L134872833L
tp1028
sS'binary_get_section_contents'
p1029
(L134631728L
L134631814L
tp1030
sS'_bfd_elf_assign_file_position_for_section'
p1031
(L134717712L
L134717810L
tp1032
sS'map_over_list'
p1033
(L134536016L
L134536277L
tp1034
sS'_bfd_dwarf2_find_inliner_info'
p1035
(L134652512L
L134652588L
tp1036
sS'read_value'
p1037
(L134855808L
L134855969L
tp1038
sS'bfd_slurp_bsd_armap_f2'
p1039
(L134551744L
L134552343L
tp1040
sS'i386_aout_linux_mkobject'
p1041
(L134872848L
L134872853L
tp1042
sS'pe_bfd_copy_private_bfd_data'
p1043
(L134916208L
L134916281L
tp1044
sS'_bfd_write_archive_contents'
p1045
(L134556384L
L134558165L
tp1046
sS'bfd_set_archive_head'
p1047
(L134547520L
L134547540L
tp1048
sS'_bfd_elf_swap_verneed_out'
p1049
(L134711504L
L134711624L
tp1050
sS'elf_i386_info_to_howto_rel'
p1051
(L134664208L
L134664239L
tp1052
sS'bfd_get_arch_info'
p1053
(L134562480L
L134562488L
tp1054
sS'elf_i386_grok_prstatus'
p1055
(L134663248L
L134663538L
tp1056
sS'bfd_plugin_sizeof_headers'
p1057
(L134975728L
L134975757L
tp1058
sS'bfd_arch_i386_onebyte_nop_fill'
p1059
(L134977856L
L134977918L
tp1060
sS'bfd_get_mtime'
p1061
(L134569216L
L134569288L
tp1062
sS'strrevcmp'
p1063
(L134852768L
L134852874L
tp1064
sS'bfd_get_reloc_size'
p1065
(L134979120L
L134979268L
tp1066
sS'htab_collisions'
p1067
(L135063168L
L135063231L
tp1068
sS'demangle_class_name'
p1069
(L135006512L
L135006612L
tp1070
sS'bfd_hash_table_free'
p1071
(L134607936L
L134607967L
tp1072
sS'list_supported_targets'
p1073
(L134541808L
L134542021L
tp1074
sS'pass_over'
p1075
(L134635472L
L134635783L
tp1076
sS'bfd_elf32_write_out_phdrs'
p1077
(L134700832L
L134700964L
tp1078
sS'read_attribute_value'
p1079
(L134643520L
L134644964L
tp1080
sS'compare_link_order'
p1081
(L134776112L
L134776168L
tp1082
sS'bfd_openw'
p1083
(L134596816L
L134596920L
tp1084
sS'bfd_openr'
p1085
(L134596480L
L134596523L
tp1086
sS'coff_slurp_symbol_table'
p1087
(L134913072L
L134913101L
tp1088
sS'bfd_get_bits'
p1089
(L134592688L
L134592844L
tp1090
sS'simple_dummy_multiple_definition'
p1091
(L134658544L
L134658550L
tp1092
sS'set_default_bfd_target'
p1093
(L134541568L
L134541656L
tp1094
sS'elf_i386_gc_sweep_hook'
p1095
(L134676528L
L134677306L
tp1096
sS'elf_i386_reloc_name_lookup'
p1097
(L134674304L
L134674385L
tp1098
sS'elf_i386_link_hash_newfunc'
p1099
(L134673936L
L134674031L
tp1100
sS'ar_addlib'
p1101
(L134537104L
L134537257L
tp1102
sS'_bfd_elf_strtab_clear_all_refs'
p1103
(L134853712L
L134853754L
tp1104
sS'elf_i386_relocate_section'
p1105
(L134677312L
L134687177L
tp1106
sS'coff_renumber_symbols'
p1107
(L134574944L
L134575690L
tp1108
sS'bfd_is_local_label'
p1109
(L134602496L
L134602539L
tp1110
sS'_bfd_elf_eh_frame_present'
p1111
(L134863312L
L134863398L
tp1112
sS'bfd_make_section'
p1113
(L134601408L
L134601443L
tp1114
sS'_bfd_stringtab_add'
p1115
(L134609760L
L134610053L
tp1116
sS'_bfd_generic_link_write_global_symbol'
p1117
(L134610784L
L134611023L
tp1118
sS'aout_32_squirt_out_relocs'
p1119
(L134894320L
L134894580L
tp1120
sS'demangle_qualified'
p1121
(L135000128L
L135001319L
tp1122
sS'bfd_check_format'
p1123
(L134589904L
L134589939L
tp1124
sS'tekhex_make_empty_symbol'
p1125
(L134632448L
L134632490L
tp1126
sS'bfd_flush'
p1127
(L134568704L
L134568723L
tp1128
sS'bfd_arch_i386_long_nop_fill'
p1129
(L134977824L
L134977842L
tp1130
sS'read_address'
p1131
(L134643040L
L134643260L
tp1132
sS'bfd_scan_arch'
p1133
(L134562080L
L134562153L
tp1134
sS'bfd_nonfatal_message'
p1135
(L134544752L
L134545075L
tp1136
sS'bfd_realloc2'
p1137
(L134590784L
L134590914L
tp1138
sS'_bfd_elf_init_1_index_section'
p1139
(L134819200L
L134819279L
tp1140
sS'cplus_demangle_mangled_name'
p1141
(L135048240L
L135048521L
tp1142
sS'filename_eq'
p1143
(L135059728L
L135059763L
tp1144
sS'_objalloc_alloc'
p1145
(L135066832L
L135067103L
tp1146
sS'_bfd_construct_extended_name_table'
p1147
(L134552960L
L134553984L
tp1148
sS'bfd_set_file_flags'
p1149
(L134563856L
L134563978L
tp1150
sS'bfd_seek'
p1151
(L134568816L
L134569211L
tp1152
sS'd_append_char'
p1153
(L135017088L
L135017202L
tp1154
sS'elf_append_rel'
p1155
(L134848800L
L134848920L
tp1156
sS'srec_write_record'
p1157
(L134624864L
L134625431L
tp1158
sS'deregister_tm_clones'
p1159
(L134524880L
L134524922L
tp1160
sS'bfd_sprintf_vma'
p1161
(L134566128L
L134566179L
tp1162
sS'bfd_getl16'
p1163
(L134591408L
L134591425L
tp1164
sS'bfd_get_error'
p1165
(L134562880L
L134562886L
tp1166
sS'_bfd_elf_init_private_section_data'
p1167
(L134734832L
L134735232L
tp1168
sS'elfcore_write_aarch_hw_break'
p1169
(L134766800L
L134766867L
tp1170
sS'code_for_qualifier'
p1171
(L134992688L
L134992734L
tp1172
sS'bfd_section_already_linked_table_insert'
p1173
(L134621792L
L134621863L
tp1174
sS'bfd_reloc_type_lookup'
p1175
(L134982944L
L134982959L
tp1176
sS'_bfd_elf_gc_keep'
p1177
(L134844048L
L134844166L
tp1178
sS'memory_bseek'
p1179
(L134567520L
L134567747L
tp1180
sS'read_uleb128'
p1181
(L134854736L
L134854838L
tp1182
sS'_bfd_elf_strtab_restore_size'
p1183
(L134853760L
L134853878L
tp1184
sS'elf_gc_smash_unused_vtentry_relocs'
p1185
(L134797072L
L134797374L
tp1186
sS'bfd_perform_relocation'
p1187
(L134979488L
L134980562L
tp1188
sS'_bfd_elf_link_hash_table_create'
p1189
(L134823888L
L134823988L
tp1190
sS'srec_object_p'
p1191
(L134630256L
L134630569L
tp1192
sS'write_archive'
p1193
(L134533424L
L134533792L
tp1194
sS'bfd_get_elf_phdrs'
p1195
(L134768016L
L134768099L
tp1196
sS'srec_bad_byte'
p1197
(L134627744L
L134627962L
tp1198
sS'vendor_obj_attr_size'
p1199
(L134849376L
L134849611L
tp1200
sS'elf_gc_sweep_symbol'
p1201
(L134774896L
L134774994L
tp1202
sS'_bfd_elf_dynamic_symbol_p'
p1203
(L134797936L
L134798217L
tp1204
sS'bfd_printable_arch_mach'
p1205
(L134562656L
L134562705L
tp1206
sS'elf_vxworks_finish_dynamic_entry'
p1207
(L134694736L
L134694932L
tp1208
sS'do_slurp_bsd_armap'
p1209
(L134545824L
L134546229L
tp1210
sS'elf_get_linked_section_vma'
p1211
(L134775952L
L134776105L
tp1212
sS'bfd_elf_string_from_elf_section'
p1213
(L134712368L
L134712398L
tp1214
sS'i386_aout_linux_set_sizes'
p1215
(L134870464L
L134870526L
tp1216
sS'bfd_generic_archive_p'
p1217
(L134550112L
L134550552L
tp1218
sS'_bfd_elf_init_reloc_shdr'
p1219
(L134709152L
L134709586L
tp1220
sS'_bfd_generic_init_private_section_data'
p1221
(L134593952L
L134593958L
tp1222
sS'bfd_get_arch'
p1223
(L134562416L
L134562427L
tp1224
sS'rsrc_parse_entries'
p1225
(L134927520L
L134928145L
tp1226
sS'coff_find_inliner_info'
p1227
(L134587040L
L134587096L
tp1228
sS'bfd_init'
p1229
(L134590128L
L134590130L
tp1230
sS'bfd_set_section_flags'
p1231
(L134601456L
L134601473L
tp1232
sS'aout_32_set_arch_mach'
p1233
(L134887200L
L134887341L
tp1234
sS'aout_32_get_symtab_upper_bound'
p1235
(L134894960L
L134895007L
tp1236
sS'bfd_section_already_linked_table_init'
p1237
(L134621872L
L134621915L
tp1238
sS'yy_switch_to_buffer'
p1239
(L134527024L
L134527132L
tp1240
sS'bfd_get_elf_phdr_upper_bound'
p1241
(L134767952L
L134768003L
tp1242
sS'_bfd_slurp_extended_name_table'
p1243
(L134552352L
L134552955L
tp1244
sS'bfd_elf_match_symbols_in_sections'
p1245
(L134772368L
L134774243L
tp1246
sS'generic_link_check_archive_element_collect'
p1247
(L134618320L
L134618345L
tp1248
sS'ihex_write_object_contents'
p1249
(L134636560L
L134637389L
tp1250
sS'_bfd_elf_get_special_section'
p1251
(L134716144L
L134716356L
tp1252
sS'linux_link_hash_table_create'
p1253
(L134871872L
L134871964L
tp1254
sS'yyget_out'
p1255
(L134530304L
L134530310L
tp1256
sS'bfd_elf_get_runpath_list'
p1257
(L134824192L
L134824215L
tp1258
sS'cplus_demangle_set_style'
p1259
(L134994928L
L134994969L
tp1260
sS'_bfd_generic_new_section_hook'
p1261
(L134599872L
L134599959L
tp1262
sS'bfd_record_phdr'
p1263
(L134565856L
L134566114L
tp1264
sS'i386_aout_linux_callback'
p1265
(L134873072L
L134874454L
tp1266
sS'eq_file_ptr'
p1267
(L134545776L
L134545803L
tp1268
sS'aout_32_sizeof_headers'
p1269
(L134896992L
L134897006L
tp1270
sS'yyset_lineno'
p1271
(L134530352L
L134530362L
tp1272
sS'cplus_demangle_fill_extended_operator'
p1273
(L135038128L
L135038188L
tp1274
sS'concat_length'
p1275
(L135052496L
L135052548L
tp1276
sS'_bfd_elf_common_section_index'
p1277
(L134848256L
L134848262L
tp1278
sS'_bfd_nearby_section'
p1279
(L134622832L
L134623141L
tp1280
sS'bfd_wrapped_link_hash_lookup'
p1281
(L134611536L
L134611999L
tp1282
sS'_bfd_elf_define_linkage_sym'
p1283
(L134787616L
L134787865L
tp1284
sS'opncls_bclose'
p1285
(L134594160L
L134594203L
tp1286
sS'pe_print_debugdata'
p1287
(L134939296L
L134940635L
tp1288
sS'bfd_make_section_anyway_with_flags'
p1289
(L134600976L
L134601150L
tp1290
sS'_bfd_abort'
p1291
(L134563440L
L134563636L
tp1292
sS'coff_i386_rtype_to_howto'
p1293
(L134904976L
L134905352L
tp1294
sS'_bfd_get_gp_value'
p1295
(L134565536L
L134565610L
tp1296
sS'htab_try_create'
p1297
(L135061456L
L135061523L
tp1298
sS'binary_canonicalize_symtab'
p1299
(L134631056L
L134631271L
tp1300
sS'ar_directory_doer'
p1301
(L134535968L
L134536005L
tp1302
sS'coff_make_empty_symbol'
p1303
(L134583408L
L134583471L
tp1304
sS'unwrap_hash_lookup'
p1305
(L134613104L
L134613366L
tp1306
sS'aout_32_mkobject'
p1307
(L134886400L
L134886511L
tp1308
sS'bfd_demangle'
p1309
(L134566688L
L134567273L
tp1310
sS'size_of_output_cie_fde'
p1311
(L134854864L
L134854938L
tp1312
sS'_bfd_write_merged_section'
p1313
(L134990976L
L134991353L
tp1314
sS'bfd_elf_get_default_section_type'
p1315
(L134717680L
L134717707L
tp1316
sS'_bfd_elf_encode_eh_address'
p1317
(L134868640L
L134868682L
tp1318
sS'aout_32_link_hash_table_init'
p1319
(L134897200L
L134897205L
tp1320
sS'elf_sort_elf_symbol'
p1321
(L134769824L
L134769843L
tp1322
sS'do_type'
p1323
(L135001328L
L135004597L
tp1324
sS'bfd_getb64'
p1325
(L134591760L
L134591885L
tp1326
sS'aout_32_some_aout_object_p'
p1327
(L134885600L
L134886390L
tp1328
sS'iterate_demangle_function'
p1329
(L135012688L
L135013101L
tp1330
sS'bfd_elf_link_record_dynamic_symbol'
p1331
(L134789248L
L134789470L
tp1332
sS'_bfd_elf_adjust_dynamic_copy'
p1333
(L134797840L
L134797935L
tp1334
sS'bfd_set_arch_info'
p1335
(L134562400L
L134562412L
tp1336
sS'elf_vxworks_final_write_processing'
p1337
(L134694400L
L134694510L
tp1338
sS'elf_i386_rtype_to_howto'
p1339
(L134664032L
L134664198L
tp1340
sS'filename_hash'
p1341
(L135059664L
L135059725L
tp1342
sS'xatexit_0'
p1343
(L135067632L
L135067747L
tp1344
sS'verilog_write_object_contents'
p1345
(L134661552L
L134662048L
tp1346
sS'bfd_get_linker_section'
p1347
(L134600192L
L134600286L
tp1348
sS'yy_load_buffer_state'
p1349
(L134526736L
L134526793L
tp1350
sS'rsrc_print_resource_entries'
p1351
(L134925712L
L134926728L
tp1352
sS'concat'
p1353
(L135052736L
L135052881L
tp1354
sS'unlink_if_ordinary'
p1355
(L135067488L
L135067577L
tp1356
sS'coff_link_add_object_symbols'
p1357
(L134955200L
L134957718L
tp1358
sS'bfd_elf32_slurp_symbol_table'
p1359
(L134695760L
L134697239L
tp1360
sS'htab_traverse'
p1361
(L135063088L
L135063153L
tp1362
sS'cplus_demangle_print_callback'
p1363
(L135049088L
L135049409L
tp1364
sS'_bfd_pe_print_ce_compressed_pdata'
p1365
(L134941088L
L134942366L
tp1366
sS'_bfd_generic_link_hash_table_free'
p1367
(L134610288L
L134610380L
tp1368
sS'elf_fake_sections'
p1369
(L134709600L
L134710960L
tp1370
sS'bfd_set_section_contents'
p1371
(L134601792L
L134602051L
tp1372
sS'_bfd_xcoff_stringtab_init'
p1373
(L134609680L
L134609703L
tp1374
sS'binary_sizeof_headers'
p1375
(L134630864L
L134630867L
tp1376
sS'make_mapping'
p1377
(L134706848L
L134706965L
tp1378
sS'htab_traverse_noresize'
p1379
(L135063008L
L135063073L
tp1380
sS'_bfd_pei_swap_aouthdr_out'
p1381
(L134935424L
L134936914L
tp1382
sS'bfd_generic_stat_arch_elt'
p1383
(L134554688L
L134554914L
tp1384
sS'_bfd_pei_write_codeview_record'
p1385
(L134940832L
L134941073L
tp1386
sS'elf_link_renumber_hash_table_dynsyms'
p1387
(L134774256L
L134774292L
tp1388
sS'bfd_arch_default_fill'
p1389
(L134561952L
L134562003L
tp1390
sS'_bfd_generic_reloc_link_order'
p1391
(L134619552L
L134620299L
tp1392
sS'd_expression_1'
p1393
(L135043936L
L135045406L
tp1394
sS'aout_32_swap_ext_reloc_out'
p1395
(L134892384L
L134892722L
tp1396
sS'_bfd_elf_discard_section_eh_frame_hdr'
p1397
(L134863184L
L134863311L
tp1398
sS'bfd_alloc'
p1399
(L134597840L
L134597984L
tp1400
sS'getvalue'
p1401
(L134631824L
L134631951L
tp1402
sS'elfcore_write_note'
p1403
(L134763952L
L134764257L
tp1404
sS'srec_scan'
p1405
(L134627968L
L134630256L
tp1406
sS'tekhex_print_symbol'
p1407
(L134634496L
L134634614L
tp1408
sS'bfd_malloc_and_get_section'
p1409
(L134602416L
L134602431L
tp1410
sS'tekhex_mkobject'
p1411
(L134633072L
L134633151L
tp1412
sS'_bfd_calloc_wrapper'
p1413
(L134545808L
L134545813L
tp1414
sS'aout_32_swap_ext_reloc_in'
p1415
(L134892736L
L134893196L
tp1416
sS'dwarf1_unit_find_nearest_line'
p1417
(L134869200L
L134869887L
tp1418
sS'aout_32_canonicalize_reloc'
p1419
(L134894592L
L134894787L
tp1420
sS'default_indirect_link_order'
p1421
(L134612000L
L134613089L
tp1422
sS'aout_32_get_reloc_upper_bound'
p1423
(L134894800L
L134894947L
tp1424
sS'bfd_get_relocated_section_contents'
p1425
(L134565760L
L134565849L
tp1426
sS'cplus_demangle_fill_ctor'
p1427
(L135038192L
L135038252L
tp1428
sS'register_claim_file'
p1429
(L134975712L
L134975724L
tp1430
sS'cache_bwrite'
p1431
(L134571424L
L134571586L
tp1432
sS'bfd_cache_max_open'
p1433
(L134569440L
L134569553L
tp1434
sS'do_arg'
p1435
(L135007952L
L135008280L
tp1436
sS'_bfd_generic_minisymbol_to_symbol'
p1437
(L134603792L
L134603799L
tp1438
sS'undefined_reference'
p1439
(L134770576L
L134770640L
tp1440
sS'map_over_members'
p1441
(L134534624L
L134535049L
tp1442
sS'memory_bwrite'
p1443
(L134567936L
L134568175L
tp1444
sS'bfd_alloc2'
p1445
(L134597984L
L134598076L
tp1446
sS'bfd_elf_add_obj_attr_int_string'
p1447
(L134850640L
L134850759L
tp1448
sS'd_number'
p1449
(L135017216L
L135017307L
tp1450
sS'aout_link_check_archive_element'
p1451
(L134878304L
L134879111L
tp1452
sS'yy_init_buffer'
p1453
(L134527312L
L134527426L
tp1454
sS'_bfd_norelocs_canonicalize_reloc'
p1455
(L134590336L
L134590349L
tp1456
sS'ar_delete'
p1457
(L134537568L
L134537897L
tp1458
sS'elf_i386_create_dynamic_sections'
p1459
(L134689696L
L134690003L
tp1460
sS'bfd_elf32_swap_reloca_in'
p1461
(L134695216L
L134695282L
tp1462
sS'bfd_lookup_arch'
p1463
(L134562496L
L134562565L
tp1464
sS'verilog_set_section_contents'
p1465
(L134661120L
L134661381L
tp1466
sS'_bfd_elf_create_dynamic_sections'
p1467
(L134788848L
L134789239L
tp1468
sS'bfd_arch_i386_short_nop_fill'
p1469
(L134977808L
L134977823L
tp1470
sS'aout_32_bfd_free_cached_info'
p1471
(L134897008L
L134897199L
tp1472
sS'_bfd_elf_symbol_from_bfd_symbol'
p1473
(L134734624L
L134734826L
tp1474
sS'writevalue'
p1475
(L134632144L
L134632285L
tp1476
sS'prompt'
p1477
(L134536512L
L134536568L
tp1478
sS'dlang_type'
p1479
(L135057568L
L135058709L
tp1480
sS'register_Btype'
p1481
(L134992432L
L134992541L
tp1482
sS'bfd_elf_gc_record_vtentry'
p1483
(L134845456L
L134845786L
tp1484
sS'opncls_bseek'
p1485
(L134593984L
L134594059L
tp1486
sS'buildargv'
p1487
(L135050928L
L135051504L
tp1488
sS'yy_get_previous_state'
p1489
(L134526560L
L134526732L
tp1490
sS'make_relative_prefix_1'
p1491
(L135064656L
L135065927L
tp1492
sS'cache_bstat'
p1493
(L134571040L
L134571151L
tp1494
sS'bfd_get_size'
p1495
(L134569296L
L134569352L
tp1496
sS'elf_collect_gnu_hash_codes'
p1497
(L134777520L
L134777777L
tp1498
sS'merge_sections_remove_hook'
p1499
(L134770928L
L134770981L
tp1500
sS'ada_demangle'
p1501
(L134995040L
L134996418L
tp1502
sS'mark_entry'
p1503
(L134855344L
L134855469L
tp1504
sS'read_rangelist'
p1505
(L134643264L
L134643509L
tp1506
sS'coff_write_linenumbers'
p1507
(L134578368L
L134578796L
tp1508
sS'ar_emul_replace'
p1509
(L134540752L
L134540773L
tp1510
sS'aout_32_swap_exec_header_in'
p1511
(L134885008L
L134885257L
tp1512
sS'_bfd_create_empty_archive_element_shell'
p1513
(L134547504L
L134547509L
tp1514
sS'list_matching_formats'
p1515
(L134541664L
L134541805L
tp1516
sS'bfd_set_symtab'
p1517
(L134602544L
L134602618L
tp1518
sS'_bfd_elf_merge_sections'
p1519
(L134823168L
L134823376L
tp1520
sS'linux_add_one_symbol'
p1521
(L134875344L
L134876025L
tp1522
sS'bfd_set_assert_handler'
p1523
(L134563296L
L134563312L
tp1524
sS'non_fatal'
p1525
(L134541536L
L134541563L
tp1526
sS'_bfd_generic_link_add_symbols'
p1527
(L134617776L
L134617788L
tp1528
sS'bfd_elf_gc_record_vtinherit'
p1529
(L134845216L
L134845454L
tp1530
sS'bfd_getl32'
p1531
(L134591616L
L134591653L
tp1532
sS'_bfd_generic_write_ar_hdr'
p1533
(L134554304L
L134554353L
tp1534
sS'_bfd_merge_sections'
p1535
(L134989680L
L134990976L
tp1536
sS'symbolsrec_write_object_contents'
p1537
(L134627728L
L134627742L
tp1538
sS'bfd_map_over_sections'
p1539
(L134601536L
L134601626L
tp1540
sS'elf_i386_size_dynamic_sections'
p1541
(L134669040L
L134672517L
tp1542
sS'dlang_function_type'
p1543
(L135059040L
L135059424L
tp1544
sS'_bfd_elf_swap_verdaux_in'
p1545
(L134711264L
L134711315L
tp1546
sS'__umoddi3'
p1547
(L135069200L
L135069543L
tp1548
sS'bfd_coff_set_symbol_class'
p1549
(L134587168L
L134587414L
tp1550
sS'bfd_elf32_checksum_contents'
p1551
(L134700976L
L134701733L
tp1552
sS'htab_find_slot_with_hash'
p1553
(L135062288L
L135062748L
tp1554
sS'_bfd_elf_copy_private_symbol_data'
p1555
(L134742048L
L134742327L
tp1556
sS'is_default_attr'
p1557
(L134848928L
L134848974L
tp1558
sS'_bfd_pei_swap_scnhdr_out'
p1559
(L134938224L
L134939152L
tp1560
sS'_bfd_elf_link_hash_table_free'
p1561
(L134772304L
L134772359L
tp1562
sS'generic_link_add_object_symbols'
p1563
(L134617184L
L134617675L
tp1564
sS'bfd_format_string'
p1565
(L134590080L
L134590116L
tp1566
sS'__libc_csu_fini'
p1567
(L135069664L
L135069666L
tp1568
sS'aout_32_find_nearest_line'
p1569
(L134895840L
L134896991L
tp1570
sS'bfd_elf32_swap_symbol_in'
p1571
(L134694944L
L134695149L
tp1572
sS'MY_bfd_copy_private_section_data'
p1573
(L134874464L
L134874525L
tp1574
sS'check_dynsym'
p1575
(L134775536L
L134775623L
tp1576
sS'bfd_realloc'
p1577
(L134590688L
L134590770L
tp1578
sS'scan_unit_for_symbols'
p1579
(L134649184L
L134650919L
tp1580
sS'coff_pe_i386_relocate_section'
p1581
(L134905840L
L134905892L
tp1582
sS'aout_32_link_add_symbols'
p1583
(L134897312L
L134897454L
tp1584
sS'd_exprlist'
p1585
(L135042160L
L135043925L
tp1586
sS'elf_strtab_hash_newfunc'
p1587
(L134852880L
L134852986L
tp1588
sS'_bfd_elf_make_section_from_phdr'
p1589
(L134716736L
L134717592L
tp1590
sS'bfd_elf_get_bfd_needed_list'
p1591
(L134824272L
L134824649L
tp1592
sS'elf_i386_link_hash_table_free'
p1593
(L134674032L
L134674097L
tp1594
sS'_bfd_elf_copy_private_section_data'
p1595
(L134735232L
L134735381L
tp1596
sS'_bfd_elf_slurp_version_tables'
p1597
(L134743216L
L134745465L
tp1598
sS'bfd_section_hash_newfunc'
p1599
(L134599696L
L134599870L
tp1600
sS'bfd_malloc'
p1601
(L134590512L
L134590573L
tp1602
sS'bfd_elf_reloc_symbol_deleted_p'
p1603
(L134770176L
L134770459L
tp1604
sS'd_bare_function_type'
p1605
(L135041968L
L135042052L
tp1606
sS'_bfd_elf_link_hash_copy_indirect'
p1607
(L134823376L
L134823673L
tp1608
sS'print_descr'
p1609
(L134531200L
L134531237L
tp1610
sS'_bfd_generic_mkarchive'
p1611
(L134547344L
L134547387L
tp1612
sS'yypush_buffer_state'
p1613
(L134529680L
L134529810L
tp1614
sS'bfd_stat'
p1615
(L134568736L
L134568808L
tp1616
sS'_bfd_elf_fix_symbol_flags'
p1617
(L134792848L
L134793613L
tp1618
sS'srec_write_object_contents'
p1619
(L134627712L
L134627723L
tp1620
sS'bfd_core_file_failing_command'
p1621
(L134978704L
L134978754L
tp1622
sS'_bfd_coff_write_global_sym'
p1623
(L134957840L
L134959140L
tp1624
sS'elfcore_write_ppc_vmx'
p1625
(L134765840L
L134765907L
tp1626
sS'coff_new_section_hook'
p1627
(L134923808L
L134924038L
tp1628
sS'd_print_cast'
p1629
(L135036896L
L135037531L
tp1630
sS'string_prepend'
p1631
(L134993424L
L134993472L
tp1632
sS'verilog_mkobject'
p1633
(L134661440L
L134661543L
tp1634
sS'_bfd_elf_get_dynamic_symtab_upper_bound'
p1635
(L134742400L
L134742499L
tp1636
sS'bfd_elf32_slurp_reloc_table'
p1637
(L134699840L
L134700401L
tp1638
sS'bfd_hash_lookup'
p1639
(L134608496L
L134608830L
tp1640
sS'_bfd_archive_bsd44_construct_extended_name_table'
p1641
(L134554080L
L134554294L
tp1642
sS'bfd_get_unique_section_name'
p1643
(L134600448L
L134600706L
tp1644
sS'ar_addlib_doer'
p1645
(L134535904L
L134535953L
tp1646
sS'java_demangle_v3'
p1647
(L135050528L
L135050553L
tp1648
sS'elf_i386_mkobject'
p1649
(L134674448L
L134674483L
tp1650
sS'bfd_default_compatible'
p1651
(L134562016L
L134562059L
tp1652
sS'_bfd_elf_discard_section_eh_frame'
p1653
(L134861408L
L134863182L
tp1654
sS'bfd_section_from_phdr'
p1655
(L134763440L
L134763946L
tp1656
sS'remember_Ktype'
p1657
(L134992544L
L134992680L
tp1658
sS'coff_i386_reloc_type_lookup'
p1659
(L134910192L
L134910370L
tp1660
sS'ar_list'
p1661
(L134538720L
L134538956L
tp1662
sS'aout_32_make_sections'
p1663
(L134885440L
L134885588L
tp1664
sS'_bfd_delete_bfd'
p1665
(L134594384L
L134594463L
tp1666
sS'bfd_set_default_target'
p1667
(L134606864L
L134606940L
tp1668
sS'bfd_fdopenr'
p1669
(L134596528L
L134596699L
tp1670
sS'bfd_get_arch_size'
p1671
(L134565008L
L134565068L
tp1672
sS'_bfd_elf_adjust_dynamic_symbol'
p1673
(L134793616L
L134793922L
tp1674
sS'yypop_buffer_state'
p1675
(L134529824L
L134529921L
tp1676
sS'bfd_create_gnu_debuglink_section'
p1677
(L134598992L
L134599148L
tp1678
sS'_bfd_generic_read_ar_hdr_mag'
p1679
(L134547840L
L134548934L
tp1680
sS'print_arelt_descr'
p1681
(L134543712L
L134544025L
tp1682
sS'_bfd_pe_get_symbol_info'
p1683
(L134952112L
L134952117L
tp1684
sS'bfd_get_target_info'
p1685
(L134607104L
L134607433L
tp1686
sS'aout_link_write_other_symbol'
p1687
(L134879120L
L134879924L
tp1688
sS'ar_emul_usage'
p1689
(L134540224L
L134540242L
tp1690
sS'_bfd_elf_link_renumber_dynsyms'
p1691
(L134771584L
L134771865L
tp1692
sS'_bfd_ar_sizepad'
p1693
(L134547136L
L134547333L
tp1694
sS'bfd_false'
p1695
(L134590144L
L134590165L
tp1696
sS'_bfd_elf_make_empty_symbol'
p1697
(L134748400L
L134748435L
tp1698
sS'elf_i386_add_symbol_hook'
p1699
(L134674544L
L134674624L
tp1700
sS'bfd_init_section_decompress_status'
p1701
(L134660656L
L134660935L
tp1702
sS'_bfd_archive_close_and_cleanup'
p1703
(L134560720L
L134560975L
tp1704
sS'yyget_text'
p1705
(L134530336L
L134530342L
tp1706
sS'ihex_sizeof_headers'
p1707
(L134636016L
L134636019L
tp1708
sS'i386_aout_linux_object_p'
p1709
(L134872864L
L134873068L
tp1710
sS'elfcore_write_aarch_hw_watch'
p1711
(L134766880L
L134766947L
tp1712
sS'set_symbol_from_hash'
p1713
(L134610384L
L134610650L
tp1714
sS'_bfd_link_section_stabs'
p1715
(L134984336L
L134986539L
tp1716
sS'get_alt_debug_link_info_shim'
p1717
(L134598848L
L134598919L
tp1718
sS'_bfd_elf_gc_mark_extra_sections'
p1719
(L134843456L
L134843846L
tp1720
sS'demangle_nested_args'
p1721
(L135008992L
L135009116L
tp1722
sS'_bfd_elf32_bfd_from_remote_memory'
p1723
(L134703712L
L134705086L
tp1724
sS'bfd_elf_stack_segment_size'
p1725
(L134813056L
L134813517L
tp1726
sS'demangle_signature'
p1727
(L135010416L
L135012687L
tp1728
sS'opncls_bwrite'
p1729
(L134594144L
L134594155L
tp1730
sS'_bfd_coff_debug_merge_hash_newfunc'
p1731
(L134955104L
L134955190L
tp1732
sS'srec_sizeof_headers'
p1733
(L134624016L
L134624019L
tp1734
sS'bfd_true'
p1735
(L134590176L
L134590182L
tp1736
sS'cplus_demangle_print'
p1737
(L135050112L
L135050363L
tp1738
sS'elf_vxworks_add_symbol_hook'
p1739
(L134693648L
L134693722L
tp1740
sS'bfd_print_symbol_vandf'
p1741
(L134602624L
L134602988L
tp1742
sS'_bfd_generic_link_output_symbols'
p1743
(L134618352L
L134619538L
tp1744
sS'_bfd_compute_and_write_armap'
p1745
(L134555392L
L134556379L
tp1746
sS'elf_sort_symbol'
p1747
(L134769728L
L134769809L
tp1748
sS'bfd_elf32_swap_reloca_out'
p1749
(L134695360L
L134695440L
tp1750
sS'aout_32_write_syms'
p1751
(L134890640L
L134891836L
tp1752
sS'bfd_coff_get_comdat_section'
p1753
(L134587424L
L134587458L
tp1754
sS'bfd_hash_allocate'
p1755
(L134609136L
L134609251L
tp1756
sS'_bfd_write_stab_strings'
p1757
(L134987744L
L134987943L
tp1758
sS'elf_link_flush_output_syms'
p1759
(L134777840L
L134777998L
tp1760
sS'elf_i386_always_size_sections'
p1761
(L134672528L
L134672786L
tp1762
sS'_bfd_elf_ifunc_get_synthetic_symtab'
p1763
(L134691120L
L134692041L
tp1764
sS'bfd_plugin_bfd_copy_private_symbol_data'
p1765
(L134975984L
L134976016L
tp1766
sS'elf_find_function'
p1767
(L134706976L
L134707509L
tp1768
sS'bfd_create'
p1769
(L134597344L
L134597420L
tp1770
sS'_bfd_elf_tls_setup'
p1771
(L134798416L
L134798522L
tp1772
sS'in_reloc_p'
p1773
(L134904352L
L134904382L
tp1774
sS'string_prepend_0'
p1775
(L135053600L
L135053708L
tp1776
sS'bfd_get_alt_debug_link_info'
p1777
(L134598544L
L134598833L
tp1778
sS'swap_abort'
p1779
(L134978672L
L134978703L
tp1780
sS'_bfd_elf_sizeof_headers'
p1781
(L134749328L
L134749465L
tp1782
sS'_bfd_generic_verify_endian_match'
p1783
(L134593456L
L134593594L
tp1784
sS'elf_link_adjust_relocs'
p1785
(L134520112L
L134520511L
tp1786
sS'bfd_elf32_write_relocs'
p1787
(L134698672L
L134699188L
tp1788
sS'bfd_cache_init'
p1789
(L134569824L
L134569977L
tp1790
sS'htab_find_with_hash'
p1791
(L135061904L
L135062229L
tp1792
sS'_bfd_norelocs_get_reloc_upper_bound'
p1793
(L134590320L
L134590326L
tp1794
sS'bfd_make_section_old_way'
p1795
(L134600720L
L134600971L
tp1796
sS'bfd_get_debug_link_info'
p1797
(L134594464L
L134594681L
tp1798
sS'htab_size'
p1799
(L135060896L
L135060904L
tp1800
sS'aout_get_external_symbols'
p1801
(L134876256L
L134876667L
tp1802
sS'_bfd_elf_allocate_ifunc_dyn_relocs'
p1803
(L134690432L
L134691118L
tp1804
sS'concat_copy'
p1805
(L135052560L
L135052637L
tp1806
sS'new_fixup'
p1807
(L134874528L
L134874604L
tp1808
sS'_bfd_elf_section_offset'
p1809
(L134768384L
L134768527L
tp1810
sS'coff_set_alignment_hook'
p1811
(L134908240L
L134908897L
tp1812
sS'd_ref_qualifier'
p1813
(L135016912L
L135016991L
tp1814
sS'_bfd_elf_add_dynamic_entry'
p1815
(L134798528L
L134798729L
tp1816
sS'ihex_bad_byte'
p1817
(L134637664L
L134637882L
tp1818
sS'_bfd_elf_link_assign_sym_version'
p1819
(L134793936L
L134794809L
tp1820
sS'add_symbols'
p1821
(L134976160L
L134976223L
tp1822
sS'_bfd_elf_merge_symbol'
p1823
(L134789472L
L134792833L
tp1824
sS'bfd_link_add_undef'
p1825
(L134613520L
L134613604L
tp1826
sS'simple_dummy_undefined_symbol'
p1827
(L134658480L
L134658486L
tp1828
sS'bfd_openr_next_archived_file'
p1829
(L134549872L
L134549939L
tp1830
sS'bfd_generic_is_local_label_name'
p1831
(L134593408L
L134593445L
tp1832
sS'elf32_r_sym'
p1833
(L134705104L
L134705112L
tp1834
sS'cache_btell'
p1835
(L134571344L
L134571410L
tp1836
sS'_bfd_pe_print_private_bfd_data_common'
p1837
(L134942368L
L134951337L
tp1838
sS'_bfd_elf_close_and_cleanup'
p1839
(L134750096L
L134750197L
tp1840
sS'_bfd_handle_already_linked'
p1841
(L134621952L
L134622611L
tp1842
sS'bfd_emul_set_maxpagesize'
p1843
(L134566432L
L134566517L
tp1844
sS'simple_copy'
p1845
(L134539312L
L134539605L
tp1846
sS'eq_pointer'
p1847
(L135060064L
L135060079L
tp1848
sS'close_one'
p1849
(L134569680L
L134569766L
tp1850
sS'bfd_elf_get_obj_attr_int'
p1851
(L134850144L
L134850250L
tp1852
sS'elf_i386_get_synthetic_symtab'
p1853
(L134673376L
L134673465L
tp1854
sS'bfd_putb16'
p1855
(L134591504L
L134591523L
tp1856
sS'mode_string'
p1857
(L134545376L
L134545748L
tp1858
sS'elfcore_grok_nto_regs'
p1859
(L134708832L
L134709152L
tp1860
sS'bfd_putl32'
p1861
(L134592352L
L134592385L
tp1862
sS'bfd_elf32_core_file_matches_executable_p'
p1863
(L134705216L
L134705343L
tp1864
sS'aout_32_new_section_hook'
p1865
(L134888880L
L134889075L
tp1866
sS'_bfd_count_link_order_relocs'
p1867
(L134621632L
L134621670L
tp1868
sS'_bfd_pei_swap_aux_out'
p1869
(L134933728L
L134934435L
tp1870
sS'_bfd_elf_rel_local_sym'
p1871
(L134768304L
L134768376L
tp1872
sS'srec_get_byte'
p1873
(L134625680L
L134625754L
tp1874
sS'bfd_elf32_core_file_p'
p1875
(L134705344L
L134706501L
tp1876
sS'bfd_fopen'
p1877
(L134596144L
L134596476L
tp1878
sS'string_append_0'
p1879
(L134993472L
L134993530L
tp1880
sS'_bfd_link_hash_newfunc'
p1881
(L134611120L
L134611224L
tp1882
sS'memory_bstat'
p1883
(L134567328L
L134567446L
tp1884
sS'bfd_elf32_swap_dyn_out'
p1885
(L134695504L
L134695565L
tp1886
sS'insert_info_hash_table'
p1887
(L134651456L
L134651553L
tp1888
sS'elf_i386_fbsd_post_process_headers'
p1889
(L134662768L
L134662773L
tp1890
sS'internal_cplus_demangle'
p1891
(L135014688L
L135016434L
tp1892
sS'_bfd_elf_maybe_strip_eh_frame_hdr'
p1893
(L134863408L
L134863512L
tp1894
sS'xmalloc_failed'
p1895
(L135067856L
L135067979L
tp1896
sS'_bfd_elf_strtab_refcount'
p1897
(L134853680L
L134853698L
tp1898
sS'init_reloc_cookie'
p1899
(L134770640L
L134770914L
tp1900
sS'aout_32_read_minisymbols'
p1901
(L134895440L
L134895567L
tp1902
sS'string_prependn'
p1903
(L134993328L
L134993415L
tp1904
sS'd_discriminator'
p1905
(L135017552L
L135017587L
tp1906
sS'aout_32_final_link'
p1907
(L134897456L
L134904340L
tp1908
sS'_bfd_elfcore_strndup'
p1909
(L134750560L
L134750657L
tp1910
sS'elf_link_sort_cmp2'
p1911
(L134774832L
L134774895L
tp1912
sS'elf_i386_link_hash_table_create'
p1913
(L134674112L
L134674304L
tp1914
sS'elf_link_sort_cmp1'
p1915
(L134774736L
L134774823L
tp1916
sS'_bfd_clear_contents'
p1917
(L134982544L
L134982939L
tp1918
sS'yy_delete_buffer'
p1919
(L134527136L
L134527229L
tp1920
sS'htab_delete'
p1921
(L135061536L
L135061655L
tp1922
sS'bfd_hide_sym_by_version'
p1923
(L134623968L
L134624015L
tp1924
sS'buy_and_read'
p1925
(L134907712L
L134907825L
tp1926
sS'ar_end'
p1927
(L134538960L
L134539000L
tp1928
sS'comp_unit_find_nearest_line'
p1929
(L134652080L
L134652503L
tp1930
sS'bfd_check_overflow'
p1931
(L134979280L
L134979482L
tp1932
sS'bfd_zalloc'
p1933
(L134598080L
L134598139L
tp1934
sS'bfd_hash_rename'
p1935
(L134608832L
L134609027L
tp1936
sS'htab_create_alloc_ex'
p1937
(L135060928L
L135061101L
tp1938
sS'xstrerror'
p1939
(L135068256L
L135068338L
tp1940
sS'work_stuff_copy_to_from'
p1941
(L134993888L
L134994614L
tp1942
sS'_bfd_elf_write_corefile_contents'
p1943
(L134734608L
L134734613L
tp1944
sS'u16_mbtouc'
p1945
(L134928480L
L134928569L
tp1946
sS'_bfd_elf_strtab_emit'
p1947
(L134854064L
L134854290L
tp1948
sS'coff_print_symbol'
p1949
(L134584112L
L134585537L
tp1950
sS'skip_cfa_op'
p1951
(L134854944L
L134855344L
tp1952
sS'elfcore_write_prfpreg'
p1953
(L134765600L
L134765667L
tp1954
sS'_bfd_elf_strtab_free'
p1955
(L134853120L
L134853160L
tp1956
sS'simple_dummy_reloc_dangerous'
p1957
(L134658512L
L134658518L
tp1958
sS'string_append'
p1959
(L135053184L
L135053242L
tp1960
sS'bfd_section_already_linked_table_lookup'
p1961
(L134621744L
L134621787L
tp1962
sS'dlang_identifier'
p1963
(L135056048L
L135057086L
tp1964
sS'd_encoding'
p1965
(L135046768L
L135048227L
tp1966
sS'bfd_is_undefined_symclass'
p1967
(L134603456L
L134603483L
tp1968
sS'bfd_link_hash_traverse'
p1969
(L134613376L
L134613520L
tp1970
sS'_bfd_coff_link_hash_newfunc'
p1971
(L134954992L
L134955102L
tp1972
sS'ihex_set_section_contents'
p1973
(L134637392L
L134637663L
tp1974
sS'aout_32_link_hash_table_create'
p1975
(L134897216L
L134897308L
tp1976
sS'bfd_arch_bits_per_byte'
p1977
(L134562448L
L134562459L
tp1978
sS'elf_vxworks_create_dynamic_sections'
p1979
(L134693728L
L134693916L
tp1980
sS'linux_link_hash_newfunc'
p1981
(L134871968L
L134872044L
tp1982
sS'generic_link_check_archive_element_no_collect'
p1983
(L134618288L
L134618313L
tp1984
sS'_bfd_elf_archive_symbol_lookup'
p1985
(L134799312L
L134799632L
tp1986
sS'_bfd_generic_get_section_contents_in_window'
p1987
(L134593200L
L134593231L
tp1988
sS'd_operator_name'
p1989
(L135040464L
L135040894L
tp1990
sS'_bfd_generic_link_hash_table_create'
p1991
(L134613696L
L134613788L
tp1992
sS'xstrdup'
p1993
(L135068192L
L135068242L
tp1994
sS'_bfd_stringtab_emit'
p1995
(L134610080L
L134610237L
tp1996
sS'yylex'
p1997
(L134527664L
L134529672L
tp1998
sS'comp_unit_contains_address'
p1999
(L134642544L
L134642582L
tp2000
sS'aout_link_includes_newfunc'
p2001
(L134878128L
L134878218L
tp2002
sS'bfd_elf_set_dt_needed_name'
p2003
(L134824000L
L134824045L
tp2004
sS'elf_i386_allocate_local_dynrelocs'
p2005
(L134687184L
L134687270L
tp2006
sS'_bfd_stringtab_free'
p2007
(L134609712L
L134609751L
tp2008
sS'coff_find_nearest_line_with_names'
p2009
(L134585584L
L134586915L
tp2010
sS'_bfd_elf_write_section_eh_frame'
p2011
(L134864016L
L134867574L
tp2012
sS'bfd_elf_link_add_symbols'
p2013
(L134799632L
L134812892L
tp2014
sS'_bfd_elf_gc_mark'
p2015
(L134842896L
L134843315L
tp2016
sS'getpwd'
p2017
(L135059776L
L135060059L
tp2018
sS'filename_cmp'
p2019
(L135059632L
L135059637L
tp2020
sS'bfd_reloc_name_lookup'
p2021
(L134982960L
L134982975L
tp2022
sS'demangle_args'
p2023
(L135008288L
L135008979L
tp2024
sS'elf_swap_shdr_out'
p2025
(L134698096L
L134698291L
tp2026
sS'bfd_elf_set_dyn_lib_class'
p2027
(L134824112L
L134824157L
tp2028
sS'elf_i386_local_htab_eq'
p2029
(L134662688L
L134662726L
tp2030
sS'_bfd_elf_rela_local_sym'
p2031
(L134768128L
L134768292L
tp2032
sS'generic_link_add_symbols'
p2033
(L134617680L
L134617769L
tp2034
sS'strrevcmp_align'
p2035
(L134988192L
L134988319L
tp2036
sS'aout_link_add_symbols'
p2037
(L134876912L
L134878124L
tp2038
sS'_bfd_elf_copy_obj_attributes'
p2039
(L134850768L
L134851135L
tp2040
sS'bfd_hash_insert'
p2041
(L134607968L
L134608486L
tp2042
sS'bfd_zmalloc2'
p2043
(L134591120L
L134591256L
tp2044
sS'_bfd_elf_strtab_delref'
p2045
(L134853520L
L134853676L
tp2046
sS'symbolsrec_object_p'
p2047
(L134630576L
L134630820L
tp2048
sS'coff_get_lineno'
p2049
(L134578800L
L134578808L
tp2050
sS'bfd_init_section_compress_status'
p2051
(L134660944L
L134661118L
tp2052
sS'coff_write_symbols'
p2053
(L134576688L
L134578357L
tp2054
sS'simple_dummy_warning'
p2055
(L134658464L
L134658470L
tp2056
sS'd_make_name'
p2057
(L135016560L
L135016626L
tp2058
sS'nacl_modify_segment_map'
p2059
(L134692048L
L134692881L
tp2060
sS'fatal'
p2061
(L134541488L
L134541523L
tp2062
sS'_bfd_elf_link_hash_fixup_symbol'
p2063
(L134797792L
L134797835L
tp2064
sS'xmalloc_set_program_name'
p2065
(L135067792L
L135067845L
tp2066
sS'real_fopen'
p2067
(L134568208L
L134568308L
tp2068
sS'strrevcmp_1'
p2069
(L134988080L
L134988186L
tp2070
sS'first_phase'
p2071
(L134633152L
L134634050L
tp2072
sS'write_value'
p2073
(L134855984L
L134856105L
tp2074
sS'coff_mangle_symbols'
p2075
(L134575696L
L134576081L
tp2076
sS'coff_print_aux'
p2077
(L134910112L
L134910190L
tp2078
sS'_bfd_append_relative_path'
p2079
(L134548976L
L134549092L
tp2080
sS'styp_to_sec_flags'
p2081
(L134913968L
L134916080L
tp2082
sS'elf_vxworks_add_dynamic_entries'
p2083
(L134694512L
L134694735L
tp2084
sS'rsrc_write_directory'
p2085
(L134925216L
L134925702L
tp2086
sS'_bfd_coff_final_link'
p2087
(L134969328L
L134974113L
tp2088
sS'bfd_elf32_core_file_pid'
p2089
(L134705184L
L134705204L
tp2090
sS'_bfd_generic_link_split_section'
p2091
(L134621680L
L134621683L
tp2092
sS'elf_link_renumber_local_hash_table_dynsyms'
p2093
(L134774304L
L134774340L
tp2094
sS'_bfd_elf_hash_symbol'
p2095
(L134812896L
L134812952L
tp2096
sS'_bfd_coff_free_symbols'
p2097
(L134581568L
L134581671L
tp2098
sS'add_line_info'
p2099
(L134641680L
L134642454L
tp2100
sS'_bfd_elf_swap_verdef_out'
p2101
(L134711104L
L134711264L
tp2102
sS'aout_32_swap_std_reloc_in'
p2103
(L134893200L
L134893797L
tp2104
sS'elf_i386_hash_symbol'
p2105
(L134662784L
L134662819L
tp2106
sS'get_count'
p2107
(L134992096L
L134992229L
tp2108
sS'dlang_call_convention'
p2109
(L135053248L
L135053404L
tp2110
sS'yyget_leng'
p2111
(L134530320L
L134530326L
tp2112
sS'is_valid_archive_path'
p2113
(L134545088L
L134545220L
tp2114
sS'make_tempdir'
p2115
(L134544096L
L134544120L
tp2116
sS'bfd_elf_lookup_section_flags'
p2117
(L134845792L
L134846182L
tp2118
sS'bfd_core_file_pid'
p2119
(L134978832L
L134978886L
tp2120
sS'd_find_pack'
p2121
(L135018624L
L135018713L
tp2122
sS'_bfd_elf_link_sec_merge_syms'
p2123
(L134778416L
L134778520L
tp2124
sS'bfd_get_section_by_name_if'
p2125
(L134600288L
L134600436L
tp2126
sS'higher_prime_index'
p2127
(L135060208L
L135060343L
tp2128
sS'concat_filename'
p2129
(L134644976L
L134645415L
tp2130
sS'dummy_reloc16_extra_cases'
p2131
(L134905808L
L134905839L
tp2132
sS'bfd_generic_openr_next_archived_file'
p2133
(L134549952L
L134550105L
tp2134
sS'_bfd_coff_internal_syment_name'
p2135
(L134581408L
L134581556L
tp2136
sS'_bfd_new_bfd_contained_in'
p2137
(L134595920L
L134596020L
tp2138
sS'bfd_getl_signed_64'
p2139
(L134592160L
L134592302L
tp2140
sS'_bfd_elf_gc_mark_fdes'
p2141
(L134861248L
L134861397L
tp2142
sS'd_abi_tags'
p2143
(L135017808L
L135017881L
tp2144
sS'coff_bfd_make_debug_symbol'
p2145
(L134583472L
L134583580L
tp2146
sS'_bfd_coff_get_external_symbols'
p2147
(L134578816L
L134578983L
tp2148
sS'_bfd_dwarf1_find_nearest_line'
p2149
(L134869888L
L134870453L
tp2150
sS'bfd_set_section_size'
p2151
(L134601728L
L134601786L
tp2152
sS'bfd_get_next_section_by_name'
p2153
(L134600112L
L134600185L
tp2154
sS'dos_lbasename'
p2155
(L135063984L
L135064057L
tp2156
sS'elf_i386_get_plt_sym_val'
p2157
(L134673472L
L134673926L
tp2158
sS'coff_swap_reloc_in'
p2159
(L134904384L
L134904451L
tp2160
sS'sec_merge_add'
p2161
(L134988928L
L134989020L
tp2162
sS'demangle_template'
p2163
(L134998512L
L135000113L
tp2164
sS'coff_get_symtab_upper_bound'
p2165
(L134573952L
L134574007L
tp2166
sS'bfd_elf_size_dynamic_sections'
p2167
(L134813520L
L134819191L
tp2168
sS'tekhex_canonicalize_symtab'
p2169
(L134632064L
L134632119L
tp2170
sS'writesym'
p2171
(L134632944L
L134633063L
tp2172
sS'_bfd_elf_parse_attributes'
p2173
(L134851136L
L134851833L
tp2174
sS'_bfd_nocore_core_file_pid'
p2175
(L134590448L
L134590469L
tp2176
sS'htab_empty'
p2177
(L135061664L
L135061899L
tp2178
sS'compute_bucket_count'
p2179
(L134770992L
L134771583L
tp2180
sS'_bfd_coff_read_internal_relocs'
p2181
(L134574128L
L134574656L
tp2182
sS'resolve_symbol'
p2183
(L134782048L
L134782379L
tp2184
sS'_bfd_elf_single_rel_hdr'
p2185
(L134717600L
L134717672L
tp2186
sS'elfcore_write_prstatus'
p2187
(L134765360L
L134765588L
tp2188
sS'_bfd_pei_swap_lineno_out'
p2189
(L134934512L
L134934576L
tp2190
sS'd_print_comp_inner'
p2191
(L135019072L
L135032561L
tp2192
sS'_bfd_coff_link_add_symbols'
p2193
(L134959504L
L134959584L
tp2194
sS'bfd_link_hash_lookup'
p2195
(L134611456L
L134611531L
tp2196
sS'bfd_elf32_core_file_failing_signal'
p2197
(L134705152L
L134705171L
tp2198
sS'_bfd_elf_symbol_refs_local_p'
p2199
(L134798224L
L134798403L
tp2200
sS'simple_dummy_einfo'
p2201
(L134658560L
L134658562L
tp2202
sS'_bfd_elf_strtab_offset'
p2203
(L134853904L
L134854064L
tp2204
sS'bfd_printable_name'
p2205
(L134562064L
L134562075L
tp2206
sS'aout_32_link_hash_newfunc'
p2207
(L134876800L
L134876898L
tp2208
sS'dupargv'
p2209
(L135050688L
L135050858L
tp2210
sS'_bfd_elf_make_dynamic_reloc_section'
p2211
(L134848416L
L134848578L
tp2212
sS'elf_link_output_sym'
p2213
(L134778000L
L134778412L
tp2214
sS'opncls_bmmap'
p2215
(L134594224L
L134594230L
tp2216
sS'bfd_sections_find_if'
p2217
(L134601632L
L134601716L
tp2218
sS'_bfd_coff_is_local_label_name'
p2219
(L134585552L
L134585578L
tp2220
sS'bfd_arch_i386_fill'
p2221
(L134977600L
L134977793L
tp2222
sS'ranlib_only'
p2223
(L134535808L
L134535899L
tp2224
sS'vma_compare'
p2225
(L134855744L
L134855799L
tp2226
sS'elfcore_write_s390_prefix'
p2227
(L134766320L
L134766387L
tp2228
sS'xrealloc'
p2229
(L135068112L
L135068178L
tp2230
sS'linux_tally_symbols'
p2231
(L134874608L
L134875338L
tp2232
sS'null_error_handler'
p2233
(L134572144L
L134572146L
tp2234
sS'_bfd_generic_link_just_syms'
p2235
(L134613824L
L134613858L
tp2236
sS'opncls_bstat'
p2237
(L134594240L
L134594374L
tp2238
sS'coff_link_output_has_begun'
p2239
(L134904960L
L134904975L
tp2240
sS'_bfd_nocore_core_file_failing_signal'
p2241
(L134590416L
L134590437L
tp2242
sS'eval_symbol'
p2243
(L134782384L
L134787347L
tp2244
sS'binary_get_symbol_info'
p2245
(L134630880L
L134630901L
tp2246
sS'cplus_demangle_init_info'
p2247
(L135050368L
L135050459L
tp2248
sS'bfd_hash_table_init'
p2249
(L134607888L
L134607932L
tp2250
sS'reconcat'
p2251
(L135052896L
L135053061L
tp2252
sS'elf_vxworks_gott_symbol_p'
p2253
(L134693568L
L134693648L
tp2254
sS'coff_section_from_bfd_index'
p2255
(L134573872L
L134573950L
tp2256
sS'coff_get_symbol_info'
p2257
(L134583584L
L134583653L
tp2258
sS'bfd_0'
p2259
(L134590224L
L134590227L
tp2260
sS'_bfd_elf_link_lookup_local_dynindx'
p2261
(L134795968L
L134796030L
tp2262
sS'bfd_generic_merge_sections'
p2263
(L134983328L
L134983334L
tp2264
sS'bfd_malloc2'
p2265
(L134590576L
L134590687L
tp2266
sS'_bfd_generic_set_section_contents'
p2267
(L134593232L
L134593348L
tp2268
sS'elfcore_write_prpsinfo'
p2269
(L134764272L
L134764555L
tp2270
sS'_bfd_pe_only_swap_filehdr_out'
p2271
(L134938032L
L134938216L
tp2272
sS'elf_swap_ehdr_out'
p2273
(L134697536L
L134697872L
tp2274
sS'__divdi3'
p2275
(L135068352L
L135068722L
tp2276
sS'out'
p2277
(L134632592L
L134632939L
tp2278
sS'_bfd_generic_link_add_one_symbol'
p2279
(L134614688L
L134617170L
tp2280
sS'bfd_putb32'
p2281
(L134592304L
L134592339L
tp2282
sS'nacl_final_write_processing'
p2283
(L134693216L
L134693555L
tp2284
sS'_bfd_elf_swap_vernaux_out'
p2285
(L134711744L
L134711864L
tp2286
sS'ar_emul_default_append'
p2287
(L134540656L
L134540743L
tp2288
sS'bfd_putl16'
p2289
(L134591536L
L134591553L
tp2290
sS'binary_set_section_contents'
p2291
(L134631456L
L134631720L
tp2292
sS'memory_bmmap'
p2293
(L134567312L
L134567318L
tp2294
sS'_bfd_elf_write_section_eh_frame_hdr'
p2295
(L134867584L
L134868586L
tp2296
sS'bfd_bwrite'
p2297
(L134568480L
L134568592L
tp2298
sS'bfd_get_sign_extend_vma'
p2299
(L134565072L
L134565330L
tp2300
sS'bfd_plugin_object_p'
p2301
(L134976880L
L134977239L
tp2302
sS'coff_write_object_contents'
p2303
(L134916288L
L134920585L
tp2304
sS'bfd_plugin_canonicalize_symtab'
p2305
(L134977248L
L134977553L
tp2306
sS'bfd_0l'
p2307
(L134590256L
L134590259L
tp2308
sS'make_temp_file'
p2309
(L135066496L
L135066732L
tp2310
sS'elfcore_write_s390_todcmp'
p2311
(L134766080L
L134766147L
tp2312
sS'd_template_args'
p2313
(L135045408L
L135045682L
tp2314
sS'elf_sym_name_compare'
p2315
(L134770464L
L134770491L
tp2316
sS'ihex_write_record'
p2317
(L134636176L
L134636549L
tp2318
sS'_bfd_coff_read_string_table'
p2319
(L134578992L
L134579386L
tp2320
sS'coff_canonicalize_reloc'
p2321
(L134913104L
L134913960L
tp2322
sS'elf_final_link_free'
p2323
(L134787360L
L134787605L
tp2324
sS'elf_vxworks_link_output_symbol_hook'
p2325
(L134693920L
L134693990L
tp2326
sS'elf_link_check_versioned_symbol'
p2327
(L134776528L
L134777400L
tp2328
sS'init_reloc_cookie_for_section'
p2329
(L134796848L
L134797069L
tp2330
sS'coff_object_p'
p2331
(L134580944L
L134581408L
tp2332
sS'make_relative_prefix_ignore_links'
p2333
(L135065968L
L135065993L
tp2334
sS'bfd_emul_set_commonpagesize'
p2335
(L134566592L
L134566677L
tp2336
sS'bfd_getb_signed_16'
p2337
(L134591440L
L134591465L
tp2338
sS'_bfd_dummy_target'
p2339
(L134590480L
L134590501L
tp2340
sS'cache_bseek'
p2341
(L134571248L
L134571337L
tp2342
sS'gnu_special'
p2343
(L135013104L
L135014679L
tp2344
sS'tekhex_sizeof_headers'
p2345
(L134632288L
L134632291L
tp2346
sS'arange_add'
p2347
(L134642848L
L134643037L
tp2348
sS'bfd_set_reloc'
p2349
(L134563328L
L134563347L
tp2350
sS'coff_swap_filehdr_in'
p2351
(L134904560L
L134904746L
tp2352
sS'bfd_plugin_get_symbol_info'
p2353
(L134976080L
L134976101L
tp2354
sS'real_fseek'
p2355
(L134568192L
L134568197L
tp2356
sS'concat_copy2'
p2357
(L135052640L
L135052726L
tp2358
sS'srec_canonicalize_symtab'
p2359
(L134624048L
L134624225L
tp2360
sS'yy_flush_buffer'
p2361
(L134527232L
L134527309L
tp2362
sS'_bfd_free_cached_info'
p2363
(L134596032L
L134596136L
tp2364
sS'trad_unix_core_file_p'
p2365
(L134978032L
L134978662L
tp2366
sS'elf_vxworks_emit_relocs'
p2367
(L134694000L
L134694396L
tp2368
sS'set_cplus_marker_for_demangling'
p2369
(L134994768L
L134994778L
tp2370
sS'ihex_object_p'
p2371
(L134637888L
L134640286L
tp2372
sS'_bfd_elf_match_sections_by_type'
p2373
(L134824656L
L134824746L
tp2374
sS'emit_stringtab'
p2375
(L134876672L
L134876797L
tp2376
sS'_bfd_default_error_handler'
p2377
(L134563984L
L134565006L
tp2378
sS'_bfd_pe_bfd_copy_private_bfd_data_common'
p2379
(L134951344L
L134951899L
tp2380
sS'_bfd_elf_gc_mark_rsec'
p2381
(L134842640L
L134842885L
tp2382
sS'_bfd_coff_link_hash_table_init'
p2383
(L134959248L
L134959398L
tp2384
sS'elf_i386_grok_psinfo'
p2385
(L134662880L
L134663242L
tp2386
sS'obj_attr_size'
p2387
(L134848976L
L134849072L
tp2388
sS'_bfd_elf_link_size_reloc_section'
p2389
(L134777408L
L134777519L
tp2390
sS'cache_bflush'
p2391
(L134571152L
L134571240L
tp2392
sS'core_file_matches_executable_p'
p2393
(L134978896L
L134978966L
tp2394
sS'd_substitution'
p2395
(L135017888L
L135018395L
tp2396
sS'elf_renumber_gnu_hash_syms'
p2397
(L134774464L
L134774732L
tp2398
sS'objalloc_create'
p2399
(L135066736L
L135066832L
tp2400
sS'sort_by_secaddr'
p2401
(L134904848L
L134904882L
tp2402
sS'htab_find_slot'
p2403
(L135062752L
L135062800L
tp2404
sS'list_supported_architectures'
p2405
(L134542032L
L134542245L
tp2406
sS'elfcore_write_s390_tdb'
p2407
(L134766560L
L134766627L
tp2408
sS'bfd_default_reloc_type_lookup'
p2409
(L134982976L
L134983128L
tp2410
sS'aout_32_reloc_name_lookup'
p2411
(L134884896L
L134885003L
tp2412
sS'_bfd_elf_link_omit_section_dynsym'
p2413
(L134796032L
L134796226L
tp2414
sS'd_append_string'
p2415
(L135018720L
L135018863L
tp2416
sS'_bfd_elf_merge_unknown_attribute_low'
p2417
(L134852256L
L134852468L
tp2418
sS'd_name'
p2419
(L135045696L
L135046757L
tp2420
sS'htab_create'
p2421
(L135061376L
L135061443L
tp2422
sS'coff_sizeof_headers'
p2423
(L134587104L
L134587160L
tp2424
sS'_bfd_generic_get_section_contents'
p2425
(L134592848L
L134593195L
tp2426
sS'bfd_fill_in_gnu_debuglink_section'
p2427
(L134599152L
L134599559L
tp2428
sS'elf_swap_ehdr_in'
p2429
(L134697248L
L134697523L
tp2430
sS'bfd_plugin_bfd_copy_private_bfd_data'
p2431
(L134976048L
L134976080L
tp2432
sS'_bfd_elf_link_find_version_dependencies'
p2433
(L134776176L
L134776525L
tp2434
sS'bfd_canonicalize_reloc'
p2435
(L134563792L
L134563855L
tp2436
sS'find_debug_info'
p2437
(L134642704L
L134642838L
tp2438
sS'move_section_contents'
p2439
(L134634064L
L134634321L
tp2440
sS'yyget_lineno'
p2441
(L134530272L
L134530278L
tp2442
sS'elfcore_write_s390_last_break'
p2443
(L134766400L
L134766467L
tp2444
sS'yy_scan_string'
p2445
(L134530224L
L134530257L
tp2446
sS'find_chunk'
p2447
(L134632304L
L134632442L
tp2448
sS'_bfd_elf_gc_mark_reloc'
p2449
(L134843328L
L134843448L
tp2450
sS'bfd_emul_get_commonpagesize'
p2451
(L134566528L
L134566578L
tp2452
sS'ar_directory'
p2453
(L134536288L
L134536509L
tp2454
sS'hash_pointer'
p2455
(L135060080L
L135060205L
tp2456
sS'copy_name'
p2457
(L134572160L
L134572256L
tp2458
sS'htab_expand'
p2459
(L135060352L
L135060883L
tp2460
sS'_bfd_elf_parse_eh_frame'
p2461
(L134856112L
L134861234L
tp2462
sS'coff_set_section_contents'
p2463
(L134907424L
L134907706L
tp2464
sS'bfd_elf32_swap_phdr_in'
p2465
(L134700416L
L134700615L
tp2466
sS'sec_merge_hash_lookup'
p2467
(L134988448L
L134988924L
tp2468
sS'string_need'
p2469
(L134993168L
L134993268L
tp2470
sS'_bfd_elf_set_section_contents'
p2471
(L134749472L
L134749617L
tp2472
sS'aout_32_machine_type'
p2473
(L134886512L
L134887189L
tp2474
sS'frame_dummy'
p2475
(L134525024L
L134525069L
tp2476
sS'yy_scan_bytes'
p2477
(L134530096L
L134530209L
tp2478
sS'd_count_templates_scopes'
p2479
(L135016992L
L135017088L
tp2480
sS'_bfd_stringtab_init'
p2481
(L134609552L
L134609668L
tp2482
sS'snarf_numeric_literal'
p2483
(L134993648L
L134993811L
tp2484
sS'bfd_write_bigendian_4byte_int'
p2485
(L134591264L
L134591374L
tp2486
sS'getsym'
p2487
(L134631952L
L134632058L
tp2488
sS'hex_init'
p2489
(L135063920L
L135063922L
tp2490
sS'tekhex_object_p'
p2491
(L134635792L
L134636010L
tp2492
sS'aout_32_slurp_reloc_table'
p2493
(L134893808L
L134894320L
tp2494
sS'bfd_set_gp_size'
p2495
(L134565456L
L134565534L
tp2496
sS'bfd_follow_gnu_debugaltlink'
p2497
(L134598960L
L134598986L
tp2498
sS'_bfd_elf_attr_strdup'
p2499
(L134850256L
L134850314L
tp2500
sS'_bfd_fix_excluded_sec_syms'
p2501
(L134623280L
L134623318L
tp2502
sS'bfd_emul_get_maxpagesize'
p2503
(L134566368L
L134566418L
tp2504
sS'tekhex_set_section_contents'
p2505
(L134634336L
L134634409L
tp2506
sS'forget_types'
p2507
(L134992896L
L134992980L
tp2508
sS'linux_finish_dynamic_link'
p2509
(L134870848L
L134871810L
tp2510
sS'dlang_value'
p2511
(L135054960L
L135056040L
tp2512
sS'_bfd_default_assert_handler'
p2513
(L134562864L
L134562871L
tp2514
sS'bfd_get_section_by_name'
p2515
(L134600048L
L134600108L
tp2516
sS'elf_i386_is_local_label_name'
p2517
(L134674400L
L134674444L
tp2518
sS'_bfd_elf_swap_versym_out'
p2519
(L134711904L
L134711935L
tp2520
sS'_bfd_elfcore_make_pseudosection'
p2521
(L134750224L
L134750553L
tp2522
sS'bfd_plugin_bfd_copy_private_section_data'
p2523
(L134976016L
L134976048L
tp2524
sS'_bfd_link_hash_table_init'
p2525
(L134611328L
L134611449L
tp2526
sS'bfd_i386linux_size_dynamic_sections'
p2527
(L134876032L
L134876255L
tp2528
sS'_bfd_elf_swap_verneed_in'
p2529
(L134711392L
L134711490L
tp2530
sS'comp_unit_maybe_decode_line_info'
p2531
(L134650928L
L134651043L
tp2532
sS'_bfd_elf_is_function_type'
p2533
(L134769520L
L134769537L
tp2534
sS'aout_32_canonicalize_symtab'
p2535
(L134891840L
L134891940L
tp2536
sS'bfd_elf_perform_complex_relocation'
p2537
(L134824752L
L134825559L
tp2538
sS'_bfd_elf_fixup_group_sections'
p2539
(L134735392L
L134735596L
tp2540
sS'tekhex_write_object_contents'
p2541
(L134634736L
L134635461L
tp2542
sS'writeargv'
p2543
(L135051504L
L135051666L
tp2544
sS'stash_maybe_update_info_hash_tables'
p2545
(L134651568L
L134652078L
tp2546
sS'simple_dummy_unattached_reloc'
p2547
(L134658528L
L134658534L
tp2548
sS'__do_global_dtors_aux'
p2549
(L134524992L
L134525022L
tp2550
sS'check_for_relocs'
p2551
(L134975600L
L134975706L
tp2552
sS'_bfd_elf_merge_object_attributes'
p2553
(L134851840L
L134852242L
tp2554
sS'trad_unix_core_file_failing_command'
p2555
(L134977984L
L134978013L
tp2556
sS'read_section'
p2557
(L134641008L
L134641466L
tp2558
sS'_bfd_archive_coff_construct_extended_name_table'
p2559
(L134554032L
L134554071L
tp2560
sS'bfd_cache_delete'
p2561
(L134569568L
L134569678L
tp2562
sS'elf_append_rela'
p2563
(L134848672L
L134848792L
tp2564
sS'_bfd_pei_final_link_postscript'
p2565
(L134952128L
L134954981L
tp2566
sS'ar_clear'
p2567
(L134537536L
L134537557L
tp2568
sS'simple_restore_output_info'
p2569
(L134658640L
L134658674L
tp2570
sS'MY_close_and_cleanup'
p2571
(L134872048L
L134872093L
tp2572
sS'delete_non_B_K_work_stuff'
p2573
(L134992992L
L134993158L
tp2574
sS'bfd_bsd_truncate_arname'
p2575
(L134554928L
L134555048L
tp2576
sS'_bfd_set_gp_value'
p2577
(L134565616L
L134565731L
tp2578
sS'pe_mkobject_hook'
p2579
(L134908016L
L134908233L
tp2580
sS'string_appends'
p2581
(L134993824L
L134993884L
tp2582
sS'binary_mkobject'
p2583
(L134630832L
L134630838L
tp2584
sS'string_appendn'
p2585
(L134993280L
L134993328L
tp2586
sS'cplus_demangle_fill_dtor'
p2587
(L135038256L
L135038316L
tp2588
sS'_bfd_dwarf2_slurp_debug_info'
p2589
(L134653088L
L134654715L
tp2590
sS'cplus_demangle_v3'
p2591
(L135050464L
L135050488L
tp2592
sS'bfd_cache_close_all'
p2593
(L134570032L
L134570110L
tp2594
sS'usage'
p2595
(L134531728L
L134533409L
tp2596
sS'bfd_new_link_order'
p2597
(L134620304L
L134620380L
tp2598
sS'elf32_generic_link_add_symbols'
p2599
(L134975520L
L134975591L
tp2600
sS'elf_add_dt_needed_tag'
p2601
(L134798736L
L134799151L
tp2602
sS'_bfd_elf_relocs_compatible'
p2603
(L134799168L
L134799231L
tp2604
sS'elfcore_write_register_note'
p2605
(L134766960L
L134767948L
tp2606
sS'elf_slurp_reloc_table_from_section'
p2607
(L134699200L
L134699839L
tp2608
sS'_bfd_elf_section_already_linked'
p2609
(L134847312L
L134848229L
tp2610
sS'demangle_function_name'
p2611
(L135009120L
L135010410L
tp2612
sS'yyrealloc'
p2613
(L134530608L
L134530613L
tp2614
sS'generic_link_check_archive_element'
p2615
(L134617808L
L134618287L
tp2616
sS'_bfd_generic_link_add_symbols_collect'
p2617
(L134617792L
L134617807L
tp2618
sS'bfd_elf_obj_attr_size'
p2619
(L134849616L
L134849667L
tp2620
sS'bfd_get_assert_handler'
p2621
(L134563312L
L134563318L
tp2622
sS'htab_clear_slot'
p2623
(L135062928L
L135063002L
tp2624
sS'_bfd_elf_merge_unknown_attribute_list'
p2625
(L134852480L
L134852759L
tp2626
sS'_bfd_elf_swap_verdef_in'
p2627
(L134710960L
L134711090L
tp2628
sS'_bfd_elf_eh_frame_address_size'
p2629
(L134868592L
L134868620L
tp2630
sS'set_times'
p2631
(L134539616L
L134539730L
tp2632
sS'elfcore_write_aarch_tls'
p2633
(L134766720L
L134766787L
tp2634
sS'bfd_coff_get_syment'
p2635
(L134583664L
L134583808L
tp2636
sS'_bfd_generic_read_ar_hdr'
p2637
(L134548944L
L134548971L
tp2638
sS'aout_32_slurp_symbol_table'
p2639
(L134890400L
L134890631L
tp2640
sS'coff_i386_reloc'
p2641
(L134905360L
L134905775L
tp2642
sS'ar_save'
p2643
(L134537904L
L134538093L
tp2644
sS'dlang_parse_integer'
p2645
(L135053760L
L135054422L
tp2646
sS'_bfd_elf_copy_link_hash_symbol_type'
p2647
(L134848592L
L134848660L
tp2648
sS'bfd_elf_gnu_hash'
p2649
(L134712000L
L134712046L
tp2650
sS'htab_remove_elt'
p2651
(L135062880L
L135062920L
tp2652
sS'elfcore_write_xstatereg'
p2653
(L134765760L
L134765827L
tp2654
sS'_bfd_elf_strtab_size'
p2655
(L134853888L
L134853904L
tp2656
sS'bfd_section_init'
p2657
(L134599568L
L134599688L
tp2658
sS'_bfd_elf_strtab_init'
p2659
(L134852992L
L134853116L
tp2660
sS'bfd_void'
p2661
(L134590304L
L134590306L
tp2662
sS'any_ok'
p2663
(L134540208L
L134540214L
tp2664
sS'elf_swap_shdr_in'
p2665
(L134697872L
L134698088L
tp2666
sS'_bfd_elf_no_info_to_howto'
p2667
(L134749632L
L134749663L
tp2668
sS'elf_sort_sections'
p2669
(L134706672L
L134706844L
tp2670
sS'htab_elements'
p2671
(L135060912L
L135060923L
tp2672
sS'verilog_set_arch_mach'
p2673
(L134661392L
L134661429L
tp2674
sS'ranlib_usage'
p2675
(L134531312L
L134531727L
tp2676
sS'i386linux_bfd_final_link'
p2677
(L134871824L
L134871872L
tp2678
sS'd_print_expr_op'
p2679
(L135037536L
L135037721L
tp2680
sS'MY_final_link_callback'
p2681
(L134870528L
L134870834L
tp2682
sS'_bfd_elf_link_hash_table_init'
p2683
(L134823776L
L134823886L
tp2684
sS'bfd_elf_allocate_object'
p2685
(L134712048L
L134712226L
tp2686
sS'_bfd_pei_swap_aux_in'
p2687
(L134933040L
L134933728L
tp2688
sS'free_split_directories'
p2689
(L135064208L
L135064264L
tp2690
sS'_bfd_pei_swap_lineno_in'
p2691
(L134934448L
L134934499L
tp2692
sS'cie_eq'
p2693
(L134855472L
L134855735L
tp2694
sS'_bfd_stringtab_size'
p2695
(L134610064L
L134610072L
tp2696
sS'_bfd_elf_check_kept_section'
p2697
(L134825648L
L134825810L
tp2698
sS'coff_compute_section_file_positions'
p2699
(L134905904L
L134907423L
tp2700
sS'_bfd_elf_compute_section_file_positions'
p2701
(L134721200L
L134733867L
tp2702
sS'dlang_function_args'
p2703
(L135058720L
L135059031L
tp2704
sS'_bfd_elf_get_symbol_info'
p2705
(L134748448L
L134748469L
tp2706
sS'bfd_get_archive_filename'
p2707
(L134544496L
L134544744L
tp2708
sS'__x86.get_pc_thunk.bx'
p2709
(L134524864L
L134524868L
tp2710
sS'bfd_getl_signed_32'
p2711
(L134591712L
L134591749L
tp2712
sS'dlang_parse_symbol'
p2713
(L135057088L
L135057559L
tp2714
sS'd_parmlist'
p2715
(L135040896L
L135041096L
tp2716
sS'__moddi3'
p2717
(L135068736L
L135069186L
tp2718
sS'rsrc_compute_region_sizes'
p2719
(L134924528L
L134924697L
tp2720
sS'__libc_csu_init'
p2721
(L135069552L
L135069649L
tp2722
sS'_bfd_coff_generic_relocate_section'
p2723
(L134974128L
L134975478L
tp2724
sS'yyalloc_0'
p2725
(L134530592L
L134530597L
tp2726
sS'bfd_mmap'
p2727
(L134569360L
L134569429L
tp2728
sS'_bfd_discard_section_stabs'
p2729
(L134986544L
L134987266L
tp2730
sS'ar_emul_parse_arg'
p2731
(L134540896L
L134540915L
tp2732
sS'bfd_nullvoidptr'
p2733
(L134590192L
L134590213L
tp2734
sS'_bfd_elf_link_create_dynamic_sections'
p2735
(L134788192L
L134788844L
tp2736
sS'bfd_arch_mach_octets_per_byte'
p2737
(L134562800L
L134562857L
tp2738
sS'elf_gc_propagate_vtable_entries_used'
p2739
(L134769856L
L134770050L
tp2740
sS'bfd_getb_signed_32'
p2741
(L134591664L
L134591699L
tp2742
sS'bfd_get_mach'
p2743
(L134562432L
L134562443L
tp2744
sS'htab_set_functions_ex'
p2745
(L135061328L
L135061374L
tp2746
sS'bfd_cache_lookup_worker'
p2747
(L134570416L
L134570725L
tp2748
sS'bfd_coff_get_auxent'
p2749
(L134583808L
L134584097L
tp2750
sS'bfd_cache_section_contents'
p2751
(L134660384L
L134660426L
tp2752
s.