(dp0
S'S_GET_NAME'
p1
(L134647088L
L134647127L
tp2
sS'size_fixed_inc_line_addr'
p3
(L134543744L
L134543856L
tp4
sS'bfd_elf_get_elf_syms'
p5
(L134910736L
L134911593L
tp6
sS'bfd_core_file_failing_signal'
p7
(L135194000L
L135194054L
tp8
sS'_bfd_elf_swap_versym_in'
p9
(L134909728L
L134909759L
tp10
sS'cfi_add_CFA_def_cfa_register'
p11
(L134558240L
L134558266L
tp12
sS'bfd_make_section_old_way'
p13
(L134798576L
L134798827L
tp14
sS'symbol_set_obj'
p15
(L134658112L
L134658173L
tp16
sS'file_info'
p17
(L134584288L
L134584419L
tp18
sS'i386_operator'
p19
(L134737872L
L134738429L
tp20
sS'coff_write_alien_symbol'
p21
(L134768832L
L134769424L
tp22
sS'bfd_close'
p23
(L134789664L
L134789900L
tp24
sS'fix_syms'
p25
(L134821008L
L134821132L
tp26
sS's_align_ptwo'
p27
(L134612816L
L134612827L
tp28
sS's_print'
p29
(L134629536L
L134629572L
tp30
sS'bfd_get_full_section_contents'
p31
(L134857488L
L134858228L
tp32
sS'lrealpath'
p33
(L135274288L
L135274383L
tp34
sS'cplus_demangle_opname'
p35
(L135216736L
L135217744L
tp36
sS'_bfd_elf_link_output_relocs'
p37
(L134995232L
L134995637L
tp38
sS'_bfd_archive_bsd_update_armap_timestamp'
p39
(L135190224L
L135190574L
tp40
sS'tekhex_set_arch_mach'
p41
(L134830352L
L134830407L
tp42
sS'dwarf2_gen_line_info'
p43
(L134544864L
L134545141L
tp44
sS'_bfd_generic_copy_link_hash_symbol_type'
p45
(L134811728L
L134811730L
tp46
sS'frag_var'
p47
(L134575904L
L134575989L
tp48
sS'_bfd_elf_default_relocs_compatible'
p49
(L134997008L
L134997023L
tp50
sS'hash_lookup'
p51
(L134576832L
L134577093L
tp52
sS'd_print_mod_list'
p53
(L135244640L
L135245572L
tp54
sS'demand_copy_C_string'
p55
(L134629456L
L134629536L
tp56
sS'_bfd_generic_get_elt_at_index'
p57
(L135180608L
L135180660L
tp58
sS'as_bad_value_out_of_range'
p59
(L134604096L
L134604149L
tp60
sS'elf_generate_asm_lineno'
p61
(L134739216L
L134739218L
tp62
sS'symbol_create'
p63
(L134647296L
L134647726L
tp64
sS'resolve_local_symbol'
p65
(L134651744L
L134651770L
tp66
sS's_linkonce'
p67
(L134613712L
L134614156L
tp68
sS'bfd_zmalloc'
p69
(L134783776L
L134783846L
tp70
sS'frag_variant'
p71
(L134576000L
L134576067L
tp72
sS'as_abort'
p73
(L134603184L
L134603406L
tp74
sS'aout_32_print_symbol'
p75
(L135093040L
L135093290L
tp76
sS'bfd_sym_from_r_symndx'
p77
(L134913600L
L134913942L
tp78
sS'clean_up_expression'
p79
(L134562160L
L134562216L
tp80
sS'decode_line_info'
p81
(L134843280L
L134846246L
tp82
sS'out_inc_line_addr'
p83
(L134544592L
L134544638L
tp84
sS'_bfd_elf_find_inliner_info'
p85
(L134947120L
L134947179L
tp86
sS'cfi_add_CFA_offset'
p87
(L134557968L
L134558124L
tp88
sS'real_ftell'
p89
(L135192672L
L135192677L
tp90
sS'demangle_expression'
p91
(L135208224L
L135208610L
tp92
sS'equals'
p93
(L134630880L
L134631094L
tp94
sS'_bfd_elf_reloc_type_class'
p95
(L134965968L
L134965971L
tp96
sS'elf_generic_info_to_howto_rel'
p97
(L135173360L
L135173372L
tp98
sS'd_print_array_type'
p99
(L135245584L
L135246223L
tp100
sS'compare_sequences'
p101
(L134840320L
L134840391L
tp102
sS'freeargv'
p103
(L135260976L
L135261038L
tp104
sS'coff_i386_reloc_name_lookup'
p105
(L135107136L
L135107223L
tp106
sS'_bfd_elf_gc_mark_extra_sections'
p107
(L135041312L
L135041702L
tp108
sS'bfd_elf32_swap_symbol_out'
p109
(L134893424L
L134893607L
tp110
sS'_bfd_ar_spacepad'
p111
(L135177760L
L135177923L
tp112
sS'binary_get_symtab_upper_bound'
p113
(L134828704L
L134828710L
tp114
sS'bfd_put_bits'
p115
(L134785296L
L134785417L
tp116
sS'bfd_elf_set_obj_attr_contents'
p117
(L135047536L
L135047997L
tp118
sS'cmpindexentry'
p119
(L134800320L
L134800348L
tp120
sS'rsrc_sort_entries'
p121
(L135126432L
L135130072L
tp122
sS'coff_i386_is_local_label_name'
p123
(L135107232L
L135107254L
tp124
sS'bfd_elf_record_link_assignment'
p125
(L134992800L
L134993375L
tp126
sS'elf_new_obj_attr'
p127
(L135047104L
L135047219L
tp128
sS'elf_parse_notes'
p129
(L134948528L
L134953552L
tp130
sS'alloc_fde_entry'
p131
(L134552192L
L134552301L
tp132
sS'clear_frag_count'
p133
(L134574640L
L134574651L
tp134
sS'swap_2_operands'
p135
(L134676032L
L134676314L
tp136
sS'get_dynamic_reloc_section_name'
p137
(L134973488L
L134973612L
tp138
sS'simple_dummy_reloc_overflow'
p139
(L134856352L
L134856358L
tp140
sS'pseudo_set'
p141
(L134617824L
L134618998L
tp142
sS'cache_bclose'
p143
(L134762512L
L134762555L
tp144
sS'elf_i386_gc_mark_hook'
p145
(L134862096L
L134862174L
tp146
sS'_bfd_final_link_relocate'
p147
(L134795536L
L134795726L
tp148
sS'aout_32_swap_exec_header_out'
p149
(L135083120L
L135083295L
tp150
sS'bfd_get_error_handler'
p151
(L134758176L
L134758182L
tp152
sS'cfi_end_fde'
p153
(L134557120L
L134557164L
tp154
sS'bfd_putb64'
p155
(L134785136L
L134785213L
tp156
sS'bfd_plugin_object_p'
p157
(L135174736L
L135175095L
tp158
sS's_align'
p159
(L134611952L
L134612796L
tp160
sS'd_template_param'
p161
(L135227568L
L135227654L
tp162
sS'bfd_set_default_target'
p163
(L134804720L
L134804796L
tp164
sS'concat_length'
p165
(L135262608L
L135262660L
tp166
sS'bfd_openstreamr'
p167
(L134789440L
L134789548L
tp168
sS'bfd_elf_link_record_local_dynamic_symbol'
p169
(L134993376L
L134993812L
tp170
sS'do_org'
p171
(L134606256L
L134606574L
tp172
sS'elf_i386_finish_local_dynamic_symbol'
p173
(L134865488L
L134865532L
tp174
sS'bfd_elf32_swap_reloc_in'
p175
(L134893008L
L134893066L
tp176
sS'parse_die'
p177
(L135066544L
L135067047L
tp178
sS'elfcore_write_s390_timer'
p179
(L134963856L
L134963923L
tp180
sS'warn_deprecated'
p181
(L134786336L
L134786535L
tp182
sS'bfd_compress_section_contents'
p183
(L134857248L
L134857482L
tp184
sS'compress_finish'
p185
(L134536384L
L134536492L
tp186
sS'cplus_demangle_fill_name'
p187
(L135248176L
L135248234L
tp188
sS'elf_pop_insert'
p189
(L134739392L
L134739411L
tp190
sS'bfd_elf_discard_info'
p191
(L135044528L
L135045162L
tp192
sS'string_append_template_idx'
p193
(L135203648L
L135203749L
tp194
sS'obj_elf_section'
p195
(L134749712L
L134751929L
tp196
sS'bfd_generic_gc_sections'
p197
(L134796432L
L134796438L
tp198
sS'pe_ILF_save_relocs'
p199
(L135108240L
L135108364L
tp200
sS'S_SET_EXTERNAL'
p201
(L134652080L
L134652302L
tp202
sS'bfd_symbol_info'
p203
(L134801344L
L134801426L
tp204
sS'd_make_comp'
p205
(L135226560L
L135226667L
tp206
sS'ieee_md_atof'
p207
(L134755472L
L134755858L
tp208
sS'_bfd_pei_write_codeview_record'
p209
(L135138688L
L135138929L
tp210
sS'elfcore_maybe_make_sect'
p211
(L134906576L
L134906676L
tp212
sS'bfd_coff_set_long_section_names_allowed'
p213
(L135102608L
L135102634L
tp214
sS'start_bundle'
p215
(L134608000L
L134608092L
tp216
sS'bfd_generic_relax_section'
p217
(L134796352L
L134796424L
tp218
sS'elf_i386_fake_sections'
p219
(L134860688L
L134860729L
tp220
sS'dwarf2_consume_line_info'
p221
(L134545552L
L134545580L
tp222
sS'get_run_time'
p223
(L135270176L
L135270229L
tp224
sS'symbol_written_p'
p225
(L134657456L
L134657497L
tp226
sS'bfd_hash_set_default_size'
p227
(L134807360L
L134807398L
tp228
sS'bfd_install_relocation'
p229
(L134793760L
L134794682L
tp230
sS'_bfd_default_link_order'
p231
(L134818240L
L134818780L
tp232
sS'reloc'
p233
(L134681360L
L134682260L
tp234
sS'_bfd_elf_setup_sections'
p235
(L134911728L
L134912300L
tp236
sS'new_logical_line'
p237
(L134581760L
L134581795L
tp238
sS'bfd_elf_final_link'
p239
(L135029600L
L135040251L
tp240
sS'elf_i386_reloc_type_class'
p241
(L134860592L
L134860619L
tp242
sS'elf_i386_readonly_dynrelocs'
p243
(L134861712L
L134861882L
tp244
sS'buffer_line'
p245
(L134584432L
L134584872L
tp246
sS'_bfd_coff_reloc_link_order'
p247
(L135166448L
L135167179L
tp248
sS'do_align'
p249
(L134605424L
L134605797L
tp250
sS'_bfd_elf_find_nearest_line'
p251
(L134946512L
L134946983L
tp252
sS'find_target'
p253
(L134804544L
L134804711L
tp254
sS'frag_align_code'
p255
(L134576368L
L134576438L
tp256
sS'_bfd_pe_only_swap_filehdr_out'
p257
(L135135888L
L135136072L
tp258
sS'buffer_and_nest'
p259
(L134596256L
L134597306L
tp260
sS'ihex_get_section_contents'
p261
(L134838144L
L134838861L
tp262
sS'elfcore_write_s390_todpreg'
p263
(L134964016L
L134964083L
tp264
sS'obj_elf_type'
p265
(L134745792L
L134747121L
tp266
sS'_bfd_pei_swap_debugdir_out'
p267
(L135138496L
L135138676L
tp268
sS'hash_jam'
p269
(L134577648L
L134577878L
tp270
sS'i386_elf_section_type'
p271
(L134738880L
L134738959L
tp272
sS'cplus_mangle_opname'
p273
(L135204896L
L135205034L
tp274
sS'bfd_follow_gnu_debuglink'
p275
(L134791664L
L134791690L
tp276
sS'operand_type_register_match'
p277
(L134692320L
L134692604L
tp278
sS'obj_elf_visibility'
p279
(L134745536L
L134745695L
tp280
sS'_bfd_nocore_core_file_failing_command'
p281
(L134783120L
L134783141L
tp282
sS'aout_32_translate_symbol_table'
p283
(L135087408L
L135088249L
tp284
sS'coff_link_check_archive_element'
p285
(L135155584L
L135155693L
tp286
sS'obj_elf_local'
p287
(L134747136L
L134747255L
tp288
sS'bfd_section_already_linked_table_free'
p289
(L134819776L
L134819795L
tp290
sS'already_linked_newfunc'
p291
(L134808096L
L134808134L
tp292
sS'dwarf2_directive_file'
p293
(L134545728L
L134545971L
tp294
sS'htab_remove_elt_with_hash'
p295
(L135272976L
L135273053L
tp296
sS'copy_symbol_attributes'
p297
(L134648048L
L134648157L
tp298
sS'bfd_plugin_make_empty_symbol'
p299
(L135173968L
L135174003L
tp300
sS'S_IS_EXTERNAL'
p301
(L134645952L
L134646045L
tp302
sS'strtab_hash_newfunc'
p303
(L134807120L
L134807182L
tp304
sS'tc_gen_reloc'
p305
(L134736528L
L134737858L
tp306
sS'input_scrub_next_buffer'
p307
(L134580848L
L134581469L
tp308
sS'srec_get_symtab_upper_bound'
p309
(L134821888L
L134821903L
tp310
sS'bfd_set_error_program_name'
p311
(L134758160L
L134758170L
tp312
sS's_rept'
p313
(L134610416L
L134610456L
tp314
sS'bfd_generic_discard_group'
p315
(L134800304L
L134800310L
tp316
sS'sb_add_string'
p317
(L134635280L
L134635344L
tp318
sS'_bfd_elf_eh_frame_section_offset'
p319
(L135061376L
L135061868L
tp320
sS'_bfd_elf_link_hash_hide_symbol'
p321
(L135021536L
L135021618L
tp322
sS'bfd_perror'
p323
(L134758000L
L134758143L
tp324
sS'simple_save_output_info'
p325
(L134856432L
L134856483L
tp326
sS'bfd_generic_lookup_section_flags'
p327
(L134796448L
L134796511L
tp328
sS'bfd_plugin_core_file_failing_signal'
p329
(L135173744L
L135173773L
tp330
sS'java_demangle_v3_callback'
p331
(L135260672L
L135260698L
tp332
sS'stringer'
p333
(L134627840L
L134628437L
tp334
sS'bfd_elf_get_dt_soname'
p335
(L135022080L
L135022121L
tp336
sS'pe_mkobject'
p337
(L135105696L
L135105859L
tp338
sS'input_file_pop'
p339
(L134578704L
L134578763L
tp340
sS'S_IS_VOLATILE'
p341
(L134646992L
L134647034L
tp342
sS'listing_error'
p343
(L134584928L
L134584975L
tp344
sS'as_show_where'
p345
(L134601264L
L134601393L
tp346
sS'tc_x86_frame_initial_instructions'
p347
(L134738640L
L134738819L
tp348
sS'del_formal'
p349
(L134590736L
L134590788L
tp350
sS'obj_elf_subsection'
p351
(L134739744L
L134739797L
tp352
sS'adjust_stab_sections'
p353
(L134742768L
L134743078L
tp354
sS'split_directories'
p355
(L135274448L
L135274821L
tp356
sS'bfd_hash_table_init_n'
p357
(L134805520L
L134805735L
tp358
sS'elf_s_get_align'
p359
(L134739616L
L134739638L
tp360
sS'define_sym_at_dot'
p361
(L134648384L
L134648437L
tp362
sS'_bfd_elf_canonicalize_symtab'
p363
(L134940512L
L134940569L
tp364
sS'coff_sort_func_alent'
p365
(L135102752L
L135102804L
tp366
sS'check_VecOperations'
p367
(L134680048L
L134680779L
tp368
sS'htab_hash_string'
p369
(L135273408L
L135273446L
tp370
sS'coff_slurp_symbol_table'
p371
(L135110928L
L135110957L
tp372
sS's_func'
p373
(L134617328L
L134617810L
tp374
sS'_bfd_elf_init_2_index_sections'
p375
(L135017136L
L135017321L
tp376
sS'print_dependencies'
p377
(L134542272L
L134542488L
tp378
sS'md_pcrel_from'
p379
(L134736368L
L134736385L
tp380
sS'elfcore_write_s390_system_call'
p381
(L134964336L
L134964403L
tp382
sS'add_prefix'
p383
(L134678176L
L134678612L
tp384
sS'ecoff_generate_asm_lineno'
p385
(L134560032L
L134560034L
tp386
sS'ignore_rest_of_line'
p387
(L134611056L
L134611180L
tp388
sS'_bfd_elf_link_read_relocs'
p389
(L134994096L
L134994692L
tp390
sS'cfi_finish'
p391
(L134559488L
L134560029L
tp392
sS'read_a_source_file'
p393
(L134631296L
L134633935L
tp394
sS'bfd_cache_close'
p395
(L134762720L
L134762756L
tp396
sS'getvalue'
p397
(L134829680L
L134829807L
tp398
sS'next_bits'
p399
(L134753184L
L134753319L
tp400
sS'elf_vxworks_link_output_symbol_hook'
p401
(L134891776L
L134891846L
tp402
sS'expr'
p403
(L134566512L
L134571061L
tp404
sS'listing_source_file'
p405
(L134590608L
L134590651L
tp406
sS'remember_type'
p407
(L135204736L
L135204869L
tp408
sS'i386_validate_fix'
p409
(L134736400L
L134736518L
tp410
sS'elf_frob_symbol'
p411
(L134743088L
L134743799L
tp412
sS'_bfd_dwarf2_cleanup_debug_info'
p413
(L134850448L
L134850943L
tp414
sS'frag_grow'
p415
(L134575552L
L134575719L
tp416
sS'elf_sec_sym_ok_for_reloc'
p417
(L134739152L
L134739171L
tp418
sS'_bfd_elf_find_segment_containing_section'
p419
(L134915680L
L134915771L
tp420
sS'bsd_write_armap'
p421
(L135188976L
L135190224L
tp422
sS'srec_mkobject'
p423
(L134823296L
L134823423L
tp424
sS'bfd_set_error_handler'
p425
(L134758144L
L134758160L
tp426
sS'cplus_demangle_type'
p427
(L135248432L
L135250572L
tp428
sS'add_data_entry'
p429
(L135122560L
L135122640L
tp430
sS'bfd_section_from_elf_index'
p431
(L134913952L
L134913987L
tp432
sS'd_function_type'
p433
(L135252176L
L135252258L
tp434
sS'stabs_generate_asm_endfunc'
p435
(L134638752L
L134639020L
tp436
sS'_bfd_elf_size_group_sections'
p437
(L135010816L
L135010898L
tp438
sS'read_begin'
p439
(L134609376L
L134609645L
tp440
sS'_bfd_elf_get_reloc_upper_bound'
p441
(L134940368L
L134940383L
tp442
sS'bfd_set_format'
p443
(L134782688L
L134782811L
tp444
sS'bfd_make_readable'
p445
(L134790304L
L134790567L
tp446
sS's_text'
p447
(L134614496L
L134614534L
tp448
sS'get_line_subseg'
p449
(L134542496L
L134542700L
tp450
sS'srec_print_symbol'
p451
(L134823424L
L134823529L
tp452
sS'bfd_errmsg'
p453
(L134757792L
L134757985L
tp454
sS'bfd_elf_get_needed_list'
p455
(L135022016L
L135022036L
tp456
sS'fix_new'
p457
(L134667344L
L134667417L
tp458
sS'dwarf2_where'
p459
(L134545152L
L134545288L
tp460
sS'separate_alt_debug_file_exists'
p461
(L134787424L
L134787502L
tp462
sS'elf_create_symbuf'
p463
(L134520783L
L134521165L
tp464
sS'bfd_elf_sym_name'
p465
(L134911600L
L134911727L
tp466
sS'_bfd_relocate_contents'
p467
(L134794688L
L134795535L
tp468
sS'subsegs_print_statistics'
p469
(L134640448L
L134640630L
tp470
sS'atof_ieee'
p471
(L134755040L
L134755459L
tp472
sS'emit_expr_with_reloc'
p473
(L134619568L
L134621338L
tp474
sS'elf32_i386_nacl_elf_object_p'
p475
(L134872352L
L134872392L
tp476
sS'frag_var_init'
p477
(L134575728L
L134575847L
tp478
sS'bfd_getl_signed_16'
p479
(L134784208L
L134784233L
tp480
sS'elf_gc_allocate_got_offsets'
p481
(L134967920L
L134968030L
tp482
sS'elf_merge_st_other'
p483
(L134972208L
L134972307L
tp484
sS'memory_btell'
p485
(L135191776L
L135191787L
tp486
sS'aout_32_adjust_sizes_and_vmas'
p487
(L135085200L
L135086721L
tp488
sS'bfd_log2'
p489
(L134786096L
L134786131L
tp490
sS'string_appendn_0'
p491
(L135263824L
L135263872L
tp492
sS'cplus_demangle'
p493
(L135206544L
L135206817L
tp494
sS'_bfd_elf_get_symtab_upper_bound'
p495
(L134940192L
L134940246L
tp496
sS'md_apply_fix'
p497
(L134730304L
L134731021L
tp498
sS'bfd_elf_gc_common_final_link'
p499
(L135044464L
L135044522L
tp500
sS'bfd_arch_bits_per_address'
p501
(L134757360L
L134757371L
tp502
sS'_bfd_elf_find_line'
p503
(L134946992L
L134947107L
tp504
sS's_irp'
p505
(L134607104L
L134607346L
tp506
sS'as_internal_value_out_of_range'
p507
(L134603408L
L134603957L
tp508
sS's_mri_sect'
p509
(L134611584L
L134611607L
tp510
sS's_lsym'
p511
(L134626576L
L134626895L
tp512
sS'bfd_getb32'
p513
(L134784304L
L134784339L
tp514
sS'bfd_make_writable'
p515
(L134790160L
L134790300L
tp516
sS'is_gnu_v3_mangled_dtor'
p517
(L135260752L
L135260787L
tp518
sS'input_scrub_begin'
p519
(L134580096L
L134580190L
tp520
sS'bfd_openr_iovec'
p521
(L134790880L
L134791051L
tp522
sS'bfd_elf32_swap_dyn_in'
p523
(L134893296L
L134893347L
tp524
sS'bfd_rename_section'
p525
(L134799344L
L134799381L
tp526
sS'identify'
p527
(L134601104L
L134601262L
tp528
sS'bfd_elf_set_group_contents'
p529
(L134906032L
L134906570L
tp530
sS'bfd_octets_per_byte'
p531
(L134757616L
L134757681L
tp532
sS'dlang_parse_real'
p533
(L135264544L
L135265064L
tp534
sS'S_IS_FUNCTION'
p535
(L134645904L
L134645949L
tp536
sS'coff_classify_symbol'
p537
(L135108368L
L135108619L
tp538
sS'sb_scrub_and_add_sb'
p539
(L134635104L
L134635203L
tp540
sS'consume_count'
p541
(L135202048L
L135202128L
tp542
sS'coff_get_normalized_symtab'
p543
(L134774416L
L134776074L
tp544
sS'coff_swap_filehdr_in'
p545
(L135102416L
L135102602L
tp546
sS'_bfd_elf_obj_attrs_arg_type'
p547
(L135048176L
L135048287L
tp548
sS'set_cpu_arch'
p549
(L134696784L
L134697695L
tp550
sS'_bfd_elf_get_lineno'
p551
(L134946416L
L134946447L
tp552
sS'd_demangle'
p553
(L135260112L
L135260222L
tp554
sS'RC_SAE_immediate'
p555
(L134683488L
L134683825L
tp556
sS'dwarf2dbg_convert_frag'
p557
(L134547264L
L134547928L
tp558
sS'bfd_slurp_armap'
p559
(L135181360L
L135182540L
tp560
sS'elfcore_write_ppc_vsx'
p561
(L134963776L
L134963843L
tp562
sS'tekhex_get_symbol_info'
p563
(L134830416L
L134830437L
tp564
sS'S_IS_COMMON'
p565
(L134646240L
L134646288L
tp566
sS'squangle_mop_up'
p567
(L135202352L
L135202535L
tp568
sS'bfd_elf_hash'
p569
(L134909792L
L134909846L
tp570
sS'_bfd_generic_make_empty_symbol'
p571
(L134800848L
L134800883L
tp572
sS'd_print_comp'
p573
(L135242688L
L135242740L
tp574
sS'hash_file_ptr'
p575
(L135176560L
L135176567L
tp576
sS'bfd_realloc_or_free'
p577
(L134783664L
L134783770L
tp578
sS'bfd_elf_make_object'
p579
(L134910096L
L134910139L
tp580
sS'_bfd_pe_bfd_copy_private_section_data'
p581
(L135149760L
L135149966L
tp582
sS'_bfd_elf_notice_as_needed'
p583
(L134997088L
L134997156L
tp584
sS'_bfd_find_arch_match'
p585
(L134804416L
L134804538L
tp586
sS'S_IS_DEBUG'
p587
(L134646480L
L134646525L
tp588
sS'demangle_template_template_parm'
p589
(L135217744L
L135218054L
tp590
sS'renumber_sections'
p591
(L134661744L
L134661761L
tp592
sS'_bfd_look_for_bfd_in_cache'
p593
(L135178352L
L135178420L
tp594
sS'bfd_alt_mach_code'
p595
(L134761136L
L134761250L
tp596
sS'xmalloc'
p597
(L135277424L
L135277467L
tp598
sS'_bfd_elf_get_dynamic_reloc_section'
p599
(L135046176L
L135046260L
tp600
sS's_bad_end'
p601
(L134611824L
L134611913L
tp602
sS'elfcore_write_prxfpreg'
p603
(L134963536L
L134963603L
tp604
sS'bfd_check_format_matches'
p605
(L134780624L
L134782637L
tp606
sS'bfd_gnu_truncate_arname'
p607
(L135186032L
L135186178L
tp608
sS'obj_elf_init_stab_section'
p609
(L134752944L
L134753155L
tp610
sS'dlang_demangle'
p611
(L135269536L
L135269738L
tp612
sS'symbol_clear_used_in_reloc'
p613
(L134657120L
L134657156L
tp614
sS'bfd_decode_symclass'
p615
(L134800896L
L134801301L
tp616
sS'tekhex_get_section_contents'
p617
(L134832272L
L134832345L
tp618
sS'srec_set_arch_mach'
p619
(L134822640L
L134822677L
tp620
sS'i386linux_bfd_final_link'
p621
(L135069680L
L135069728L
tp622
sS'coff_bad_format_hook'
p623
(L135102640L
L135102690L
tp624
sS'filename_ncmp'
p625
(L135269760L
L135269765L
tp626
sS'_bfd_elf_default_got_elt_size'
p627
(L135046144L
L135046174L
tp628
sS'coff_write_symbol'
p629
(L134764992L
L134766602L
tp630
sS'bfd_nullvoidptr'
p631
(L134782928L
L134782949L
tp632
sS'encoding_size'
p633
(L134554832L
L134554977L
tp634
sS'_bfd_elf_post_process_headers'
p635
(L134967312L
L134967363L
tp636
sS'_bfd_elf_common_definition'
p637
(L135046096L
L135046111L
tp638
sS'cfi_parse_separator'
p639
(L134554720L
L134554817L
tp640
sS'bfd_get_reloc_code_name'
p641
(L134796320L
L134796347L
tp642
sS'srec_set_section_contents'
p643
(L134822096L
L134822640L
tp644
sS'bfd_generic_link_read_symbols_0'
p645
(L134808880L
L134808976L
tp646
sS'_bfd_elf_print_private_bfd_data'
p647
(L134943328L
L134946243L
tp648
sS'input_file_push'
p649
(L134578624L
L134578694L
tp650
sS'elf_common_parse'
p651
(L134741184L
L134741654L
tp652
sS'bfd_plugin_bfd_print_private_bfd_data'
p653
(L135173808L
L135173840L
tp654
sS'coff_read_word'
p655
(L134521165L
L134521251L
tp656
sS'demangle_template_value_parm'
p657
(L135206832L
L135208215L
tp658
sS'_bfd_elf_canonicalize_dynamic_symtab'
p659
(L134940576L
L134940633L
tp660
sS'fix_segment'
p661
(L134667920L
L134669580L
tp662
sS'cons'
p663
(L134622896L
L134622907L
tp664
sS'_bfd_elf_maybe_function_sym'
p665
(L134967408L
L134967472L
tp666
sS'register_claim_file'
p667
(L135173568L
L135173580L
tp668
sS'pe_print_private_bfd_data'
p669
(L135114016L
L135114051L
tp670
sS'bfd_find_version_for_sym'
p671
(L134821376L
L134821816L
tp672
sS'chain_frchains_together'
p673
(L134665584L
L134665817L
tp674
sS'_bfd_pei_swap_sym_in'
p675
(L135130080L
L135130728L
tp676
sS'obj_elf_previous'
p677
(L134747392L
L134747496L
tp678
sS'bfd_elf32_write_shdrs_and_ehdr'
p679
(L134896160L
L134896519L
tp680
sS'memory_bflush'
p681
(L135191792L
L135191795L
tp682
sS'get_cfi_seg'
p683
(L134554992L
L134555062L
tp684
sS'bfd_set_error'
p685
(L134758544L
L134758619L
tp686
sS'_bfd_elf_common_section'
p687
(L135046128L
L135046134L
tp688
sS'i386_intel_simplify_register'
p689
(L134676592L
L134677046L
tp690
sS'bfd_link_repair_undef_list'
p691
(L134811472L
L134811550L
tp692
sS'bfd_hash_newfunc'
p693
(L134807184L
L134807217L
tp694
sS'elfcore_write_linux_prpsinfo32'
p695
(L134962416L
L134962802L
tp696
sS'hash_find'
p697
(L134577984L
L134578060L
tp698
sS'_bfd_elf_rel_vtable_reloc_fn'
p699
(L134948064L
L134948067L
tp700
sS'_bfd_elf_canonicalize_dynamic_reloc'
p701
(L134940784L
L134941072L
tp702
sS'as_bad_internal'
p703
(L134601728L
L134602045L
tp704
sS'elf_i386_finish_dynamic_symbol'
p705
(L134863760L
L134865479L
tp706
sS'd_call_offset'
p707
(L135228512L
L135228620L
tp708
sS'bfd_elf_gc_mark_dynamic_ref_symbol'
p709
(L135041712L
L135041896L
tp710
sS'elf_adjust_dynstr_offsets'
p711
(L134975648L
L134975694L
tp712
sS'verify_symbol_chain'
p713
(L134656080L
L134656276L
tp714
sS'find_debug_info_0'
p715
(L134840448L
L134840549L
tp716
sS'_bfd_elf_make_dynamic_segment'
p717
(L134915776L
L134915834L
tp718
sS'mangle_name'
p719
(L134828768L
L134828912L
tp720
sS'bfd_close_all_done'
p721
(L134789904L
L134790076L
tp722
sS'xexit'
p723
(L135277200L
L135277226L
tp724
sS'elf_i386_check_relocs'
p725
(L134885136L
L134887552L
tp726
sS'_bfd_elf_strtab_finalize'
p727
(L135052160L
L135052584L
tp728
sS'sb_check'
p729
(L134634752L
L134634833L
tp730
sS'parse_real_register'
p731
(L134678672L
L134679410L
tp732
sS'elf_i386_local_htab_hash'
p733
(L134860496L
L134860530L
tp734
sS'get_filenum'
p735
(L134542816L
L134543738L
tp736
sS'S_IS_FORWARD_REF'
p737
(L134647040L
L134647082L
tp738
sS'bfd_get_stab_name'
p739
(L135198160L
L135198186L
tp740
sS'dwarf2dbg_estimate_size_before_relax'
p741
(L134547168L
L134547229L
tp742
sS'create_info_hash_table'
p743
(L134839328L
L134839432L
tp744
sS'rsrc_parse_directory'
p745
(L135126016L
L135126324L
tp746
sS'elf_generic_info_to_howto'
p747
(L135173344L
L135173356L
tp748
sS'_bfd_coff_write_task_globals'
p749
(L135157008L
L135157101L
tp750
sS'_bfd_elf_strtab_addref'
p751
(L135051264L
L135051371L
tp752
sS'fb_label_name'
p753
(L134644864L
L134645349L
tp754
sS'd_source_name'
p755
(L135227712L
L135227908L
tp756
sS'_bfd_elf_swap_vernaux_in'
p757
(L134909488L
L134909586L
tp758
sS'mri_comment_end'
p759
(L134609712L
L134609828L
tp760
sS's_mri_common'
p761
(L134625536L
L134626244L
tp762
sS'bfd_elf32_object_p'
p763
(L134899600L
L134901562L
tp764
sS'stabs_generate_asm_func'
p765
(L134638480L
L134638748L
tp766
sS'bfd_elf_get_runpath_list'
p767
(L135022048L
L135022071L
tp768
sS'_bfd_elf_get_synthetic_symtab'
p769
(L134966416L
L134967297L
tp770
sS'do_parse_cons_expression'
p771
(L134619456L
L134619461L
tp772
sS'bfd_get_next_mapent'
p773
(L135178192L
L135178294L
tp774
sS'elf_i386_finish_dynamic_sections'
p775
(L134862176L
L134863760L
tp776
sS'_bfd_pei_swap_debugdir_in'
p777
(L135137008L
L135137151L
tp778
sS'macro_expand_body'
p779
(L134591456L
L134593486L
tp780
sS'bfd_simple_get_relocated_section_contents'
p781
(L134856544L
L134857241L
tp782
sS's_globl'
p783
(L134626320L
L134626568L
tp784
sS'bfd_get_reloc_upper_bound'
p785
(L134758624L
L134758677L
tp786
sS'bfd_make_section_anyway'
p787
(L134799008L
L134799043L
tp788
sS'_bfd_get_elt_at_filepos'
p789
(L135179904L
L135180606L
tp790
sS'do_repeat_with_expander'
p791
(L134610464L
L134610988L
tp792
sS'_bfd_elf_link_hash_newfunc'
p793
(L134969936L
L134970155L
tp794
sS'elf_obj_symbol_new_hook'
p795
(L134739808L
L134739841L
tp796
sS'bfd_is_section_compressed'
p797
(L134858288L
L134858500L
tp798
sS'input_file_open'
p799
(L134578768L
L134579578L
tp800
sS's_align_bytes'
p801
(L134612800L
L134612814L
tp802
sS'cache_bmmap'
p803
(L134763472L
L134763775L
tp804
sS'i386_arch'
p805
(L134715792L
L134715938L
tp806
sS'bfd_elf_print_symbol'
p807
(L134912576L
L134913468L
tp808
sS'bfd_elf_string_from_elf_section_0'
p809
(L134910256L
L134910722L
tp810
sS'coff_count_linenumbers'
p811
(L134767392L
L134767629L
tp812
sS'_bfd_coff_section_already_linked'
p813
(L134780208L
L134780609L
tp814
sS'd_number_component'
p815
(L135227424L
L135227491L
tp816
sS'elf_i386_create_dynamic_sections'
p817
(L134887552L
L134887859L
tp818
sS'countargv'
p819
(L135262544L
L135262594L
tp820
sS'aout_32_minisymbol_to_symbol'
p821
(L135093424L
L135093681L
tp822
sS'wrap_output'
p823
(L134541920L
L134542131L
tp824
sS'bfd_scan_vma'
p825
(L134760640L
L134760645L
tp826
sS'pe_ILF_make_a_symbol_reloc'
p827
(L135118448L
L135118588L
tp828
sS'srec_get_section_contents'
p829
(L134823616L
L134824659L
tp830
sS'_bfd_elf_set_arch_mach'
p831
(L134946448L
L134946508L
tp832
sS'_bfd_generic_read_minisymbols'
p833
(L134801440L
L134801642L
tp834
sS'elf_i386_copy_indirect_symbol'
p835
(L134861408L
L134861702L
tp836
sS'get_non_macro_line_sb'
p837
(L134607072L
L134607083L
tp838
sS'bfd_arch_list'
p839
(L134757056L
L134757185L
tp840
sS'bfd_elf_mkcorefile'
p841
(L134910144L
L134910223L
tp842
sS'bfd_elf_link_mark_dynamic_symbol'
p843
(L134967472L
L134967578L
tp844
sS'bfd_generic_link_read_symbols'
p845
(L134811648L
L134811677L
tp846
sS'elf_process_stab'
p847
(L134739232L
L134739234L
tp848
sS'd_lookup_template_argument'
p849
(L135228624L
L135228734L
tp850
sS'get_known_segmented_expression'
p851
(L134608112L
L134608374L
tp852
sS'fini_reloc_cookie_for_section'
p853
(L134968352L
L134968424L
tp854
sS'bfd_elf_gc_sections'
p855
(L135042032L
L135043071L
tp856
sS'bfd_lookup_arch'
p857
(L134757392L
L134757461L
tp858
sS'out_header'
p859
(L134544272L
L134544350L
tp860
sS'comp_unit_find_line'
p861
(L134848912L
L134849300L
tp862
sS'frag_init'
p863
(L134574656L
L134574677L
tp864
sS'_bfd_elf_strtab_add'
p865
(L135051024L
L135051257L
tp866
sS'tekhex_get_symtab_upper_bound'
p867
(L134829984L
L134829999L
tp868
sS'symbol_temp_new'
p869
(L134648272L
L134648315L
tp870
sS'_bfd_pei_only_swap_filehdr_out'
p871
(L135134784L
L135135886L
tp872
sS'aout_32_set_section_contents'
p873
(L135086944L
L135087347L
tp874
sS'archive_close_worker'
p875
(L135177728L
L135177757L
tp876
sS'bfd_calc_gnu_debuglink_crc32'
p877
(L134791216L
L134791269L
tp878
sS'separate_debug_file_exists'
p879
(L134787504L
L134787703L
tp880
sS'obj_elf_common'
p881
(L134741664L
L134741728L
tp882
sS'cie_hash'
p883
(L135052704L
L135052712L
tp884
sS'_bfd_elf_create_got_section'
p885
(L134985728L
L134986048L
tp886
sS'bfd_target_list'
p887
(L134805296L
L134805426L
tp888
sS'output_invalid'
p889
(L134683008L
L134683102L
tp890
sS'read_symbol_name'
p891
(L134624224L
L134624658L
tp892
sS'read_signed_leb128'
p893
(L134786608L
L134786677L
tp894
sS'imm_size'
p895
(L134682944L
L134683001L
tp896
sS'demand_copy_string'
p897
(L134628496L
L134628884L
tp898
sS'rsrc_print_name'
p899
(L135122640L
L135122717L
tp900
sS's_errwarn'
p901
(L134629584L
L134629847L
tp902
sS'elf_link_read_relocs_from_section'
p903
(L134972864L
L134973384L
tp904
sS'objalloc_free_block'
p905
(L135276608L
L135276926L
tp906
sS'adjust_reloc_syms'
p907
(L134663920L
L134664385L
tp908
sS'output_cfi_insn'
p909
(L134553456L
L134554712L
tp910
sS'_bfd_generic_section_already_linked'
p911
(L134820480L
L134820673L
tp912
sS'local_symbol_make'
p913
(L134641728L
L134641981L
tp914
sS'get_segment_type'
p915
(L134904368L
L134904526L
tp916
sS'bfd_make_section_with_flags'
p917
(L134799056L
L134799254L
tp918
sS'xcalloc'
p919
(L135277472L
L135277543L
tp920
sS'bfd_true'
p921
(L134782912L
L134782918L
tp922
sS'symbol_mri_common_p'
p923
(L134657312L
L134657352L
tp924
sS'xatexit_cleanup'
p925
(L135277024L
L135277072L
tp926
sS'dot_cfi_lsda'
p927
(L134552448L
L134552735L
tp928
sS'bfd_plugin_core_file_failing_command'
p929
(L135173776L
L135173805L
tp930
sS'elf_link_output_extsym'
p931
(L134976384L
L134979897L
tp932
sS'is_ctor_or_dtor'
p933
(L135258928L
L135259189L
tp934
sS'find_separate_debug_file'
p935
(L134787712L
L134788447L
tp936
sS'bfd_default_set_arch_mach'
p937
(L134757472L
L134757546L
tp938
sS'get_token'
p939
(L134590864L
L134591014L
tp940
sS'pe_bfd_object_p'
p941
(L135118592L
L135121663L
tp942
sS'dwarf2_set_isa'
p943
(L134545296L
L134545306L
tp944
sS'find_end_of_line'
p945
(L134634368L
L134634383L
tp946
sS'ihex_mkobject'
p947
(L134833888L
L134833959L
tp948
sS'rsrc_print_resource_directory'
p949
(L135124592L
L135125364L
tp950
sS'coff_set_arch_mach_hook'
p951
(L135107040L
L135107125L
tp952
sS'define_macro'
p953
(L134597312L
L134598096L
tp954
sS'obj_elf_change_section'
p955
(L134748080L
L134749444L
tp956
sS'bfd_elf_add_obj_attr_int'
p957
(L135048288L
L135048383L
tp958
sS'bfd_arch_i386_short_nop_fill'
p959
(L135175664L
L135175679L
tp960
sS'listing_message'
p961
(L134581920L
L134582053L
tp962
sS'write_obj_attribute'
p963
(L135046928L
L135047089L
tp964
sS'S_SET_FORWARD_REF'
p965
(L134655872L
L134655917L
tp966
sS'generic_core_file_matches_executable_p'
p967
(L135194208L
L135194338L
tp968
sS'bfd_elf_gc_record_vtentry'
p969
(L135043312L
L135043642L
tp970
sS'_bfd_elf_export_symbol'
p971
(L134992672L
L134992792L
tp972
sS'd_unqualified_name'
p973
(L135251216L
L135252078L
tp974
sS'symbol_next'
p975
(L134656000L
L134656071L
tp976
sS'frag_now_fix_octets'
p977
(L134576448L
L134576486L
tp978
sS'coff_canonicalize_symtab'
p979
(L134766752L
L134766858L
tp980
sS'coff_swap_reloc_out'
p981
(L135102320L
L135102404L
tp982
sS'md_undefined_symbol'
p983
(L134736192L
L134736343L
tp984
sS'md_assemble'
p985
(L134717152L
L134728776L
tp986
sS'elf_i386_reloc_type_lookup'
p987
(L134859904L
L134860486L
tp988
sS'frag_now_fix'
p989
(L134576496L
L134576534L
tp990
sS'dot_symbol_init'
p991
(L134658288L
L134658371L
tp992
sS'read_unsigned_leb128'
p993
(L134786544L
L134786595L
tp994
sS'objalloc_free'
p995
(L135276544L
L135276598L
tp996
sS'symbol_equated_reloc_p'
p997
(L134657712L
L134657829L
tp998
sS'nacl_modify_program_headers'
p999
(L134890752L
L134891058L
tp1000
sS's_stab'
p1001
(L134637424L
L134637443L
tp1002
sS'_bfd_elf_strtab_refcount'
p1003
(L135051536L
L135051554L
tp1004
sS'coff_find_nearest_line'
p1005
(L134779664L
L134779767L
tp1006
sS'i386_align_code'
p1007
(L134715328L
L134715786L
tp1008
sS'emit_expr'
p1009
(L134621344L
L134621379L
tp1010
sS'try_load_plugin'
p1011
(L135174176L
L135174724L
tp1012
sS'string_prependn'
p1013
(L135203440L
L135203527L
tp1014
sS'_bfd_pei_swap_sym_out'
p1015
(L135130736L
L135130894L
tp1016
sS's_reloc'
p1017
(L134615328L
L134616155L
tp1018
sS'bump_line_counters'
p1019
(L134581488L
L134581529L
tp1020
sS'frag_append_1_char'
p1021
(L134576544L
L134576684L
tp1022
sS'obj_elf_vendor_attribute'
p1023
(L134752048L
L134752924L
tp1024
sS'bfd_getb16'
p1025
(L134784112L
L134784129L
tp1026
sS'emit_inc_line_addr'
p1027
(L134543856L
L134544248L
tp1028
sS'elf32_r_info'
p1029
(L134902944L
L134902959L
tp1030
sS'bfd_hash_replace'
p1031
(L134806896L
L134806991L
tp1032
sS'aout_32_reloc_name_lookup'
p1033
(L135082752L
L135082859L
tp1034
sS'bfd_plugin_print_symbol'
p1035
(L135173616L
L135173637L
tp1036
sS'bfd_zalloc2'
p1037
(L134791056L
L134791173L
tp1038
sS'demangle_arm_hp_template'
p1039
(L135214720L
L135216615L
tp1040
sS'next_char_of_string'
p1041
(L134623760L
L134624220L
tp1042
sS'set_intel_mnemonic'
p1043
(L134676000L
L134676010L
tp1044
sS'define_dollar_label'
p1045
(L134643648L
L134644005L
tp1046
sS'disp_size'
p1047
(L134682864L
L134682934L
tp1048
sS'bfd_elf32_swap_reloc_out'
p1049
(L134893152L
L134893213L
tp1050
sS'_bfd_elf_validate_reloc'
p1051
(L134947520L
L134947940L
tp1052
sS'symbol_get_value_expression'
p1053
(L134656288L
L134656333L
tp1054
sS'_bfd_add_bfd_to_archive_cache'
p1055
(L135178432L
L135178628L
tp1056
sS'obj_elf_line'
p1057
(L134739936L
L134739968L
tp1058
sS'aout_32_get_symbol_info'
p1059
(L135092880L
L135093031L
tp1060
sS'bfd_default_scan'
p1061
(L134755872L
L134756840L
tp1062
sS'bfd_elf_get_dyn_lib_class'
p1063
(L135021904L
L135021953L
tp1064
sS'frag_alloc_check'
p1065
(L134574480L
L134574611L
tp1066
sS'trad_unix_core_file_failing_signal'
p1067
(L135175872L
L135175878L
tp1068
sS'frag_align_pattern'
p1069
(L134576272L
L134576359L
tp1070
sS'bfd_fprintf_vma'
p1071
(L134761088L
L134761131L
tp1072
sS'bfd_get_target_info'
p1073
(L134804960L
L134805289L
tp1074
sS'sec_merge_hash_newfunc'
p1075
(L135198432L
L135198546L
tp1076
sS'coff_write_armap'
p1077
(L135190576L
L135191516L
tp1078
sS'dwarf2_gen_line_info_1'
p1079
(L134542704L
L134542808L
tp1080
sS'make_invalid_floating_point_number'
p1081
(L134753328L
L134753428L
tp1082
sS'x86_64_section_letter'
p1083
(L134738960L
L134739071L
tp1084
sS'_bfd_n1'
p1085
(L134783008L
L134783032L
tp1086
sS'bfd_elf32_core_file_failing_command'
p1087
(L134902976L
L134902996L
tp1088
sS'd_print_function_type'
p1089
(L135246224L
L135247007L
tp1090
sS'symbol_find_exact_noref'
p1091
(L134653216L
L134653303L
tp1092
sS'_bfd_elf_new_section_hook'
p1093
(L134914384L
L134914591L
tp1094
sS'listing_print'
p1095
(L134585792L
L134589874L
tp1096
sS'aout_link_free_symbols'
p1097
(L135076080L
L135076148L
tp1098
sS'aout_32_reloc_type_lookup'
p1099
(L135082624L
L135082748L
tp1100
sS'bfd_section_list_clear'
p1101
(L134797824L
L134797898L
tp1102
sS'elf_i386_allocate_dynrelocs'
p1103
(L134865536L
L134866888L
tp1104
sS'd_make_name'
p1105
(L135226672L
L135226738L
tp1106
sS'real_fopen'
p1107
(L135192704L
L135192804L
tp1108
sS'coff_symbol_from'
p1109
(L134767632L
L134767672L
tp1110
sS'_bfd_elf_make_section_from_shdr'
p1111
(L134956928L
L134956970L
tp1112
sS'bfd_elf32_swap_phdr_out'
p1113
(L134898480L
L134898674L
tp1114
sS'tekhex_init'
p1115
(L134832480L
L134832586L
tp1116
sS'bfd_get_gp_size'
p1117
(L134760272L
L134760338L
tp1118
sS'bfd_set_start_address'
p1119
(L134760240L
L134760257L
tp1120
sS'x86_cons_fix_new'
p1121
(L134728784L
L134728863L
tp1122
sS'htab_create_alloc'
p1123
(L135271440L
L135271503L
tp1124
sS'_bfd_elf_create_ifunc_sections'
p1125
(L134887872L
L134888277L
tp1126
sS'_bfd_elf_parse_eh_frame'
p1127
(L135053968L
L135059090L
tp1128
sS'start_dependencies'
p1129
(L134542144L
L134542154L
tp1130
sS'opncls_btell'
p1131
(L134786704L
L134786718L
tp1132
sS'elf_collect_hash_codes'
p1133
(L134969728L
L134969933L
tp1134
sS's_endif'
p1135
(L134539936L
L134540158L
tp1136
sS'dlang_attributes'
p1137
(L135263520L
L135263702L
tp1138
sS'aout_32_get_lineno'
p1139
(L135092864L
L135092867L
tp1140
sS'bfd_search_for_target'
p1141
(L134805440L
L134805513L
tp1142
sS'_bfd_elf_default_action_discarded'
p1143
(L135023424L
L135023500L
tp1144
sS'bfd_release'
p1145
(L134791184L
L134791203L
tp1146
sS'lbasename'
p1147
(L135274240L
L135274274L
tp1148
sS'_bfd_coff_link_input_bfd'
p1149
(L135157440L
L135166439L
tp1150
sS'ignore_input'
p1151
(L134541088L
L134541351L
tp1152
sS'bfd_open_file'
p1153
(L134762848L
L134763143L
tp1154
sS'listing_psize'
p1155
(L134590112L
L134590224L
tp1156
sS'ihex_set_arch_mach'
p1157
(L134833968L
L134834023L
tp1158
sS'symbol_clear_used'
p1159
(L134656960L
L134657005L
tp1160
sS'_bfd_elf_get_dynamic_reloc_upper_bound'
p1161
(L134940640L
L134940780L
tp1162
sS'sb_reset'
p1163
(L134635216L
L134635228L
tp1164
sS'_bfd_elf_is_local_label_name'
p1165
(L134946336L
L134946414L
tp1166
sS'macro_mri_mode'
p1167
(L134596240L
L134596250L
tp1168
sS'_bfd_elf_gc_mark_hook'
p1169
(L135040256L
L135040484L
tp1170
sS'coff_swap_scnhdr_in'
p1171
(L135106768L
L135107033L
tp1172
sS'coff_set_arch_mach'
p1173
(L135113936L
L135114016L
tp1174
sS'symbol_X_add_number'
p1175
(L134656544L
L134656588L
tp1176
sS'atof_generic'
p1177
(L134534656L
L134536189L
tp1178
sS'_bfd_generic_link_add_archive_symbols'
p1179
(L134811744L
L134812536L
tp1180
sS'_bfd_elf_swap_verdaux_out'
p1181
(L134909184L
L134909245L
tp1182
sS'opncls_bread'
p1183
(L134786800L
L134786876L
tp1184
sS'bfd_bread'
p1185
(L135192816L
L135192976L
tp1186
sS'aout_32_make_empty_symbol'
p1187
(L135087360L
L135087395L
tp1188
sS'elf_i386_get_local_sym_hash'
p1189
(L134872480L
L134872799L
tp1190
sS'_bfd_elf_stringtab_init'
p1191
(L134913472L
L134913588L
tp1192
sS'bfd_assert'
p1193
(L134758256L
L134758328L
tp1194
sS'compress_debug'
p1195
(L134662624L
L134663609L
tp1196
sS'dwarf2_move_insn'
p1197
(L134545424L
L134545537L
tp1198
sS'_bfd_elf_copy_private_bfd_data'
p1199
(L134912416L
L134912566L
tp1200
sS'elfcore_write_s390_last_break'
p1201
(L134964256L
L134964323L
tp1202
sS'd_compact_number'
p1203
(L135227504L
L135227559L
tp1204
sS'i386_print_statistics'
p1205
(L134716880L
L134716943L
tp1206
sS'iterative_hash'
p1207
(L135273456L
L135274096L
tp1208
sS'elf_s_set_other'
p1209
(L134739552L
L134739578L
tp1210
sS'md_show_usage'
p1211
(L134734192L
L134735300L
tp1212
sS'_bfd_new_bfd'
p1213
(L134788448L
L134788648L
tp1214
sS'main'
p1215
(L134521264L
L134527804L
tp1216
sS'elf_i386_tls_transition'
p1217
(L134872800L
L134874372L
tp1218
sS'in_reloc_p'
p1219
(L135102208L
L135102238L
tp1220
sS'elfcore_write_arm_vfp'
p1221
(L134964496L
L134964563L
tp1222
sS'bfd_elf_add_obj_attr_string'
p1223
(L135048384L
L135048495L
tp1224
sS'get_frag_count'
p1225
(L134574624L
L134574630L
tp1226
sS'_bfd_elf_map_sections_to_segments'
p1227
(L134915840L
L134918818L
tp1228
sS'as_bad_where'
p1229
(L134602592L
L134602726L
tp1230
sS'bfd_generic_define_common_symbol'
p1231
(L134821184L
L134821372L
tp1232
sS'S_SET_SEGMENT'
p1233
(L134647184L
L134647295L
tp1234
sS'bfd_elf_size_dynsym_hash_dynstr'
p1235
(L135017328L
L135021013L
tp1236
sS'rsrc_count_directory'
p1237
(L135121936L
L135122382L
tp1238
sS'pop_insert'
p1239
(L134609232L
L134609375L
tp1240
sS'obj_elf_vtable_entry'
p1241
(L134747872L
L134748073L
tp1242
sS'symbol_find_or_make'
p1243
(L134653536L
L134653686L
tp1244
sS'fix_new_internal'
p1245
(L134661776L
L134662274L
tp1246
sS'integer_constant'
p1247
(L134562368L
L134563765L
tp1248
sS'bfd_elf_is_group_section'
p1249
(L134912304L
L134912326L
tp1250
sS'sym_is_global'
p1251
(L134905840L
L134905915L
tp1252
sS's_elseif'
p1253
(L134539232L
L134539932L
tp1254
sS'_bfd_stab_section_find_nearest_line'
p1255
(L134801664L
L134804416L
tp1256
sS'operand'
p1257
(L134571072L
L134573743L
tp1258
sS's_bundle_align_mode'
p1259
(L134614544L
L134614714L
tp1260
sS'frag_align'
p1261
(L134576128L
L134576264L
tp1262
sS'mri_comment_field'
p1263
(L134609648L
L134609700L
tp1264
sS'subseg_force_new'
p1265
(L134639888L
L134639930L
tp1266
sS'get_mri_string'
p1267
(L134536496L
L134536789L
tp1268
sS'S_CLEAR_EXTERNAL'
p1269
(L134652304L
L134652355L
tp1270
sS'bfd_generic_is_group_section'
p1271
(L134800288L
L134800291L
tp1272
sS'_bfd_add_merge_section'
p1273
(L135199136L
L135199784L
tp1274
sS'symbol_constant_p'
p1275
(L134657840L
L134657890L
tp1276
sS'_bfd_elf_get_sec_type_attr'
p1277
(L134914224L
L134914372L
tp1278
sS'bfd_elf_generic_reloc'
p1279
(L134912336L
L134912409L
tp1280
sS'bfd_hash_traverse'
p1281
(L134807232L
L134807352L
tp1282
sS'local_symbol_convert'
p1283
(L134647856L
L134648044L
tp1284
sS'sub_80672F0'
p1285
(L134640368L
L134640445L
tp1286
sS'input_scrub_end'
p1287
(L134580192L
L134580234L
tp1288
sS'free_section_idx'
p1289
(L134739968L
L134739981L
tp1290
sS'memory_bread'
p1291
(L135192256L
L135192418L
tp1292
sS'frag_alloc'
p1293
(L134574688L
L134575121L
tp1294
sS'elf_frob_file_after_relocs'
p1295
(L134739200L
L134739202L
tp1296
sS'binary_object_p'
p1297
(L134829136L
L134829300L
tp1298
sS'stab_link_includes_newfunc'
p1299
(L135194352L
L135194442L
tp1300
sS'bad_implicit_operand'
p1301
(L134677296L
L134677410L
tp1302
sS's_fill'
p1303
(L134613136L
L134613704L
tp1304
sS'symbol_resolved_p'
p1305
(L134657552L
L134657602L
tp1306
sS'sb_new'
p1307
(L134634976L
L134635017L
tp1308
sS'_bfd_elf_copy_private_header_data'
p1309
(L134933456L
L134939889L
tp1310
sS'_bfd_dwarf2_find_nearest_line'
p1311
(L134852576L
L134856316L
tp1312
sS'qualifier_string'
p1313
(L135202848L
L135202936L
tp1314
sS'cplus_demangle_name_to_style'
p1315
(L135205088L
L135205149L
tp1316
sS'message'
p1317
(L135174080L
L135174169L
tp1318
sS'info_hash_table_newfunc'
p1319
(L134839440L
L134839527L
tp1320
sS'bfd_get_size'
p1321
(L135193792L
L135193848L
tp1322
sS'_bfd_pei_swap_aouthdr_in'
p1323
(L135132432L
L135133280L
tp1324
sS'resolve_section'
p1325
(L134973616L
L134973802L
tp1326
sS'bfd_emul_get_maxpagesize'
p1327
(L134761264L
L134761314L
tp1328
sS'_bfd_elf_strtab_emit'
p1329
(L135051920L
L135052146L
tp1330
sS'hash_find_n'
p1331
(L134578064L
L134578124L
tp1332
sS'htab_find'
p1333
(L135272416L
L135272456L
tp1334
sS'd_expr_primary'
p1335
(L135258640L
L135258928L
tp1336
sS'elfcore_write_s390_ctrs'
p1337
(L134964096L
L134964163L
tp1338
sS'bfd_arch_get_compatible'
p1339
(L134757200L
L134757296L
tp1340
sS'expandargv'
p1341
(L135261792L
L135262541L
tp1342
sS'_bfd_elf_section_from_bfd_section'
p1343
(L134918832L
L134919051L
tp1344
sS's_ifc'
p1345
(L134538704L
L134539228L
tp1346
sS'd_print_subexpr'
p1347
(L135247840L
L135248165L
tp1348
sS'bfd_getb_signed_64'
p1349
(L134784752L
L134784894L
tp1350
sS'bfd_find_target'
p1351
(L134804800L
L134804946L
tp1352
sS'dummy_reloc16_estimate'
p1353
(L135103632L
L135103663L
tp1354
sS'bfd_section_already_linked_table_traverse'
p1355
(L134819552L
L134819587L
tp1356
sS'bfd_get_arch_info'
p1357
(L134757376L
L134757384L
tp1358
sS'ignore_section_sym'
p1359
(L134905920L
L134906027L
tp1360
sS'out_uleb128'
p1361
(L134544352L
L134544407L
tp1362
sS'aout_link_input_section'
p1363
(L135077792L
L135082614L
tp1364
sS'intel_float_operand'
p1365
(L134682656L
L134682850L
tp1366
sS'dwarf2_emit_label'
p1367
(L134545584L
L134545713L
tp1368
sS'bfd_generic_get_relocated_section_contents'
p1369
(L134796528L
L134797409L
tp1370
sS'is_vma_in_section'
p1371
(L135121904L
L135121936L
tp1372
sS'find_abstract_instance_name'
p1373
(L134846256L
L134847036L
tp1374
sS'as_bad'
p1375
(L134602464L
L134602584L
tp1376
sS'bfd_getl64'
p1377
(L134784624L
L134784749L
tp1378
sS'bfd_get_section_contents'
p1379
(L134799920L
L134800257L
tp1380
sS's_comm_internal'
p1381
(L134624672L
L134625492L
tp1382
sS'get_absolute_expr'
p1383
(L134604672L
L134604776L
tp1384
sS'_bfd_stab_section_offset'
p1385
(L135198064L
L135198149L
tp1386
sS'subsegs_finish_section'
p1387
(L134665328L
L134665584L
tp1388
sS's_incbin'
p1389
(L134629856L
L134630820L
tp1390
sS'_bfd_merged_section_offset'
p1391
(L135201472L
L135201982L
tp1392
sS'_bfd_elf_make_section_from_shdr_0'
p1393
(L134953552L
L134956918L
tp1394
sS'bfd_plugin_set_plugin'
p1395
(L135175440L
L135175450L
tp1396
sS'bfd_elf_bfd_from_remote_memory'
p1397
(L134966384L
L134966405L
tp1398
sS'rsrc_write_entry'
p1399
(L135122720L
L135123070L
tp1400
sS'generic_add_output_symbol'
p1401
(L134808512L
L134808636L
tp1402
sS'_bfd_generic_final_link'
p1403
(L134818784L
L134819486L
tp1404
sS'dwarf2_directive_loc_mark_labels'
p1405
(L134547088L
L134547165L
tp1406
sS'write_relocs'
p1407
(L134666720L
L134667341L
tp1408
sS'internal_srec_write_object_contents'
p1409
(L134824672L
L134825562L
tp1410
sS'bfd_plugin_set_program_name'
p1411
(L135175424L
L135175434L
tp1412
sS'make_relative_prefix'
p1413
(L135276112L
L135276137L
tp1414
sS'set_16bit_gcc_code_flag'
p1415
(L134683376L
L134683450L
tp1416
sS'show_arch'
p1417
(L134682272L
L134682638L
tp1418
sS'string_prepend_0'
p1419
(L135263712L
L135263820L
tp1420
sS'bfd_tell'
p1421
(L135193088L
L135193189L
tp1422
sS'input_file_begin'
p1423
(L134578576L
L134578587L
tp1424
sS'symbol_find_exact'
p1425
(L134653312L
L134653339L
tp1426
sS'srec_get_symbol_info'
p1427
(L134822688L
L134822709L
tp1428
sS'unix_lbasename'
p1429
(L135274112L
L135274146L
tp1430
sS'symbol_new'
p1431
(L134647728L
L134647848L
tp1432
sS'_bfd_nocore_core_file_matches_executable_p'
p1433
(L134783088L
L134783109L
tp1434
sS'i386linux_write_object_contents'
p1435
(L135069952L
L135070689L
tp1436
sS'_bfd_elf_section_offset'
p1437
(L134966240L
L134966383L
tp1438
sS's_set'
p1439
(L134626896L
L134627038L
tp1440
sS'_bfd_elf_assign_file_position_for_section'
p1441
(L134915568L
L134915666L
tp1442
sS'getstring'
p1443
(L134593488L
L134593944L
tp1444
sS'generate_asm_file'
p1445
(L134636944L
L134637410L
tp1446
sS'_bfd_dwarf2_find_inliner_info'
p1447
(L134850368L
L134850444L
tp1448
sS'x86_dwarf2_addr_size'
p1449
(L134738832L
L134738871L
tp1450
sS'output_big_leb128'
p1451
(L134608784L
L134609207L
tp1452
sS'coff_set_section_contents'
p1453
(L135105280L
L135105562L
tp1454
sS'read_value'
p1455
(L135053664L
L135053825L
tp1456
sS'frag_wane'
p1457
(L134576080L
L134576106L
tp1458
sS'bfd_slurp_bsd_armap_f2'
p1459
(L135182544L
L135183143L
tp1460
sS'i386_aout_linux_mkobject'
p1461
(L135070704L
L135070709L
tp1462
sS'pe_bfd_copy_private_bfd_data'
p1463
(L135114064L
L135114137L
tp1464
sS'save_symbol_name'
p1465
(L134640640L
L134640868L
tp1466
sS'out_uleb128_1'
p1467
(L134553392L
L134553447L
tp1468
sS'S_CLEAR_WEAKREFR'
p1469
(L134653024L
L134653061L
tp1470
sS'_bfd_write_archive_contents'
p1471
(L135187184L
L135188965L
tp1472
sS'symbol_previous'
p1473
(L134655920L
L134655991L
tp1474
sS'bfd_set_archive_head'
p1475
(L135178320L
L135178340L
tp1476
sS'S_CLEAR_WEAKREFD'
p1477
(L134653136L
L134653204L
tp1478
sS'elf_i386_info_to_howto_rel'
p1479
(L134862064L
L134862095L
tp1480
sS'cache_bread'
p1481
(L134764336L
L134764880L
tp1482
sS'elf_i386_grok_prstatus'
p1483
(L134861104L
L134861394L
tp1484
sS'tc_i386_fix_adjustable'
p1485
(L134716944L
L134717150L
tp1486
sS'S_IS_STABD'
p1487
(L134646848L
L134646903L
tp1488
sS's_lcomm'
p1489
(L134626256L
L134626283L
tp1490
sS'bfd_plugin_sizeof_headers'
p1491
(L135173584L
L135173613L
tp1492
sS'bfd_arch_i386_onebyte_nop_fill'
p1493
(L135175712L
L135175774L
tp1494
sS'bfd_get_mtime'
p1495
(L135193712L
L135193784L
tp1496
sS'strrevcmp'
p1497
(L135050624L
L135050730L
tp1498
sS'aout_32_link_hash_table_create'
p1499
(L135095072L
L135095164L
tp1500
sS'htab_collisions'
p1501
(L135273344L
L135273407L
tp1502
sS'set_allow_index_reg'
p1503
(L134676016L
L134676026L
tp1504
sS'obj_elf_weak'
p1505
(L134745696L
L134745791L
tp1506
sS'i386_target_format'
p1507
(L134735312L
L134735908L
tp1508
sS'calc_hex'
p1509
(L134582096L
L134582543L
tp1510
sS'obj_elf_section_name'
p1511
(L134749456L
L134749709L
tp1512
sS'bfd_hash_table_free'
p1513
(L134805792L
L134805823L
tp1514
sS'pass_over'
p1515
(L134833328L
L134833639L
tp1516
sS'app_push'
p1517
(L134528336L
L134528553L
tp1518
sS'bfd_elf32_write_out_phdrs'
p1519
(L134898688L
L134898820L
tp1520
sS'obj_elf_size'
p1521
(L134739984L
L134740390L
tp1522
sS'compare_link_order'
p1523
(L134973968L
L134974024L
tp1524
sS'bfd_openw'
p1525
(L134789552L
L134789656L
tp1526
sS'bfd_openr'
p1527
(L134789216L
L134789259L
tp1528
sS'register_tm_clones'
p1529
(L134527904L
L134527959L
tp1530
sS'bfd_get_bits'
p1531
(L134785424L
L134785580L
tp1532
sS'simple_dummy_multiple_definition'
p1533
(L134856400L
L134856406L
tp1534
sS'demangle_class_name'
p1535
(L135216624L
L135216724L
tp1536
sS'elf_i386_gc_sweep_hook'
p1537
(L134874384L
L134875162L
tp1538
sS'symbol_clone_if_forward_ref'
p1539
(L134655024L
L134655469L
tp1540
sS'colon'
p1541
(L134653696L
L134655009L
tp1542
sS'd_print_mod_0'
p1543
(L135242752L
L135244635L
tp1544
sS'write_object_file'
p1545
(L134672368L
L134675003L
tp1546
sS'add_to_result'
p1547
(L134564512L
L134564568L
tp1548
sS'elf_i386_link_hash_newfunc'
p1549
(L134871792L
L134871887L
tp1550
sS'aout_link_check_archive_element'
p1551
(L135076160L
L135076967L
tp1552
sS'hash_traverse'
p1553
(L134578304L
L134578381L
tp1554
sS'_bfd_elf_strtab_clear_all_refs'
p1555
(L135051568L
L135051610L
tp1556
sS'bfd_elf_gc_common_finalize_got_offsets'
p1557
(L135044048L
L135044451L
tp1558
sS'elf_i386_relocate_section'
p1559
(L134875168L
L134885033L
tp1560
sS'coff_renumber_symbols'
p1561
(L134767680L
L134768426L
tp1562
sS'bfd_is_local_label'
p1563
(L134800352L
L134800395L
tp1564
sS'_bfd_elf_eh_frame_present'
p1565
(L135061168L
L135061254L
tp1566
sS'bfd_make_section'
p1567
(L134799264L
L134799299L
tp1568
sS'_bfd_stringtab_add'
p1569
(L134807616L
L134807909L
tp1570
sS'_bfd_generic_link_write_global_symbol'
p1571
(L134808640L
L134808879L
tp1572
sS'S_FORCE_RELOC'
p1573
(L134646368L
L134646477L
tp1574
sS'aout_32_squirt_out_relocs'
p1575
(L135092176L
L135092436L
tp1576
sS'demangle_qualified'
p1577
(L135210240L
L135211431L
tp1578
sS'bfd_check_format'
p1579
(L134782640L
L134782675L
tp1580
sS'tekhex_make_empty_symbol'
p1581
(L134830304L
L134830346L
tp1582
sS'i386_frag_max_var'
p1583
(L134729216L
L134729277L
tp1584
sS'bfd_flush'
p1585
(L135193200L
L135193219L
tp1586
sS'i386_intel_simplify'
p1587
(L134705776L
L134707978L
tp1588
sS'bfd_arch_i386_long_nop_fill'
p1589
(L135175680L
L135175698L
tp1590
sS'read_address'
p1591
(L134840896L
L134841116L
tp1592
sS'bfd_scan_arch'
p1593
(L134756976L
L134757049L
tp1594
sS'bfd_realloc2'
p1595
(L134783520L
L134783650L
tp1596
sS'_bfd_elf_init_1_index_section'
p1597
(L135017056L
L135017135L
tp1598
sS'cplus_demangle_mangled_name'
p1599
(L135258352L
L135258633L
tp1600
sS'dollar_label_clear'
p1601
(L134643600L
L134643637L
tp1602
sS's_comm'
p1603
(L134625504L
L134625531L
tp1604
sS'eh_frame_estimate_size_before_relax'
p1605
(L134561568L
L134561704L
tp1606
sS'remap_debug_filename'
p1607
(L134634544L
L134634745L
tp1608
sS'fix_new_exp'
p1609
(L134667424L
L134667754L
tp1610
sS'filename_eq'
p1611
(L135269840L
L135269875L
tp1612
sS'_objalloc_alloc'
p1613
(L135276272L
L135276543L
tp1614
sS'_bfd_construct_extended_name_table'
p1615
(L135183760L
L135184784L
tp1616
sS'bfd_set_file_flags'
p1617
(L134758752L
L134758874L
tp1618
sS'coff_real_object_p'
p1619
(L134772128L
L134773680L
tp1620
sS'bfd_seek'
p1621
(L135193312L
L135193707L
tp1622
sS'hash_print_statistics'
p1623
(L134578384L
L134578386L
tp1624
sS'offset_in_range'
p1625
(L134684256L
L134684497L
tp1626
sS'elf_append_rel'
p1627
(L135046656L
L135046776L
tp1628
sS'sub_805B230'
p1629
(L134591024L
L134591453L
tp1630
sS'srec_write_record'
p1631
(L134822720L
L134823287L
tp1632
sS'deregister_tm_clones'
p1633
(L134527856L
L134527898L
tp1634
sS'bfd_sprintf_vma'
p1635
(L134761024L
L134761075L
tp1636
sS'cpu_flags_match'
p1637
(L134692608L
L134692977L
tp1638
sS'listing_list'
p1639
(L134589936L
L134590104L
tp1640
sS'bfd_getl16'
p1641
(L134784144L
L134784161L
tp1642
sS'bfd_get_error'
p1643
(L134757776L
L134757782L
tp1644
sS'obj_elf_lcomm'
p1645
(L134739472L
L134739518L
tp1646
sS'_bfd_elf_init_private_section_data'
p1647
(L134932688L
L134933088L
tp1648
sS'symbol_set_value_now'
p1649
(L134656672L
L134656736L
tp1650
sS'as_warn'
p1651
(L134602160L
L134602291L
tp1652
sS'subseg_change'
p1653
(L134639120L
L134639191L
tp1654
sS'code_for_qualifier'
p1655
(L135202800L
L135202846L
tp1656
sS'bfd_section_already_linked_table_insert'
p1657
(L134819648L
L134819719L
tp1658
sS'bfd_reloc_type_lookup'
p1659
(L134796128L
L134796143L
tp1660
sS'_bfd_elf_gc_keep'
p1661
(L135041904L
L135042022L
tp1662
sS'memory_bseek'
p1663
(L135192016L
L135192243L
tp1664
sS'read_uleb128'
p1665
(L135052592L
L135052694L
tp1666
sS'_bfd_elf_strtab_restore_size'
p1667
(L135051616L
L135051734L
tp1668
sS'elf_gc_smash_unused_vtentry_relocs'
p1669
(L134994928L
L134995230L
tp1670
sS'bfd_perform_relocation'
p1671
(L134792672L
L134793746L
tp1672
sS'_bfd_elf_link_hash_table_create'
p1673
(L135021744L
L135021844L
tp1674
sS'srec_object_p'
p1675
(L134828112L
L134828425L
tp1676
sS'relax_frag'
p1677
(L134669696L
L134670052L
tp1678
sS'symbol_mark_used'
p1679
(L134656784L
L134656866L
tp1680
sS'bfd_get_elf_phdrs'
p1681
(L134965872L
L134965955L
tp1682
sS'floating_constant'
p1683
(L134562224L
L134562366L
tp1684
sS'srec_bad_byte'
p1685
(L134825600L
L134825818L
tp1686
sS'vendor_obj_attr_size'
p1687
(L135047232L
L135047467L
tp1688
sS'as_where'
p1689
(L134581808L
L134581906L
tp1690
sS'seen_at_least_1_file'
p1691
(L134581472L
L134581486L
tp1692
sS'elf_gc_sweep_symbol'
p1693
(L134972752L
L134972850L
tp1694
sS'_bfd_elf_dynamic_symbol_p'
p1695
(L134995792L
L134996073L
tp1696
sS'bfd_cache_init'
p1697
(L134762560L
L134762713L
tp1698
sS'elf_vxworks_finish_dynamic_entry'
p1699
(L134892592L
L134892788L
tp1700
sS'do_slurp_bsd_armap'
p1701
(L135176624L
L135177029L
tp1702
sS'symbol_same_p'
p1703
(L134656464L
L134656541L
tp1704
sS'S_SET_WEAKREFR'
p1705
(L134656880L
L134656952L
tp1706
sS'elf_get_linked_section_vma'
p1707
(L134973808L
L134973961L
tp1708
sS'symbol_shadow_p'
p1709
(L134657904L
L134657945L
tp1710
sS'print_binary'
p1711
(L134661392L
L134661562L
tp1712
sS'S_SET_WEAKREFD'
p1713
(L134653072L
L134653125L
tp1714
sS'bfd_elf_string_from_elf_section'
p1715
(L134910224L
L134910254L
tp1716
sS'delete_macro'
p1717
(L134600080L
L134600287L
tp1718
sS'i386_aout_linux_set_sizes'
p1719
(L135068320L
L135068382L
tp1720
sS'dwarf2_directive_loc'
p1721
(L134545984L
L134547085L
tp1722
sS'bfd_generic_archive_p'
p1723
(L135180912L
L135181352L
tp1724
sS'pe_ILF_make_a_symbol'
p1725
(L135107264L
L135107665L
tp1726
sS'symbol_clear_mri_common'
p1727
(L134657264L
L134657301L
tp1728
sS'bfd_elf32_core_file_p'
p1729
(L134903200L
L134904357L
tp1730
sS'_bfd_generic_init_private_section_data'
p1731
(L134786688L
L134786694L
tp1732
sS'bfd_get_arch'
p1733
(L134757312L
L134757323L
tp1734
sS'elf_i386_reloc_name_lookup'
p1735
(L134872160L
L134872241L
tp1736
sS'dot_cfi_personality'
p1737
(L134552736L
L134553015L
tp1738
sS'rsrc_parse_entries'
p1739
(L135125376L
L135126001L
tp1740
sS'i386_finalize_displacement'
p1741
(L134683840L
L134684245L
tp1742
sS'coff_find_inliner_info'
p1743
(L134779776L
L134779832L
tp1744
sS'bfd_init'
p1745
(L134782864L
L134782866L
tp1746
sS'relax_seg'
p1747
(L134672304L
L134672365L
tp1748
sS'dot_cfi'
p1749
(L134558576L
L134559479L
tp1750
sS'aout_32_set_arch_mach'
p1751
(L135085056L
L135085197L
tp1752
sS'obj_elf_symver'
p1753
(L134745104L
L134745532L
tp1754
sS'aout_32_get_symtab_upper_bound'
p1755
(L135092816L
L135092863L
tp1756
sS'sb_add_sb'
p1757
(L134635040L
L134635101L
tp1758
sS'bfd_section_already_linked_table_init'
p1759
(L134819728L
L134819771L
tp1760
sS'bfd_get_elf_phdr_upper_bound'
p1761
(L134965808L
L134965859L
tp1762
sS'_bfd_slurp_extended_name_table'
p1763
(L135183152L
L135183755L
tp1764
sS'bfd_elf_match_symbols_in_sections'
p1765
(L134970224L
L134972099L
tp1766
sS'generic_link_check_archive_element_collect'
p1767
(L134816176L
L134816201L
tp1768
sS'ihex_write_object_contents'
p1769
(L134834416L
L134835245L
tp1770
sS'_bfd_elf_get_special_section'
p1771
(L134914000L
L134914212L
tp1772
sS'linux_link_hash_table_create'
p1773
(L135069728L
L135069820L
tp1774
sS'elf_i386_size_dynamic_sections'
p1775
(L134866896L
L134870373L
tp1776
sS'cplus_demangle_set_style'
p1777
(L135205040L
L135205081L
tp1778
sS'_bfd_generic_new_section_hook'
p1779
(L134797728L
L134797815L
tp1780
sS'bfd_record_phdr'
p1781
(L134760752L
L134761010L
tp1782
sS'i386_aout_linux_callback'
p1783
(L135070928L
L135072310L
tp1784
sS'eq_file_ptr'
p1785
(L135176576L
L135176603L
tp1786
sS'cfi_add_advance_loc'
p1787
(L134557296L
L134557342L
tp1788
sS'stabs_generate_asm_lineno'
p1789
(L134637920L
L134638474L
tp1790
sS's_ignore'
p1791
(L134616800L
L134616805L
tp1792
sS'cplus_demangle_fill_extended_operator'
p1793
(L135248240L
L135248300L
tp1794
sS'elf_i386_is_local_label_name'
p1795
(L134872256L
L134872300L
tp1796
sS'_bfd_elf_common_section_index'
p1797
(L135046112L
L135046118L
tp1798
sS'_bfd_nearby_section'
p1799
(L134820688L
L134820997L
tp1800
sS'expr_set_rank'
p1801
(L134564416L
L134564479L
tp1802
sS'bfd_wrapped_link_hash_lookup'
p1803
(L134809392L
L134809855L
tp1804
sS'_bfd_elf_define_linkage_sym'
p1805
(L134985472L
L134985721L
tp1806
sS'opncls_bclose'
p1807
(L134786896L
L134786939L
tp1808
sS'pe_print_debugdata'
p1809
(L135137152L
L135138491L
tp1810
sS'bfd_make_section_anyway_with_flags'
p1811
(L134798832L
L134799006L
tp1812
sS'_bfd_elf_write_section_eh_frame'
p1813
(L135061872L
L135065430L
tp1814
sS'md_operand'
p1815
(L134731360L
L134731593L
tp1816
sS'coff_i386_rtype_to_howto'
p1817
(L135102832L
L135103208L
tp1818
sS'_bfd_coff_read_string_table'
p1819
(L134771728L
L134772122L
tp1820
sS'htab_try_create'
p1821
(L135271632L
L135271699L
tp1822
sS'binary_canonicalize_symtab'
p1823
(L134828912L
L134829127L
tp1824
sS'coff_make_empty_symbol'
p1825
(L134776144L
L134776207L
tp1826
sS'unwrap_hash_lookup'
p1827
(L134810960L
L134811222L
tp1828
sS'aout_32_mkobject'
p1829
(L135084256L
L135084367L
tp1830
sS'bfd_demangle'
p1831
(L134761584L
L134762169L
tp1832
sS'size_of_output_cie_fde'
p1833
(L135052720L
L135052794L
tp1834
sS'_bfd_write_merged_section'
p1835
(L135201088L
L135201465L
tp1836
sS'fb_label_instance_inc'
p1837
(L134644544L
L134644860L
tp1838
sS'bfd_elf_get_default_section_type'
p1839
(L134915536L
L134915563L
tp1840
sS'memory_bclose'
p1841
(L135191952L
L135192002L
tp1842
sS'listing_prev_line'
p1843
(L134585680L
L134585786L
tp1844
sS'_bfd_elf_gc_mark'
p1845
(L135040752L
L135041171L
tp1846
sS'bfd_coff_set_symbol_class'
p1847
(L134779904L
L134780150L
tp1848
sS'input_file_close'
p1849
(L134579584L
L134579635L
tp1850
sS'_bfd_elf_encode_eh_address'
p1851
(L135066496L
L135066538L
tp1852
sS'aout_32_link_hash_table_init'
p1853
(L135095056L
L135095061L
tp1854
sS'elf_sort_elf_symbol'
p1855
(L134967680L
L134967699L
tp1856
sS'do_type'
p1857
(L135211440L
L135214709L
tp1858
sS'cfi_add_CFA_def_cfa_offset'
p1859
(L134558272L
L134558311L
tp1860
sS'bfd_getb64'
p1861
(L134784496L
L134784621L
tp1862
sS'check_eh_frame'
p1863
(L134560048L
L134561556L
tp1864
sS'symbol_find'
p1865
(L134653504L
L134653531L
tp1866
sS'iterate_demangle_function'
p1867
(L135222800L
L135223213L
tp1868
sS'bfd_elf_link_record_dynamic_symbol'
p1869
(L134987104L
L134987326L
tp1870
sS'_bfd_elf_adjust_dynamic_copy'
p1871
(L134995696L
L134995791L
tp1872
sS'md_convert_frag'
p1873
(L134729888L
L134730298L
tp1874
sS'bfd_set_arch_info'
p1875
(L134757296L
L134757308L
tp1876
sS'elf_vxworks_final_write_processing'
p1877
(L134892256L
L134892366L
tp1878
sS'elf_i386_rtype_to_howto'
p1879
(L134861888L
L134862054L
tp1880
sS'filename_hash'
p1881
(L135269776L
L135269837L
tp1882
sS'xatexit_0'
p1883
(L135277072L
L135277187L
tp1884
sS'demangle_args'
p1885
(L135218400L
L135219091L
tp1886
sS'debugging_pseudo'
p1887
(L134583936L
L134584285L
tp1888
sS's_stab_generic'
p1889
(L134635888L
L134636938L
tp1890
sS'bss_alloc'
p1891
(L134609888L
L134610168L
tp1892
sS'verilog_write_object_contents'
p1893
(L134859408L
L134859904L
tp1894
sS'bfd_get_linker_section'
p1895
(L134798048L
L134798142L
tp1896
sS'rsrc_print_resource_entries'
p1897
(L135123568L
L135124584L
tp1898
sS'concat'
p1899
(L135262848L
L135262993L
tp1900
sS'unlink_if_ordinary'
p1901
(L135276928L
L135277017L
tp1902
sS'coff_link_add_object_symbols'
p1903
(L135153056L
L135155574L
tp1904
sS'bfd_elf32_slurp_symbol_table'
p1905
(L134893616L
L134895095L
tp1906
sS'htab_traverse'
p1907
(L135273264L
L135273329L
tp1908
sS'get_frag_for_reloc'
p1909
(L134666592L
L134666719L
tp1910
sS'cplus_demangle_print_callback'
p1911
(L135259200L
L135259521L
tp1912
sS'sb_terminate'
p1913
(L134635408L
L134635424L
tp1914
sS'_bfd_pe_print_ce_compressed_pdata'
p1915
(L135138944L
L135140222L
tp1916
sS'S_SET_NAME'
p1917
(L134655728L
L134655775L
tp1918
sS'_bfd_generic_link_hash_table_free'
p1919
(L134808144L
L134808236L
tp1920
sS'hash_new'
p1921
(L134577360L
L134577380L
tp1922
sS'elf_fake_sections'
p1923
(L134907456L
L134908816L
tp1924
sS'bfd_set_section_contents'
p1925
(L134799648L
L134799907L
tp1926
sS'expand_irp'
p1927
(L134600288L
L134601099L
tp1928
sS'input_file_buffer_size'
p1929
(L134578608L
L134578614L
tp1930
sS'_bfd_xcoff_stringtab_init'
p1931
(L134807536L
L134807559L
tp1932
sS'binary_sizeof_headers'
p1933
(L134828720L
L134828723L
tp1934
sS'make_mapping'
p1935
(L134904704L
L134904821L
tp1936
sS'htab_traverse_noresize'
p1937
(L135273184L
L135273249L
tp1938
sS'stringer_append_char'
p1939
(L134608480L
L134608701L
tp1940
sS'_bfd_pei_swap_aouthdr_out'
p1941
(L135133280L
L135134770L
tp1942
sS'bfd_generic_stat_arch_elt'
p1943
(L135185488L
L135185714L
tp1944
sS'dollar_label_name'
p1945
(L134644016L
L134644533L
tp1946
sS'_bfd_bsd44_write_ar_hdr'
p1947
(L135185168L
L135185473L
tp1948
sS'float_cons'
p1949
(L134616816L
L134617321L
tp1950
sS'cfi_add_CFA_remember_state'
p1951
(L134558416L
L134558470L
tp1952
sS'dot_cfi_startproc'
p1953
(L134555616L
L134555864L
tp1954
sS'resolve_symbol_value'
p1955
(L134648448L
L134651739L
tp1956
sS'obj_elf_seen_attribute'
p1957
(L134751968L
L134752035L
tp1958
sS'elf_link_renumber_hash_table_dynsyms'
p1959
(L134972112L
L134972148L
tp1960
sS'bfd_arch_default_fill'
p1961
(L134756848L
L134756899L
tp1962
sS'snapshot_symbol'
p1963
(L134643120L
L134643442L
tp1964
sS'_bfd_generic_reloc_link_order'
p1965
(L134817408L
L134818155L
tp1966
sS'sb_skip_comma'
p1967
(L134635488L
L134635617L
tp1968
sS'filename_cmp'
p1969
(L135269744L
L135269749L
tp1970
sS'd_expression_1'
p1971
(L135254048L
L135255518L
tp1972
sS'flonum_multip'
p1973
(L134573968L
L134574468L
tp1974
sS'aout_32_swap_ext_reloc_out'
p1975
(L135090240L
L135090578L
tp1976
sS'check_macro'
p1977
(L134598096L
L134600080L
tp1978
sS'update_code_flag'
p1979
(L134676368L
L134676572L
tp1980
sS'_bfd_elf_discard_section_eh_frame_hdr'
p1981
(L135061040L
L135061167L
tp1982
sS'bfd_alloc'
p1983
(L134790576L
L134790720L
tp1984
sS'md_section_align'
p1985
(L134736352L
L134736357L
tp1986
sS'make_expr_symbol'
p1987
(L134563776L
L134564101L
tp1988
sS'sizeof_leb128'
p1989
(L134622928L
L134622994L
tp1990
sS'elfcore_write_note'
p1991
(L134961808L
L134962113L
tp1992
sS'srec_scan'
p1993
(L134825824L
L134828112L
tp1994
sS'tekhex_print_symbol'
p1995
(L134832352L
L134832470L
tp1996
sS'bfd_malloc_and_get_section'
p1997
(L134800272L
L134800287L
tp1998
sS's_include'
p1999
(L134634144L
L134634354L
tp2000
sS'tekhex_mkobject'
p2001
(L134830928L
L134831007L
tp2002
sS'_bfd_calloc_wrapper'
p2003
(L135176608L
L135176613L
tp2004
sS'aout_32_swap_ext_reloc_in'
p2005
(L135090592L
L135091052L
tp2006
sS'dwarf1_unit_find_nearest_line'
p2007
(L135067056L
L135067743L
tp2008
sS'hash_insert'
p2009
(L134577440L
L134577645L
tp2010
sS'eh_frame_relax_frag'
p2011
(L134561712L
L134561741L
tp2012
sS'aout_32_canonicalize_reloc'
p2013
(L135092448L
L135092643L
tp2014
sS'default_indirect_link_order'
p2015
(L134809856L
L134810945L
tp2016
sS'print_expr_1'
p2017
(L134658384L
L134659633L
tp2018
sS'subseg_new'
p2019
(L134639840L
L134639882L
tp2020
sS'aout_32_get_reloc_upper_bound'
p2021
(L135092656L
L135092803L
tp2022
sS'cfi_new_fde'
p2023
(L134557088L
L134557120L
tp2024
sS'coff_get_lineno'
p2025
(L134771536L
L134771544L
tp2026
sS'new_formal'
p2027
(L134590656L
L134590727L
tp2028
sS'cplus_demangle_fill_ctor'
p2029
(L135248304L
L135248364L
tp2030
sS'dwarf2_emit_insn'
p2031
(L134545312L
L134545409L
tp2032
sS'elf_file_symbol'
p2033
(L134740752L
L134741172L
tp2034
sS'aout_32_find_nearest_line'
p2035
(L135093696L
L135094847L
tp2036
sS'bfd_cache_max_open'
p2037
(L134762176L
L134762289L
tp2038
sS'do_arg'
p2039
(L135218064L
L135218392L
tp2040
sS'_bfd_generic_minisymbol_to_symbol'
p2041
(L134801648L
L134801655L
tp2042
sS'undefined_reference'
p2043
(L134968432L
L134968496L
tp2044
sS'coff_slurp_symbol_table_0'
p2045
(L135108624L
L135110924L
tp2046
sS'memory_bwrite'
p2047
(L135192432L
L135192671L
tp2048
sS'bfd_alloc2'
p2049
(L134790720L
L134790812L
tp2050
sS'bfd_elf_add_obj_attr_int_string'
p2051
(L135048496L
L135048615L
tp2052
sS'd_number'
p2053
(L135227328L
L135227419L
tp2054
sS'elfcore_write_linux_prpsinfo64'
p2055
(L134962816L
L134963210L
tp2056
sS'symbol_clear_written'
p2057
(L134657408L
L134657444L
tp2058
sS'_bfd_norelocs_canonicalize_reloc'
p2059
(L134783072L
L134783085L
tp2060
sS'i386_finalize_immediate'
p2061
(L134677056L
L134677284L
tp2062
sS'_start'
p2063
(L134527804L
L134527838L
tp2064
sS'symbol_mark_resolved'
p2065
(L134657504L
L134657548L
tp2066
sS'S_IS_DEFINED'
p2067
(L134646288L
L134646353L
tp2068
sS'bfd_elf32_swap_reloca_in'
p2069
(L134893072L
L134893138L
tp2070
sS'subsegs_begin'
p2071
(L134639024L
L134639106L
tp2072
sS'symbol_find_noref'
p2073
(L134653344L
L134653492L
tp2074
sS'bfd_create'
p2075
(L134790080L
L134790156L
tp2076
sS'verilog_set_section_contents'
p2077
(L134858976L
L134859237L
tp2078
sS'_bfd_elf_create_dynamic_sections'
p2079
(L134986704L
L134987095L
tp2080
sS'expr_begin'
p2081
(L134564480L
L134564502L
tp2082
sS'aout_32_bfd_free_cached_info'
p2083
(L135094864L
L135095055L
tp2084
sS'check_for_relocs'
p2085
(L135173456L
L135173562L
tp2086
sS'_bfd_elf_symbol_from_bfd_symbol'
p2087
(L134932480L
L134932682L
tp2088
sS'writevalue'
p2089
(L134830000L
L134830141L
tp2090
sS'_bfd_elf_write_object_contents'
p2091
(L134931728L
L134932453L
tp2092
sS's_fail'
p2093
(L134612944L
L134613123L
tp2094
sS'bfd_get_relocated_section_contents'
p2095
(L134760656L
L134760745L
tp2096
sS'dlang_type'
p2097
(L135267680L
L135268821L
tp2098
sS'pe_ILF_make_a_section'
p2099
(L135107680L
L135107956L
tp2100
sS'register_Btype'
p2101
(L135202544L
L135202653L
tp2102
sS'_bfd_archive_bsd_construct_extended_name_table'
p2103
(L135184784L
L135184823L
tp2104
sS'opncls_bseek'
p2105
(L134786720L
L134786795L
tp2106
sS'buildargv'
p2107
(L135261040L
L135261616L
tp2108
sS'aout_32_swap_std_reloc_out'
p2109
(L135089808L
L135090240L
tp2110
sS'elf_s_get_other'
p2111
(L134739520L
L134739543L
tp2112
sS'input_scrub_insert_line'
p2113
(L134633984L
L134634093L
tp2114
sS'dwarf2dbg_relax_frag'
p2115
(L134547232L
L134547258L
tp2116
sS'cache_bstat'
p2117
(L134763776L
L134763887L
tp2118
sS'dot_cfi_escape'
p2119
(L134557712L
L134557966L
tp2120
sS'print_expr'
p2121
(L134661568L
L134661617L
tp2122
sS'elf_collect_gnu_hash_codes'
p2123
(L134975376L
L134975633L
tp2124
sS'merge_sections_remove_hook'
p2125
(L134968784L
L134968837L
tp2126
sS's_ifb'
p2127
(L134538320L
L134538700L
tp2128
sS'emit_line'
p2129
(L134582944L
L134583004L
tp2130
sS'ada_demangle'
p2131
(L135205152L
L135206530L
tp2132
sS'subseg_set_rest'
p2133
(L134639200L
L134639693L
tp2134
sS'parse_align'
p2135
(L134611184L
L134611461L
tp2136
sS'frag_offset_fixed_p'
p2137
(L134576688L
L134576831L
tp2138
sS'mark_entry'
p2139
(L135053200L
L135053325L
tp2140
sS'as_warn_where'
p2141
(L134602304L
L134602449L
tp2142
sS'read_rangelist'
p2143
(L134841120L
L134841365L
tp2144
sS'coff_write_linenumbers'
p2145
(L134771104L
L134771532L
tp2146
sS'elf_frob_file'
p2147
(L134743808L
L134743844L
tp2148
sS'aout_32_swap_exec_header_in'
p2149
(L135082864L
L135083113L
tp2150
sS'_bfd_create_empty_archive_element_shell'
p2151
(L135178304L
L135178309L
tp2152
sS'bfd_set_symtab'
p2153
(L134800400L
L134800474L
tp2154
sS'_bfd_elf_merge_sections'
p2155
(L135021024L
L135021232L
tp2156
sS'linux_add_one_symbol'
p2157
(L135073200L
L135073881L
tp2158
sS'cons_worker'
p2159
(L134622432L
L134622896L
tp2160
sS'bfd_set_assert_handler'
p2161
(L134758192L
L134758208L
tp2162
sS'add_include_dir'
p2163
(L134631104L
L134631240L
tp2164
sS'_bfd_generic_link_add_symbols'
p2165
(L134815632L
L134815644L
tp2166
sS'bfd_elf_gc_record_vtinherit'
p2167
(L135043072L
L135043310L
tp2168
sS'input_scrub_include_sb'
p2169
(L134580576L
L134580814L
tp2170
sS'bfd_getl32'
p2171
(L134784352L
L134784389L
tp2172
sS'input_scrub_close'
p2173
(L134580816L
L134580848L
tp2174
sS'_bfd_generic_write_ar_hdr'
p2175
(L135185104L
L135185153L
tp2176
sS'listing_page'
p2177
(L134582544L
L134582943L
tp2178
sS'_bfd_merge_sections'
p2179
(L135199792L
L135201088L
tp2180
sS'do_scrub_begin'
p2181
(L134528048L
L134528324L
tp2182
sS'bfd_set_section_flags'
p2183
(L134799312L
L134799329L
tp2184
sS'bfd_map_over_sections'
p2185
(L134799392L
L134799482L
tp2186
sS'cfi_add_CFA_register'
p2187
(L134558192L
L134558225L
tp2188
sS'dot_cfi_val_encoded_addr'
p2189
(L134557344L
L134557706L
tp2190
sS'dlang_function_type'
p2191
(L135269152L
L135269536L
tp2192
sS'_bfd_elf_can_make_relative'
p2193
(L135066480L
L135066486L
tp2194
sS'_bfd_elf_swap_verdaux_in'
p2195
(L134909120L
L134909171L
tp2196
sS'__umoddi3'
p2197
(L135278640L
L135278983L
tp2198
sS'expr_set_precedence'
p2199
(L134564384L
L134564406L
tp2200
sS'convert_to_bignum'
p2201
(L134604592L
L134604671L
tp2202
sS'listing_newline'
p2203
(L134584976L
L134585669L
tp2204
sS'_bfd_write_section_stabs'
p2205
(L135197392L
L135197843L
tp2206
sS'assign_symbol'
p2207
(L134619008L
L134619450L
tp2208
sS'bfd_elf32_checksum_contents'
p2209
(L134898832L
L134899589L
tp2210
sS'bfd_i386_compatible'
p2211
(L135175776L
L135175828L
tp2212
sS'htab_find_slot_with_hash'
p2213
(L135272464L
L135272924L
tp2214
sS'out_sleb128'
p2215
(L134553328L
L134553383L
tp2216
sS'_bfd_elf_copy_private_symbol_data'
p2217
(L134939904L
L134940183L
tp2218
sS'is_default_attr'
p2219
(L135046784L
L135046830L
tp2220
sS'compress_frag'
p2221
(L134662288L
L134662613L
tp2222
sS'_bfd_pei_swap_scnhdr_out'
p2223
(L135136080L
L135137008L
tp2224
sS'_bfd_elf_link_hash_table_free'
p2225
(L134970160L
L134970215L
tp2226
sS'generic_link_add_object_symbols'
p2227
(L134815040L
L134815531L
tp2228
sS'bfd_format_string'
p2229
(L134782816L
L134782852L
tp2230
sS'cond_exit_macro'
p2231
(L134541600L
L134541703L
tp2232
sS's_app_file'
p2233
(L134628896L
L134629002L
tp2234
sS'frag_more'
p2235
(L134575856L
L134575904L
tp2236
sS'cache_bwrite'
p2237
(L134764160L
L134764322L
tp2238
sS'bfd_elf32_swap_symbol_in'
p2239
(L134892800L
L134893005L
tp2240
sS'MY_bfd_copy_private_section_data'
p2241
(L135072320L
L135072381L
tp2242
sS'check_dynsym'
p2243
(L134973392L
L134973479L
tp2244
sS'md_atof'
p2245
(L134731024L
L134731067L
tp2246
sS'bfd_realloc'
p2247
(L134783424L
L134783506L
tp2248
sS'scan_unit_for_symbols'
p2249
(L134847040L
L134848775L
tp2250
sS'coff_pe_i386_relocate_section'
p2251
(L135103696L
L135103748L
tp2252
sS'aout_32_link_add_symbols'
p2253
(L135095168L
L135095310L
tp2254
sS'alloc_cfi_insn_data'
p2255
(L134552304L
L134552350L
tp2256
sS'd_exprlist'
p2257
(L135252272L
L135254037L
tp2258
sS'elf_strtab_hash_newfunc'
p2259
(L135050736L
L135050842L
tp2260
sS'_bfd_elf_make_section_from_phdr'
p2261
(L134914592L
L134915448L
tp2262
sS'cfi_set_return_column'
p2263
(L134557264L
L134557282L
tp2264
sS's_bundle_lock'
p2265
(L134614720L
L134614840L
tp2266
sS'bfd_elf_get_bfd_needed_list'
p2267
(L135022128L
L135022505L
tp2268
sS'elf_i386_link_hash_table_free'
p2269
(L134871888L
L134871953L
tp2270
sS'_bfd_elf_copy_private_section_data'
p2271
(L134933088L
L134933237L
tp2272
sS'_bfd_elf_slurp_version_tables'
p2273
(L134941072L
L134943321L
tp2274
sS'listing_nopage'
p2275
(L134590224L
L134590235L
tp2276
sS'bfd_section_hash_newfunc'
p2277
(L134797552L
L134797726L
tp2278
sS'bfd_malloc'
p2279
(L134783248L
L134783309L
tp2280
sS'bfd_elf_reloc_symbol_deleted_p'
p2281
(L134968032L
L134968315L
tp2282
sS'd_bare_function_type'
p2283
(L135252080L
L135252164L
tp2284
sS'_bfd_elf_link_hash_copy_indirect'
p2285
(L135021232L
L135021529L
tp2286
sS'htab_create_typed_alloc'
p2287
(L135271280L
L135271433L
tp2288
sS'_bfd_generic_mkarchive'
p2289
(L135178144L
L135178187L
tp2290
sS'symbol_mark_written'
p2291
(L134657360L
L134657396L
tp2292
sS'get_stab_string_offset'
p2293
(L134635632L
L134635881L
tp2294
sS'md_parse_option'
p2295
(L134731600L
L134734180L
tp2296
sS'bfd_stat'
p2297
(L135193232L
L135193304L
tp2298
sS'_bfd_elf_fix_symbol_flags'
p2299
(L134990704L
L134991469L
tp2300
sS'srec_write_object_contents'
p2301
(L134825568L
L134825579L
tp2302
sS'bfd_core_file_failing_command'
p2303
(L135193936L
L135193986L
tp2304
sS'_bfd_coff_write_global_sym'
p2305
(L135155696L
L135156996L
tp2306
sS'elfcore_write_ppc_vmx'
p2307
(L134963696L
L134963763L
tp2308
sS'coff_new_section_hook'
p2309
(L135121664L
L135121894L
tp2310
sS'd_print_cast'
p2311
(L135247008L
L135247643L
tp2312
sS'string_prepend'
p2313
(L135203536L
L135203584L
tp2314
sS'verilog_mkobject'
p2315
(L134859296L
L134859399L
tp2316
sS'_bfd_elf_get_dynamic_symtab_upper_bound'
p2317
(L134940256L
L134940355L
tp2318
sS'bfd_elf32_slurp_reloc_table'
p2319
(L134897696L
L134898257L
tp2320
sS'bfd_hash_lookup'
p2321
(L134806352L
L134806686L
tp2322
sS'_bfd_archive_bsd44_construct_extended_name_table'
p2323
(L135184880L
L135185094L
tp2324
sS'bfd_get_unique_section_name'
p2325
(L134798304L
L134798562L
tp2326
sS'cfi_add_CFA_restore'
p2327
(L134558320L
L134558346L
tp2328
sS'java_demangle_v3'
p2329
(L135260640L
L135260665L
tp2330
sS'elf_i386_mkobject'
p2331
(L134872304L
L134872339L
tp2332
sS'bfd_default_compatible'
p2333
(L134756912L
L134756955L
tp2334
sS's_bss'
p2335
(L134678624L
L134678662L
tp2336
sS'bfd_section_from_phdr'
p2337
(L134961296L
L134961802L
tp2338
sS'remember_Ktype'
p2339
(L135202656L
L135202792L
tp2340
sS'coff_i386_reloc_type_lookup'
p2341
(L135108048L
L135108226L
tp2342
sS'elfcore_write_aarch_hw_break'
p2343
(L134964656L
L134964723L
tp2344
sS'input_file_end'
p2345
(L134578592L
L134578594L
tp2346
sS'i386_parse_name'
p2347
(L134731072L
L134731346L
tp2348
sS'aout_32_make_sections'
p2349
(L135083296L
L135083444L
tp2350
sS'_bfd_delete_bfd'
p2351
(L134787120L
L134787199L
tp2352
sS'pending_bundle_size'
p2353
(L134605936L
L134606174L
tp2354
sS'gen_to_words'
p2355
(L134753440L
L134755036L
tp2356
sS'bfd_fdopenr'
p2357
(L134789264L
L134789435L
tp2358
sS'stabs_generate_asm_file'
p2359
(L134637728L
L134637913L
tp2360
sS'match_template'
p2361
(L134707984L
L134715319L
tp2362
sS's_app_file_string'
p2363
(L134609840L
L134609879L
tp2364
sS'bfd_get_arch_size'
p2365
(L134759904L
L134759964L
tp2366
sS'_bfd_elf_adjust_dynamic_symbol'
p2367
(L134991472L
L134991778L
tp2368
sS'process_immext'
p2369
(L134679424L
L134679784L
tp2370
sS'bfd_create_gnu_debuglink_section'
p2371
(L134791728L
L134791884L
tp2372
sS'_bfd_generic_read_ar_hdr_mag'
p2373
(L135178640L
L135179734L
tp2374
sS'cfi_add_CFA_same_value'
p2375
(L134558384L
L134558410L
tp2376
sS'print_lines'
p2377
(L134583008L
L134583925L
tp2378
sS'new_logical_line_flags'
p2379
(L134581536L
L134581747L
tp2380
sS'_bfd_elf_swap_verneed_out'
p2381
(L134909360L
L134909480L
tp2382
sS'_bfd_pe_get_symbol_info'
p2383
(L135149968L
L135149973L
tp2384
sS'_find_end_of_line'
p2385
(L134606624L
L134606914L
tp2386
sS'input_file_give_next_buffer'
p2387
(L134579648L
L134579855L
tp2388
sS'dump_statistics'
p2389
(L134534208L
L134534486L
tp2390
sS'aout_link_write_other_symbol'
p2391
(L135076976L
L135077780L
tp2392
sS'_bfd_elf_link_renumber_dynsyms'
p2393
(L134969440L
L134969721L
tp2394
sS'subseg_text_p'
p2395
(L134640352L
L134640366L
tp2396
sS'x86_64_section_word'
p2397
(L134739072L
L134739147L
tp2398
sS'bfd_false'
p2399
(L134782880L
L134782901L
tp2400
sS'_bfd_elf_make_empty_symbol'
p2401
(L134946256L
L134946291L
tp2402
sS'elf_i386_add_symbol_hook'
p2403
(L134872400L
L134872480L
tp2404
sS'bfd_init_section_decompress_status'
p2405
(L134858512L
L134858791L
tp2406
sS'_bfd_archive_close_and_cleanup'
p2407
(L135191520L
L135191775L
tp2408
sS'ihex_sizeof_headers'
p2409
(L134833872L
L134833875L
tp2410
sS'i386_aout_linux_object_p'
p2411
(L135070720L
L135070924L
tp2412
sS'elfcore_write_aarch_hw_watch'
p2413
(L134964736L
L134964803L
tp2414
sS'__libc_csu_fini'
p2415
(L135279104L
L135279106L
tp2416
sS'set_symbol_from_hash'
p2417
(L134808240L
L134808506L
tp2418
sS'_bfd_link_section_stabs'
p2419
(L135194448L
L135196651L
tp2420
sS'get_alt_debug_link_info_shim'
p2421
(L134791584L
L134791655L
tp2422
sS's_altmacro'
p2423
(L134611920L
L134611946L
tp2424
sS'demangle_nested_args'
p2425
(L135219104L
L135219228L
tp2426
sS'_bfd_elf32_bfd_from_remote_memory'
p2427
(L134901568L
L134902942L
tp2428
sS'bfd_elf_stack_segment_size'
p2429
(L135010912L
L135011373L
tp2430
sS'symbol_make'
p2431
(L134648160L
L134648229L
tp2432
sS'obj_elf_struct'
p2433
(L134739712L
L134739737L
tp2434
sS'symbol_append'
p2435
(L134642336L
L134642650L
tp2436
sS'symbol_used_in_reloc_p'
p2437
(L134657168L
L134657210L
tp2438
sS'opncls_bwrite'
p2439
(L134786880L
L134786891L
tp2440
sS'subtract_from_result'
p2441
(L134564576L
L134564634L
tp2442
sS'srec_sizeof_headers'
p2443
(L134821872L
L134821875L
tp2444
sS'obj_elf_tls_common'
p2445
(L134739424L
L134739470L
tp2446
sS'listing_eject'
p2447
(L134589904L
L134589927L
tp2448
sS's_if'
p2449
(L134537568L
L134538308L
tp2450
sS'_bfd_coff_link_hash_table_create'
p2451
(L135157264L
L135157356L
tp2452
sS'cplus_demangle_print'
p2453
(L135260224L
L135260475L
tp2454
sS'elf_vxworks_add_symbol_hook'
p2455
(L134891504L
L134891578L
tp2456
sS'S_CLEAR_VOLATILE'
p2457
(L134655824L
L134655860L
tp2458
sS'bfd_print_symbol_vandf'
p2459
(L134800480L
L134800844L
tp2460
sS's_xstab'
p2461
(L134637456L
L134637723L
tp2462
sS'x86_cons'
p2463
(L134728912L
L134729209L
tp2464
sS'_bfd_generic_link_output_symbols'
p2465
(L134816208L
L134817394L
tp2466
sS'_bfd_compute_and_write_armap'
p2467
(L135186192L
L135187179L
tp2468
sS'decode_local_label_name'
p2469
(L134645360L
L134645797L
tp2470
sS'elf_sort_symbol'
p2471
(L134967584L
L134967665L
tp2472
sS'i386_index_check'
p2473
(L134684512L
L134685685L
tp2474
sS'bfd_elf32_swap_reloca_out'
p2475
(L134893216L
L134893296L
tp2476
sS'aout_32_write_syms'
p2477
(L135088496L
L135089692L
tp2478
sS'bfd_coff_get_comdat_section'
p2479
(L134780160L
L134780194L
tp2480
sS'make_relative_prefix_1'
p2481
(L135274832L
L135276103L
tp2482
sS'bfd_hash_allocate'
p2483
(L134806992L
L134807107L
tp2484
sS'_bfd_write_stab_strings'
p2485
(L135197856L
L135198055L
tp2486
sS'consume_count_with_underscores'
p2487
(L135202128L
L135202207L
tp2488
sS'elf_link_flush_output_syms'
p2489
(L134975696L
L134975854L
tp2490
sS'elf_i386_always_size_sections'
p2491
(L134870384L
L134870642L
tp2492
sS'_bfd_elf_ifunc_get_synthetic_symtab'
p2493
(L134888976L
L134889897L
tp2494
sS'MY_close_and_cleanup'
p2495
(L135069904L
L135069949L
tp2496
sS'elf_find_function'
p2497
(L134904832L
L134905365L
tp2498
sS'sb_kill'
p2499
(L134635024L
L134635039L
tp2500
sS'_bfd_elf_tls_setup'
p2501
(L134996272L
L134996378L
tp2502
sS'obj_elf_data'
p2503
(L134741728L
L134741753L
tp2504
sS'cplus_demangle_v3'
p2505
(L135260576L
L135260600L
tp2506
sS'output_leb128'
p2507
(L134623008L
L134623122L
tp2508
sS'emit_expr_fix'
p2509
(L134619472L
L134619564L
tp2510
sS'bfd_get_alt_debug_link_info'
p2511
(L134791280L
L134791569L
tp2512
sS'symbol_temp_new_now'
p2513
(L134648320L
L134648369L
tp2514
sS'_bfd_elf_sizeof_headers'
p2515
(L134947184L
L134947321L
tp2516
sS'_bfd_generic_verify_endian_match'
p2517
(L134786192L
L134786330L
tp2518
sS'lex_got'
p2519
(L134680784L
L134681353L
tp2520
sS'elf_link_adjust_relocs'
p2521
(L134520384L
L134520783L
tp2522
sS'listing_warning'
p2523
(L134584880L
L134584927L
tp2524
sS'input_scrub_new_file'
p2525
(L134580416L
L134580521L
tp2526
sS'bfd_elf32_write_relocs'
p2527
(L134896528L
L134897044L
tp2528
sS'elf_s_set_size'
p2529
(L134739648L
L134739674L
tp2530
sS'bfd_printable_arch_mach'
p2531
(L134757552L
L134757601L
tp2532
sS'obj_elf_section_type'
p2533
(L134747504L
L134747860L
tp2534
sS'htab_find_with_hash'
p2535
(L135272080L
L135272405L
tp2536
sS'_bfd_norelocs_get_reloc_upper_bound'
p2537
(L134783056L
L134783062L
tp2538
sS'opncls_bflush'
p2539
(L134786944L
L134786947L
tp2540
sS'hash_delete'
p2541
(L134578128L
L134578296L
tp2542
sS'print_symbol_value'
p2543
(L134661328L
L134661387L
tp2544
sS'bfd_get_debug_link_info'
p2545
(L134787200L
L134787417L
tp2546
sS'input_scrub_include_file'
p2547
(L134580528L
L134580563L
tp2548
sS'htab_size'
p2549
(L135271072L
L135271080L
tp2550
sS'expr_build_dot'
p2551
(L134564224L
L134564312L
tp2552
sS'aout_get_external_symbols'
p2553
(L135074112L
L135074523L
tp2554
sS'_bfd_elf_allocate_ifunc_dyn_relocs'
p2555
(L134888288L
L134888974L
tp2556
sS'concat_copy'
p2557
(L135262672L
L135262749L
tp2558
sS'new_fixup'
p2559
(L135072384L
L135072460L
tp2560
sS'print_version_id'
p2561
(L134534544L
L134534654L
tp2562
sS'coff_set_alignment_hook'
p2563
(L135106096L
L135106753L
tp2564
sS'd_ref_qualifier'
p2565
(L135227024L
L135227103L
tp2566
sS'free_macro'
p2567
(L134590800L
L134590862L
tp2568
sS'_bfd_elf_add_dynamic_entry'
p2569
(L134996384L
L134996585L
tp2570
sS'S_GET_VALUE'
p2571
(L134651776L
L134652077L
tp2572
sS'hash_die'
p2573
(L134577392L
L134577432L
tp2574
sS'ihex_bad_byte'
p2575
(L134835520L
L134835738L
tp2576
sS'elf32_generic_link_add_symbols'
p2577
(L135173376L
L135173447L
tp2578
sS'_bfd_elf_discard_section_eh_frame'
p2579
(L135059264L
L135061038L
tp2580
sS'_bfd_elf_link_assign_sym_version'
p2581
(L134991792L
L134992665L
tp2582
sS'add_symbols'
p2583
(L135174016L
L135174079L
tp2584
sS'_bfd_elf_merge_symbol'
p2585
(L134987328L
L134990689L
tp2586
sS'bfd_link_add_undef'
p2587
(L134811376L
L134811460L
tp2588
sS'process_operands'
p2589
(L134697696L
L134705769L
tp2590
sS'new_frag'
p2591
(L134582064L
L134582096L
tp2592
sS'frag_new'
p2593
(L134575136L
L134575540L
tp2594
sS'obj_elf_ident'
p2595
(L134740608L
L134740751L
tp2596
sS's_weakref'
p2597
(L134627040L
L134627826L
tp2598
sS'do_scrub_chars'
p2599
(L134528816L
L134534065L
tp2600
sS'simple_dummy_undefined_symbol'
p2601
(L134856336L
L134856342L
tp2602
sS'finish_bundle'
p2603
(L134605808L
L134605932L
tp2604
sS'bfd_openr_next_archived_file'
p2605
(L135180672L
L135180739L
tp2606
sS'bfd_generic_is_local_label_name'
p2607
(L134786144L
L134786181L
tp2608
sS'elf32_r_sym'
p2609
(L134902960L
L134902968L
tp2610
sS'print_symbol_value_1'
p2611
(L134659648L
L134661319L
tp2612
sS'cache_btell'
p2613
(L134764080L
L134764146L
tp2614
sS'_bfd_pe_print_private_bfd_data_common'
p2615
(L135140224L
L135149193L
tp2616
sS'_bfd_elf_close_and_cleanup'
p2617
(L134947952L
L134948053L
tp2618
sS'_bfd_handle_already_linked'
p2619
(L134819808L
L134820467L
tp2620
sS'obj_elf_gnu_attribute'
p2621
(L134752928L
L134752941L
tp2622
sS'output_insn'
p2623
(L134692992L
L134696772L
tp2624
sS'bfd_emul_set_maxpagesize'
p2625
(L134761328L
L134761413L
tp2626
sS'scrub_from_sb'
p2627
(L134634848L
L134634917L
tp2628
sS'write_contents'
p2629
(L134665824L
L134666580L
tp2630
sS'eq_pointer'
p2631
(L135270240L
L135270255L
tp2632
sS'close_one'
p2633
(L134762416L
L134762502L
tp2634
sS'bfd_elf_get_obj_attr_int'
p2635
(L135048000L
L135048106L
tp2636
sS's_org'
p2637
(L134614256L
L134614334L
tp2638
sS'compress_data'
p2639
(L134536272L
L134536383L
tp2640
sS's_leb128'
p2641
(L134623136L
L134623757L
tp2642
sS'elf_i386_get_synthetic_symtab'
p2643
(L134871232L
L134871321L
tp2644
sS'output_file_create'
p2645
(L134604160L
L134604433L
tp2646
sS'bfd_putb16'
p2647
(L134784240L
L134784259L
tp2648
sS'string_need_1'
p2649
(L135263184L
L135263284L
tp2650
sS'elfcore_grok_nto_regs'
p2651
(L134906688L
L134907008L
tp2652
sS'bfd_putl32'
p2653
(L134785088L
L134785121L
tp2654
sS'd_append_char'
p2655
(L135227200L
L135227314L
tp2656
sS'bfd_elf32_core_file_matches_executable_p'
p2657
(L134903072L
L134903199L
tp2658
sS'obj_elf_version'
p2659
(L134742352L
L134742756L
tp2660
sS'aout_32_new_section_hook'
p2661
(L135086736L
L135086931L
tp2662
sS'_bfd_count_link_order_relocs'
p2663
(L134819488L
L134819526L
tp2664
sS'_bfd_pei_swap_aux_out'
p2665
(L135131584L
L135132291L
tp2666
sS'_bfd_elf_rel_local_sym'
p2667
(L134966160L
L134966232L
tp2668
sS'symbol_insert'
p2669
(L134642880L
L134643084L
tp2670
sS'srec_get_byte'
p2671
(L134823536L
L134823610L
tp2672
sS'_bfd_elf_init_reloc_shdr'
p2673
(L134907008L
L134907442L
tp2674
sS'bfd_fopen'
p2675
(L134788880L
L134789212L
tp2676
sS'string_append_0'
p2677
(L135203584L
L135203642L
tp2678
sS'elf_separate_stab_sections'
p2679
(L134739248L
L134739254L
tp2680
sS'_bfd_link_hash_newfunc'
p2681
(L134808976L
L134809080L
tp2682
sS'symbol_section_p'
p2683
(L134657616L
L134657661L
tp2684
sS'memory_bstat'
p2685
(L135191824L
L135191942L
tp2686
sS'bfd_elf32_swap_dyn_out'
p2687
(L134893360L
L134893421L
tp2688
sS'cfi_add_CFA_def_cfa'
p2689
(L134558144L
L134558190L
tp2690
sS'insert_info_hash_table'
p2691
(L134849312L
L134849409L
tp2692
sS'elf_i386_fbsd_post_process_headers'
p2693
(L134860624L
L134860629L
tp2694
sS's_float_space'
p2695
(L134616160L
L134616795L
tp2696
sS'internal_cplus_demangle'
p2697
(L135224800L
L135226546L
tp2698
sS'_bfd_elf_maybe_strip_eh_frame_hdr'
p2699
(L135061264L
L135061368L
tp2700
sS'sb_add_buffer'
p2701
(L134635344L
L134635400L
tp2702
sS'operand_type_check'
p2703
(L134683456L
L134683487L
tp2704
sS'xmalloc_failed'
p2705
(L135277296L
L135277419L
tp2706
sS'get_section'
p2707
(L134739856L
L134739929L
tp2708
sS'init_reloc_cookie'
p2709
(L134968496L
L134968770L
tp2710
sS'aout_32_read_minisymbols'
p2711
(L135093296L
L135093423L
tp2712
sS'symbol_equated_p'
p2713
(L134657664L
L134657706L
tp2714
sS'd_discriminator'
p2715
(L135227664L
L135227699L
tp2716
sS'scrub_from_string'
p2717
(L134606192L
L134606255L
tp2718
sS's_data'
p2719
(L134612832L
L134612891L
tp2720
sS'aout_32_final_link'
p2721
(L135095312L
L135102196L
tp2722
sS'_bfd_elfcore_strndup'
p2723
(L134948416L
L134948513L
tp2724
sS'select_cie_for_fde'
p2725
(L134555872L
L134557081L
tp2726
sS'elf_link_sort_cmp2'
p2727
(L134972688L
L134972751L
tp2728
sS'elf_i386_link_hash_table_create'
p2729
(L134871968L
L134872160L
tp2730
sS's_err'
p2731
(L134612896L
L134612943L
tp2732
sS'elf_link_sort_cmp1'
p2733
(L134972592L
L134972679L
tp2734
sS'_bfd_clear_contents'
p2735
(L134795728L
L134796123L
tp2736
sS'htab_delete'
p2737
(L135271712L
L135271831L
tp2738
sS'bfd_hide_sym_by_version'
p2739
(L134821824L
L134821871L
tp2740
sS'buy_and_read'
p2741
(L135105568L
L135105681L
tp2742
sS'obj_elf_popsection'
p2743
(L134747264L
L134747377L
tp2744
sS'comp_unit_find_nearest_line'
p2745
(L134849936L
L134850359L
tp2746
sS'bfd_check_overflow'
p2747
(L134792464L
L134792666L
tp2748
sS'bfd_zalloc'
p2749
(L134790816L
L134790875L
tp2750
sS'bfd_hash_rename'
p2751
(L134806688L
L134806883L
tp2752
sS'htab_create_alloc_ex'
p2753
(L135271104L
L135271277L
tp2754
sS'xstrerror'
p2755
(L135277696L
L135277778L
tp2756
sS'work_stuff_copy_to_from'
p2757
(L135204000L
L135204726L
tp2758
sS'_bfd_elf_write_corefile_contents'
p2759
(L134932464L
L134932469L
tp2760
sS'u16_mbtouc'
p2761
(L135126336L
L135126425L
tp2762
sS'_bfd_generic_link_hash_newfunc'
p2763
(L134809088L
L134809183L
tp2764
sS'd_cv_qualifiers'
p2765
(L135226752L
L135227017L
tp2766
sS'coff_print_symbol'
p2767
(L134776848L
L134778273L
tp2768
sS'sprint_value'
p2769
(L134603968L
L134604019L
tp2770
sS'skip_cfa_op'
p2771
(L135052800L
L135053200L
tp2772
sS's_struct'
p2773
(L134614336L
L134614486L
tp2774
sS'elfcore_write_prfpreg'
p2775
(L134963456L
L134963523L
tp2776
sS'_bfd_elf_strtab_free'
p2777
(L135050976L
L135051016L
tp2778
sS'simple_dummy_reloc_dangerous'
p2779
(L134856368L
L134856374L
tp2780
sS'obj_elf_section_change_hook'
p2781
(L134751936L
L134751957L
tp2782
sS'string_append'
p2783
(L135263296L
L135263354L
tp2784
sS'bfd_section_already_linked_table_lookup'
p2785
(L134819600L
L134819643L
tp2786
sS'dlang_identifier'
p2787
(L135266160L
L135267198L
tp2788
sS'd_encoding'
p2789
(L135256880L
L135258339L
tp2790
sS'bfd_is_undefined_symclass'
p2791
(L134801312L
L134801339L
tp2792
sS'bfd_link_hash_traverse'
p2793
(L134811232L
L134811376L
tp2794
sS'_bfd_coff_link_hash_newfunc'
p2795
(L135152848L
L135152958L
tp2796
sS'ihex_set_section_contents'
p2797
(L134835248L
L134835519L
tp2798
sS'as_warn_value_out_of_range'
p2799
(L134604032L
L134604085L
tp2800
sS'bfd_get_reloc_size'
p2801
(L134792304L
L134792452L
tp2802
sS'bfd_arch_bits_per_byte'
p2803
(L134757344L
L134757355L
tp2804
sS'd_demangle_callback'
p2805
(L135259536L
L135260097L
tp2806
sS'elf_vxworks_create_dynamic_sections'
p2807
(L134891584L
L134891772L
tp2808
sS'linux_link_hash_newfunc'
p2809
(L135069824L
L135069900L
tp2810
sS'generic_link_check_archive_element_no_collect'
p2811
(L134816144L
L134816169L
tp2812
sS'_bfd_elf_archive_symbol_lookup'
p2813
(L134997168L
L134997488L
tp2814
sS'_bfd_generic_get_section_contents_in_window'
p2815
(L134785936L
L134785967L
tp2816
sS'd_operator_name'
p2817
(L135250576L
L135251006L
tp2818
sS'S_CAN_BE_REDEFINED'
p2819
(L134646912L
L134646981L
tp2820
sS'_bfd_generic_link_hash_table_create'
p2821
(L134811552L
L134811644L
tp2822
sS'i386_elf_emit_arch_note'
p2823
(L134735920L
L134736190L
tp2824
sS'xstrdup'
p2825
(L135277632L
L135277682L
tp2826
sS'_bfd_stringtab_emit'
p2827
(L134807936L
L134808093L
tp2828
sS'read_print_statistics'
p2829
(L134633936L
L134633972L
tp2830
sS'comp_unit_contains_address'
p2831
(L134840400L
L134840438L
tp2832
sS'get_sym_from_input_line_and_check'
p2833
(L134744976L
L134745098L
tp2834
sS'aout_link_includes_newfunc'
p2835
(L135075984L
L135076074L
tp2836
sS'bfd_elf_set_dt_needed_name'
p2837
(L135021856L
L135021901L
tp2838
sS'elf_i386_allocate_local_dynrelocs'
p2839
(L134885040L
L134885126L
tp2840
sS'tekhex_canonicalize_symtab'
p2841
(L134829920L
L134829975L
tp2842
sS'_bfd_stringtab_free'
p2843
(L134807568L
L134807607L
tp2844
sS'coff_find_nearest_line_with_names'
p2845
(L134778320L
L134779651L
tp2846
sS'_bfd_abort'
p2847
(L134758336L
L134758532L
tp2848
sS'bfd_dont_truncate_arname'
p2849
(L135185856L
L135186026L
tp2850
sS'bfd_elf_link_add_symbols'
p2851
(L134997488L
L135010748L
tp2852
sS'i386_att_operand'
p2853
(L134688880L
L134692308L
tp2854
sS'getpwd'
p2855
(L135269888L
L135270171L
tp2856
sS'aout_32_some_aout_object_p'
p2857
(L135083456L
L135084246L
tp2858
sS'bfd_reloc_name_lookup'
p2859
(L134796144L
L134796159L
tp2860
sS'md_estimate_size_before_relax'
p2861
(L134729280L
L134729880L
tp2862
sS'elf_swap_shdr_out'
p2863
(L134895952L
L134896147L
tp2864
sS'bfd_elf_set_dyn_lib_class'
p2865
(L135021968L
L135022013L
tp2866
sS'elf_i386_local_htab_eq'
p2867
(L134860544L
L134860582L
tp2868
sS'_bfd_elf_rela_local_sym'
p2869
(L134965984L
L134966148L
tp2870
sS'generic_link_add_symbols'
p2871
(L134815536L
L134815625L
tp2872
sS'strrevcmp_align'
p2873
(L135198304L
L135198431L
tp2874
sS'dot_cfi_sections'
p2875
(L134553024L
L134553323L
tp2876
sS'aout_link_add_symbols'
p2877
(L135074768L
L135075980L
tp2878
sS'_bfd_elf_copy_obj_attributes'
p2879
(L135048624L
L135048991L
tp2880
sS'bfd_hash_insert'
p2881
(L134805824L
L134806342L
tp2882
sS'bfd_zmalloc2'
p2883
(L134783856L
L134783992L
tp2884
sS'_bfd_elf_strtab_delref'
p2885
(L135051376L
L135051532L
tp2886
sS'symbolsrec_object_p'
p2887
(L134828432L
L134828676L
tp2888
sS's_rva'
p2889
(L134622912L
L134622926L
tp2890
sS'bfd_init_section_compress_status'
p2891
(L134858800L
L134858974L
tp2892
sS'coff_write_symbols'
p2893
(L134769424L
L134771093L
tp2894
sS'simple_dummy_warning'
p2895
(L134856320L
L134856326L
tp2896
sS'process_suffix'
p2897
(L134685696L
L134688876L
tp2898
sS'number_to_chars_littleendian'
p2899
(L134675088L
L134675157L
tp2900
sS'd_growable_string_callback_adapter'
p2901
(L135228976L
L135229169L
tp2902
sS'nacl_modify_segment_map'
p2903
(L134889904L
L134890737L
tp2904
sS'_bfd_elf_link_hash_fixup_symbol'
p2905
(L134995648L
L134995691L
tp2906
sS'signed_cons'
p2907
(L134676320L
L134676368L
tp2908
sS'xmalloc_set_program_name'
p2909
(L135277232L
L135277285L
tp2910
sS'strrevcmp_1'
p2911
(L135198192L
L135198298L
tp2912
sS'as_tsktsk'
p2913
(L134602080L
L134602150L
tp2914
sS'build_group_lists'
p2915
(L134744480L
L134744691L
tp2916
sS'first_phase'
p2917
(L134831008L
L134831906L
tp2918
sS'S_GET_SEGMENT'
p2919
(L134647136L
L134647175L
tp2920
sS'S_SET_WEAK'
p2921
(L134652960L
L134653013L
tp2922
sS'write_value'
p2923
(L135053840L
L135053961L
tp2924
sS'coff_mangle_symbols'
p2925
(L134768432L
L134768817L
tp2926
sS'coff_print_aux'
p2927
(L135107968L
L135108046L
tp2928
sS'_bfd_append_relative_path'
p2929
(L135179776L
L135179892L
tp2930
sS'styp_to_sec_flags'
p2931
(L135111824L
L135113936L
tp2932
sS'elf_vxworks_add_dynamic_entries'
p2933
(L134892368L
L134892591L
tp2934
sS'get_linefile_number'
p2935
(L134608704L
L134608774L
tp2936
sS'register_dependency'
p2937
(L134542160L
L134542268L
tp2938
sS'rsrc_write_directory'
p2939
(L135123072L
L135123558L
tp2940
sS'_bfd_coff_final_link'
p2941
(L135167184L
L135171969L
tp2942
sS'bfd_elf32_core_file_pid'
p2943
(L134903040L
L134903060L
tp2944
sS'_bfd_generic_link_split_section'
p2945
(L134819536L
L134819539L
tp2946
sS'eh_frame_convert_frag'
p2947
(L134561744L
L134562144L
tp2948
sS'elf_link_renumber_local_hash_table_dynsyms'
p2949
(L134972160L
L134972196L
tp2950
sS'_bfd_elf_hash_symbol'
p2951
(L135010752L
L135010808L
tp2952
sS'append'
p2953
(L134669584L
L134669631L
tp2954
sS'_bfd_coff_free_symbols'
p2955
(L134774304L
L134774407L
tp2956
sS'add_line_info'
p2957
(L134839536L
L134840310L
tp2958
sS'_bfd_elf_swap_verdef_out'
p2959
(L134908960L
L134909120L
tp2960
sS'aout_32_swap_std_reloc_in'
p2961
(L135091056L
L135091653L
tp2962
sS'elf_i386_hash_symbol'
p2963
(L134860640L
L134860675L
tp2964
sS'get_absolute_expression_and_terminator'
p2965
(L134628448L
L134628485L
tp2966
sS'get_count'
p2967
(L135202208L
L135202341L
tp2968
sS'dlang_call_convention'
p2969
(L135263360L
L135263516L
tp2970
sS'dot_cfi_endproc'
p2971
(L134557168L
L134557252L
tp2972
sS'bfd_elf_lookup_section_flags'
p2973
(L135043648L
L135044038L
tp2974
sS'bfd_core_file_pid'
p2975
(L135194064L
L135194118L
tp2976
sS'd_find_pack'
p2977
(L135228736L
L135228825L
tp2978
sS'_bfd_elf_link_sec_merge_syms'
p2979
(L134976272L
L134976376L
tp2980
sS'bfd_get_section_by_name_if'
p2981
(L134798144L
L134798292L
tp2982
sS'higher_prime_index'
p2983
(L135270384L
L135270519L
tp2984
sS'relax_inc_line_addr'
p2985
(L134544640L
L134544761L
tp2986
sS'elf_copy_symbol_attributes'
p2987
(L134740400L
L134740601L
tp2988
sS'concat_filename'
p2989
(L134842832L
L134843271L
tp2990
sS'dummy_reloc16_extra_cases'
p2991
(L135103664L
L135103695L
tp2992
sS'hash_new_sized'
p2993
(L134577136L
L134577356L
tp2994
sS'frag_room'
p2995
(L134576112L
L134576125L
tp2996
sS'coff_get_reloc_upper_bound'
p2997
(L134776080L
L134776139L
tp2998
sS'bfd_generic_openr_next_archived_file'
p2999
(L135180752L
L135180905L
tp3000
sS'listing_file'
p3001
(L134589888L
L134589898L
tp3002
sS'print_fixup'
p3003
(L134675216L
L134675999L
tp3004
sS'_bfd_coff_internal_syment_name'
p3005
(L134774144L
L134774292L
tp3006
sS'_bfd_new_bfd_contained_in'
p3007
(L134788656L
L134788756L
tp3008
sS'bfd_getl_signed_64'
p3009
(L134784896L
L134785038L
tp3010
sS'_bfd_elf_gc_mark_fdes'
p3011
(L135059104L
L135059253L
tp3012
sS'symbol_set_frag'
p3013
(L134656592L
L134656661L
tp3014
sS'd_abi_tags'
p3015
(L135227920L
L135227993L
tp3016
sS'coff_bfd_make_debug_symbol'
p3017
(L134776208L
L134776316L
tp3018
sS'_bfd_coff_get_external_symbols'
p3019
(L134771552L
L134771719L
tp3020
sS'_bfd_dwarf1_find_nearest_line'
p3021
(L135067744L
L135068309L
tp3022
sS'bfd_set_section_size'
p3023
(L134799584L
L134799642L
tp3024
sS'bfd_get_next_section_by_name'
p3025
(L134797968L
L134798041L
tp3026
sS'dos_lbasename'
p3027
(L135274160L
L135274233L
tp3028
sS'elf_i386_get_plt_sym_val'
p3029
(L134871328L
L134871782L
tp3030
sS'coff_swap_reloc_in'
p3031
(L135102240L
L135102307L
tp3032
sS'sec_merge_add'
p3033
(L135199040L
L135199132L
tp3034
sS'demangle_template'
p3035
(L135208624L
L135210225L
tp3036
sS'symbol_remove'
p3037
(L134642752L
L134642879L
tp3038
sS'coff_get_symtab_upper_bound'
p3039
(L134766688L
L134766743L
tp3040
sS'bfd_elf_size_dynamic_sections'
p3041
(L135011376L
L135017047L
tp3042
sS'hex_float'
p3043
(L134604832L
L134605264L
tp3044
sS'macro_init'
p3045
(L134596160L
L134596223L
tp3046
sS'writesym'
p3047
(L134830800L
L134830919L
tp3048
sS'_bfd_elf_parse_attributes'
p3049
(L135048992L
L135049689L
tp3050
sS'_bfd_ar_sizepad'
p3051
(L135177936L
L135178133L
tp3052
sS'_bfd_nocore_core_file_pid'
p3053
(L134783184L
L134783205L
tp3054
sS'expr_build_uconstant'
p3055
(L134564176L
L134564223L
tp3056
sS'htab_empty'
p3057
(L135271840L
L135272075L
tp3058
sS'compute_bucket_count'
p3059
(L134968848L
L134969439L
tp3060
sS'_bfd_coff_read_internal_relocs'
p3061
(L134766864L
L134767392L
tp3062
sS'resolve_symbol'
p3063
(L134979904L
L134980235L
tp3064
sS'_bfd_elf_canonicalize_reloc'
p3065
(L134940384L
L134940505L
tp3066
sS'_bfd_elf_single_rel_hdr'
p3067
(L134915456L
L134915528L
tp3068
sS'elfcore_write_prstatus'
p3069
(L134963216L
L134963444L
tp3070
sS'elf_s_set_align'
p3071
(L134739584L
L134739610L
tp3072
sS'get_symbol_end'
p3073
(L134566384L
L134566507L
tp3074
sS'_bfd_pei_swap_lineno_out'
p3075
(L135132368L
L135132432L
tp3076
sS'd_print_comp_inner'
p3077
(L135229184L
L135242673L
tp3078
sS'_bfd_coff_link_add_symbols'
p3079
(L135157360L
L135157440L
tp3080
sS'elf_obj_read_begin_hook'
p3081
(L134739184L
L134739186L
tp3082
sS'bfd_link_hash_lookup'
p3083
(L134809312L
L134809387L
tp3084
sS'resolve_local_symbol_values'
p3085
(L134643088L
L134643116L
tp3086
sS's_app_line'
p3087
(L134629008L
L134629449L
tp3088
sS'aout_32_sizeof_headers'
p3089
(L135094848L
L135094862L
tp3090
sS'bfd_elf32_core_file_failing_signal'
p3091
(L134903008L
L134903027L
tp3092
sS'_bfd_elf_symbol_refs_local_p'
p3093
(L134996080L
L134996259L
tp3094
sS'simple_dummy_einfo'
p3095
(L134856416L
L134856418L
tp3096
sS'x86_address_bytes'
p3097
(L134728864L
L134728903L
tp3098
sS'_bfd_elf_strtab_offset'
p3099
(L135051760L
L135051920L
tp3100
sS'bfd_printable_name'
p3101
(L134756960L
L134756971L
tp3102
sS'aout_32_link_hash_newfunc'
p3103
(L135074656L
L135074754L
tp3104
sS'elf_i386_adjust_dynamic_symbol'
p3105
(L134870656L
L134871224L
tp3106
sS'dupargv'
p3107
(L135260800L
L135260970L
tp3108
sS'_bfd_elf_make_dynamic_reloc_section'
p3109
(L135046272L
L135046434L
tp3110
sS's_mexit'
p3111
(L134608384L
L134608469L
tp3112
sS'elf_link_output_sym'
p3113
(L134975856L
L134976268L
tp3114
sS'opncls_bmmap'
p3115
(L134786960L
L134786966L
tp3116
sS'bfd_sections_find_if'
p3117
(L134799488L
L134799572L
tp3118
sS'_bfd_coff_is_local_label_name'
p3119
(L134778288L
L134778314L
tp3120
sS'bfd_arch_i386_fill'
p3121
(L135175456L
L135175649L
tp3122
sS'S_IS_WEAK'
p3123
(L134646048L
L134646142L
tp3124
sS'vma_compare'
p3125
(L135053600L
L135053655L
tp3126
sS's_mri'
p3127
(L134614160L
L134614252L
tp3128
sS'elfcore_write_s390_prefix'
p3129
(L134964176L
L134964243L
tp3130
sS'write_print_statistics'
p3131
(L134675168L
L134675212L
tp3132
sS'output_file_close'
p3133
(L134604448L
L134604577L
tp3134
sS'handle_large_common'
p3135
(L134683104L
L134683366L
tp3136
sS'xrealloc'
p3137
(L135277552L
L135277618L
tp3138
sS'linux_tally_symbols'
p3139
(L135072464L
L135073194L
tp3140
sS'hash_replace'
p3141
(L134577888L
L134577972L
tp3142
sS'null_error_handler'
p3143
(L134764880L
L134764882L
tp3144
sS'cfi_parse_reg'
p3145
(L134552352L
L134552436L
tp3146
sS'_bfd_generic_link_just_syms'
p3147
(L134811680L
L134811714L
tp3148
sS'opncls_bstat'
p3149
(L134786976L
L134787110L
tp3150
sS'_bfd_elf_attr_strdup'
p3151
(L135048112L
L135048170L
tp3152
sS'_bfd_nocore_core_file_failing_signal'
p3153
(L134783152L
L134783173L
tp3154
sS's_bundle_unlock'
p3155
(L134614848L
L134615162L
tp3156
sS'elf_adjust_symtab'
p3157
(L134743856L
L134744465L
tp3158
sS'end_repeat'
p3159
(L134610992L
L134611055L
tp3160
sS'eval_symbol'
p3161
(L134980240L
L134985203L
tp3162
sS'binary_get_symbol_info'
p3163
(L134828736L
L134828757L
tp3164
sS'cplus_demangle_init_info'
p3165
(L135260480L
L135260571L
tp3166
sS'bfd_hash_table_init'
p3167
(L134805744L
L134805788L
tp3168
sS'reconcat'
p3169
(L135263008L
L135263173L
tp3170
sS'elf_vxworks_gott_symbol_p'
p3171
(L134891424L
L134891504L
tp3172
sS'get_any_string'
p3173
(L134593952L
L134595024L
tp3174
sS'do_formals'
p3175
(L134595024L
L134596159L
tp3176
sS'generate_lineno_debug'
p3177
(L134631248L
L134631285L
tp3178
sS's_lcomm_bytes'
p3179
(L134626288L
L134626317L
tp3180
sS'coff_section_from_bfd_index'
p3181
(L134766608L
L134766686L
tp3182
sS'coff_get_symbol_info'
p3183
(L134776320L
L134776389L
tp3184
sS'bfd_0'
p3185
(L134782960L
L134782963L
tp3186
sS'_bfd_elf_link_lookup_local_dynindx'
p3187
(L134993824L
L134993886L
tp3188
sS'bfd_generic_merge_sections'
p3189
(L134796512L
L134796518L
tp3190
sS'i386_need_index_operator'
p3191
(L134738432L
L134738441L
tp3192
sS'bfd_malloc2'
p3193
(L134783312L
L134783423L
tp3194
sS'get_line_sb'
p3195
(L134606928L
L134607060L
tp3196
sS'_bfd_generic_set_section_contents'
p3197
(L134785968L
L134786084L
tp3198
sS's_purgem'
p3199
(L134615168L
L134615313L
tp3200
sS'elfcore_write_prpsinfo'
p3201
(L134962128L
L134962411L
tp3202
sS'set_code_flag'
p3203
(L134676576L
L134676587L
tp3204
sS'_bfd_pei_swap_lineno_in'
p3205
(L135132304L
L135132355L
tp3206
sS'elf_swap_ehdr_out'
p3207
(L134895392L
L134895728L
tp3208
sS'initialize_cframe'
p3209
(L134536800L
L134536950L
tp3210
sS'__divdi3'
p3211
(L135277792L
L135278162L
tp3212
sS'out'
p3213
(L134830448L
L134830795L
tp3214
sS'_bfd_generic_link_add_one_symbol'
p3215
(L134812544L
L134815026L
tp3216
sS'bfd_putb32'
p3217
(L134785040L
L134785075L
tp3218
sS'demangle_signature'
p3219
(L135220528L
L135222799L
tp3220
sS'record_alignment'
p3221
(L134669632L
L134669657L
tp3222
sS'nacl_final_write_processing'
p3223
(L134891072L
L134891411L
tp3224
sS'report_op_error'
p3225
(L134640880L
L134641724L
tp3226
sS'_bfd_elf_swap_vernaux_out'
p3227
(L134909600L
L134909720L
tp3228
sS'bfd_putl16'
p3229
(L134784272L
L134784289L
tp3230
sS'S_SET_VOLATILE'
p3231
(L134655776L
L134655821L
tp3232
sS'binary_set_section_contents'
p3233
(L134829312L
L134829576L
tp3234
sS'bfd_plugin_canonicalize_symtab'
p3235
(L135175104L
L135175409L
tp3236
sS'memory_bmmap'
p3237
(L135191808L
L135191814L
tp3238
sS'_bfd_elf_write_section_eh_frame_hdr'
p3239
(L135065440L
L135066442L
tp3240
sS'bfd_bwrite'
p3241
(L135192976L
L135193088L
tp3242
sS'bfd_get_sign_extend_vma'
p3243
(L134759968L
L134760226L
tp3244
sS'listing_title'
p3245
(L134590240L
L134590545L
tp3246
sS'demand_empty_rest_of_line'
p3247
(L134611616L
L134611812L
tp3248
sS'subseg_get'
p3249
(L134639696L
L134639839L
tp3250
sS'coff_write_object_contents'
p3251
(L135114144L
L135118441L
tp3252
sS'symbol_clear_list_pointers'
p3253
(L134642656L
L134642738L
tp3254
sS'cfi_add_CFA_undefined'
p3255
(L134558352L
L134558378L
tp3256
sS'get_absolute_expression'
p3257
(L134609216L
L134609230L
tp3258
sS's_end'
p3259
(L134607872L
L134607994L
tp3260
sS'bfd_0u'
p3261
(L134782976L
L134782979L
tp3262
sS'bfd_0l'
p3263
(L134782992L
L134782995L
tp3264
sS'get_program_header_size'
p3265
(L134905376L
L134905833L
tp3266
sS'elfcore_write_s390_todcmp'
p3267
(L134963936L
L134964003L
tp3268
sS'_bfd_coff_debug_merge_hash_newfunc'
p3269
(L135152960L
L135153046L
tp3270
sS'd_template_args'
p3271
(L135255520L
L135255794L
tp3272
sS'elf_sym_name_compare'
p3273
(L134968320L
L134968347L
tp3274
sS'ihex_write_record'
p3275
(L134834032L
L134834405L
tp3276
sS'_bfd_get_gp_value'
p3277
(L134760432L
L134760506L
tp3278
sS'coff_canonicalize_reloc'
p3279
(L135110960L
L135111816L
tp3280
sS'elf_final_link_free'
p3281
(L134985216L
L134985461L
tp3282
sS'get_recorded_alignment'
p3283
(L134669664L
L134669683L
tp3284
sS'elf_link_check_versioned_symbol'
p3285
(L134974384L
L134975256L
tp3286
sS'init_reloc_cookie_for_section'
p3287
(L134994704L
L134994925L
tp3288
sS'is_gnu_v3_mangled_ctor'
p3289
(L135260704L
L135260739L
tp3290
sS'coff_object_p'
p3291
(L134773680L
L134774144L
tp3292
sS'make_relative_prefix_ignore_links'
p3293
(L135276144L
L135276169L
tp3294
sS'bfd_emul_set_commonpagesize'
p3295
(L134761488L
L134761573L
tp3296
sS'bfd_getb_signed_16'
p3297
(L134784176L
L134784201L
tp3298
sS'_bfd_dummy_target'
p3299
(L134783216L
L134783237L
tp3300
sS'cache_bseek'
p3301
(L134763984L
L134764073L
tp3302
sS'gnu_special'
p3303
(L135223216L
L135224791L
tp3304
sS'tekhex_sizeof_headers'
p3305
(L134830144L
L134830147L
tp3306
sS'S_IS_WEAKREFD'
p3307
(L134646192L
L134646235L
tp3308
sS'try_macro'
p3309
(L134605264L
L134605410L
tp3310
sS'arange_add'
p3311
(L134840704L
L134840893L
tp3312
sS'app_pop'
p3313
(L134528560L
L134528804L
tp3314
sS'bfd_set_reloc'
p3315
(L134758224L
L134758243L
tp3316
sS'symbol_begin'
p3317
(L134658176L
L134658281L
tp3318
sS'input_scrub_pop'
p3319
(L134580240L
L134580403L
tp3320
sS'S_IS_WEAKREFR'
p3321
(L134646144L
L134646186L
tp3322
sS'size_inc_line_addr'
p3323
(L134544416L
L134544592L
tp3324
sS'bfd_plugin_get_symtab_upper_bound'
p3325
(L135173648L
L135173712L
tp3326
sS'bfd_plugin_get_symbol_info'
p3327
(L135173936L
L135173957L
tp3328
sS'real_fseek'
p3329
(L135192688L
L135192693L
tp3330
sS'concat_copy2'
p3331
(L135262752L
L135262838L
tp3332
sS'srec_canonicalize_symtab'
p3333
(L134821904L
L134822081L
tp3334
sS'set_zero_frag'
p3335
(L134606576L
L134606618L
tp3336
sS'_bfd_free_cached_info'
p3337
(L134788768L
L134788872L
tp3338
sS'macro_expr'
p3339
(L134534080L
L134534203L
tp3340
sS'trad_unix_core_file_p'
p3341
(L135175888L
L135176518L
tp3342
sS'elf_vxworks_emit_relocs'
p3343
(L134891856L
L134892252L
tp3344
sS'symbol_get_bfdsym'
p3345
(L134657952L
L134657997L
tp3346
sS'set_cplus_marker_for_demangling'
p3347
(L135204880L
L135204890L
tp3348
sS'dwarf2_init'
p3349
(L134547952L
L134547963L
tp3350
sS'ihex_object_p'
p3351
(L134835744L
L134838142L
tp3352
sS'_bfd_elf_match_sections_by_type'
p3353
(L135022512L
L135022602L
tp3354
sS'emit_stringtab'
p3355
(L135074528L
L135074653L
tp3356
sS'_bfd_default_error_handler'
p3357
(L134758880L
L134759902L
tp3358
sS'i386_mach'
p3359
(L134715952L
L134716197L
tp3360
sS'_bfd_pe_bfd_copy_private_bfd_data_common'
p3361
(L135149200L
L135149755L
tp3362
sS'_bfd_elf_gc_mark_rsec'
p3363
(L135040496L
L135040741L
tp3364
sS'_bfd_coff_link_hash_table_init'
p3365
(L135157104L
L135157254L
tp3366
sS'elf_i386_grok_psinfo'
p3367
(L134860736L
L134861098L
tp3368
sS'obj_attr_size'
p3369
(L135046832L
L135046928L
tp3370
sS'sb_add_char'
p3371
(L134635232L
L134635275L
tp3372
sS'_bfd_elf_link_size_reloc_section'
p3373
(L134975264L
L134975375L
tp3374
sS'cache_bflush'
p3375
(L134763888L
L134763976L
tp3376
sS'symbol_mark_mri_common'
p3377
(L134657216L
L134657261L
tp3378
sS'core_file_matches_executable_p'
p3379
(L135194128L
L135194198L
tp3380
sS'macro_set_alternate'
p3381
(L134596224L
L134596234L
tp3382
sS'd_substitution'
p3383
(L135228000L
L135228507L
tp3384
sS's_macro'
p3385
(L134607360L
L134607871L
tp3386
sS'elf_renumber_gnu_hash_syms'
p3387
(L134972320L
L134972588L
tp3388
sS'as_fatal'
p3389
(L134602736L
L134602885L
tp3390
sS'objalloc_create'
p3391
(L135276176L
L135276272L
tp3392
sS'sort_by_secaddr'
p3393
(L135102704L
L135102738L
tp3394
sS'htab_find_slot'
p3395
(L135272928L
L135272976L
tp3396
sS'elf_frob_file_before_adjust'
p3397
(L134744704L
L134744965L
tp3398
sS'free_split_directories'
p3399
(L135274384L
L135274440L
tp3400
sS'bfd_default_reloc_type_lookup'
p3401
(L134796160L
L134796312L
tp3402
sS'relax_segment'
p3403
(L134670064L
L134672298L
tp3404
sS'size_seg'
p3405
(L134664400L
L134665315L
tp3406
sS'_bfd_elf_link_omit_section_dynsym'
p3407
(L134993888L
L134994082L
tp3408
sS'd_append_string'
p3409
(L135228832L
L135228975L
tp3410
sS'_bfd_elf_merge_unknown_attribute_low'
p3411
(L135050112L
L135050324L
tp3412
sS'symbol_print_statistics'
p3413
(L134661632L
L134661737L
tp3414
sS'd_name'
p3415
(L135255808L
L135256869L
tp3416
sS'symbolsrec_write_object_contents'
p3417
(L134825584L
L134825598L
tp3418
sS'expr_symbol_where'
p3419
(L134564112L
L134564173L
tp3420
sS'htab_create'
p3421
(L135271552L
L135271619L
tp3422
sS'number_to_chars_bigendian'
p3423
(L134675008L
L134675078L
tp3424
sS'coff_sizeof_headers'
p3425
(L134779840L
L134779896L
tp3426
sS'_bfd_generic_get_section_contents'
p3427
(L134785584L
L134785931L
tp3428
sS'bfd_fill_in_gnu_debuglink_section'
p3429
(L134791888L
L134792295L
tp3430
sS'elf_swap_ehdr_in'
p3431
(L134895104L
L134895379L
tp3432
sS'bfd_plugin_bfd_copy_private_bfd_data'
p3433
(L135173904L
L135173936L
tp3434
sS'_bfd_elf_link_find_version_dependencies'
p3435
(L134974032L
L134974381L
tp3436
sS'find_debug_info'
p3437
(L134840560L
L134840694L
tp3438
sS'symbol_temp_make'
p3439
(L134648240L
L134648259L
tp3440
sS's_ifdef'
p3441
(L134536960L
L134537564L
tp3442
sS'move_section_contents'
p3443
(L134831920L
L134832177L
tp3444
sS'dollar_label_defined'
p3445
(L134643456L
L134643593L
tp3446
sS'adjust_relative_path'
p3447
(L135177040L
L135177724L
tp3448
sS'parse_register'
p3449
(L134679792L
L134680044L
tp3450
sS'generic_force_reloc'
p3451
(L134667840L
L134667905L
tp3452
sS'find_chunk'
p3453
(L134830160L
L134830298L
tp3454
sS'_bfd_elf_gc_mark_reloc'
p3455
(L135041184L
L135041304L
tp3456
sS'bfd_emul_get_commonpagesize'
p3457
(L134761424L
L134761474L
tp3458
sS'hash_pointer'
p3459
(L135270256L
L135270381L
tp3460
sS'copy_name'
p3461
(L134764896L
L134764992L
tp3462
sS'htab_expand'
p3463
(L135270528L
L135271059L
tp3464
sS'binary_get_section_contents'
p3465
(L134829584L
L134829670L
tp3466
sS'md_begin'
p3467
(L134716208L
L134716873L
tp3468
sS'symbol_set_bfdsym'
p3469
(L134658000L
L134658053L
tp3470
sS'bfd_elf32_swap_phdr_in'
p3471
(L134898272L
L134898471L
tp3472
sS'sec_merge_hash_lookup'
p3473
(L135198560L
L135199036L
tp3474
sS'string_need'
p3475
(L135203280L
L135203380L
tp3476
sS'close_output_file'
p3477
(L134534496L
L134534538L
tp3478
sS'_bfd_elf_set_section_contents'
p3479
(L134947328L
L134947473L
tp3480
sS'aout_32_machine_type'
p3481
(L135084368L
L135085045L
tp3482
sS'frame_dummy'
p3483
(L134528000L
L134528045L
tp3484
sS'read_attribute_value'
p3485
(L134841376L
L134842820L
tp3486
sS'd_count_templates_scopes'
p3487
(L135227104L
L135227200L
tp3488
sS'dlang_function_args'
p3489
(L135268832L
L135269143L
tp3490
sS's_space'
p3491
(L134621392L
L134622422L
tp3492
sS'snarf_numeric_literal'
p3493
(L135203760L
L135203923L
tp3494
sS'bfd_write_bigendian_4byte_int'
p3495
(L134784000L
L134784110L
tp3496
sS'getsym'
p3497
(L134829808L
L134829914L
tp3498
sS'hex_init'
p3499
(L135274096L
L135274098L
tp3500
sS'tekhex_object_p'
p3501
(L134833648L
L134833866L
tp3502
sS'aout_32_slurp_reloc_table'
p3503
(L135091664L
L135092176L
tp3504
sS'bfd_set_gp_size'
p3505
(L134760352L
L134760430L
tp3506
sS'set_gas_hash_table_size'
p3507
(L134577104L
L134577128L
tp3508
sS'bfd_follow_gnu_debugaltlink'
p3509
(L134791696L
L134791722L
tp3510
sS'coff_link_output_has_begun'
p3511
(L135102816L
L135102831L
tp3512
sS'_bfd_fix_excluded_sec_syms'
p3513
(L134821136L
L134821174L
tp3514
sS'bfd_putl64'
p3515
(L134785216L
L134785293L
tp3516
sS'tekhex_set_section_contents'
p3517
(L134832192L
L134832265L
tp3518
sS'forget_types'
p3519
(L135203008L
L135203092L
tp3520
sS'linux_finish_dynamic_link'
p3521
(L135068704L
L135069666L
tp3522
sS'cond_finish_check'
p3523
(L134541360L
L134541593L
tp3524
sS'dlang_value'
p3525
(L135265072L
L135266152L
tp3526
sS'_bfd_default_assert_handler'
p3527
(L134757760L
L134757767L
tp3528
sS'S_SET_VALUE'
p3529
(L134645808L
L134645893L
tp3530
sS'bfd_get_section_by_name'
p3531
(L134797904L
L134797964L
tp3532
sS'is_it_end_of_statement'
p3533
(L134630832L
L134630865L
tp3534
sS'_bfd_elf_swap_versym_out'
p3535
(L134909760L
L134909791L
tp3536
sS'_bfd_elfcore_make_pseudosection'
p3537
(L134948080L
L134948409L
tp3538
sS'add_debug_prefix_map'
p3539
(L134634384L
L134634537L
tp3540
sS'bfd_plugin_bfd_copy_private_section_data'
p3541
(L135173872L
L135173904L
tp3542
sS'_bfd_link_hash_table_init'
p3543
(L134809184L
L134809305L
tp3544
sS'bfd_i386linux_size_dynamic_sections'
p3545
(L135073888L
L135074111L
tp3546
sS'input_scrub_push'
p3547
(L134579856L
L134580082L
tp3548
sS'_bfd_elf_swap_verneed_in'
p3549
(L134909248L
L134909346L
tp3550
sS'comp_unit_maybe_decode_line_info'
p3551
(L134848784L
L134848899L
tp3552
sS'_bfd_elf_is_function_type'
p3553
(L134967376L
L134967393L
tp3554
sS'S_SET_THREAD_LOCAL'
p3555
(L134655472L
L134655720L
tp3556
sS'aout_32_canonicalize_symtab'
p3557
(L135089696L
L135089796L
tp3558
sS'compress_init'
p3559
(L134536192L
L134536270L
tp3560
sS'bfd_elf_perform_complex_relocation'
p3561
(L135022608L
L135023415L
tp3562
sS'_bfd_elf_fixup_group_sections'
p3563
(L134933248L
L134933452L
tp3564
sS'tekhex_write_object_contents'
p3565
(L134832592L
L134833317L
tp3566
sS'writeargv'
p3567
(L135261616L
L135261778L
tp3568
sS'stash_maybe_update_info_hash_tables'
p3569
(L134849424L
L134849934L
tp3570
sS'simple_dummy_unattached_reloc'
p3571
(L134856384L
L134856390L
tp3572
sS'__do_global_dtors_aux'
p3573
(L134527968L
L134527998L
tp3574
sS'remember_Btype'
p3575
(L135202944L
L135203007L
tp3576
sS'obj_elf_text'
p3577
(L134741760L
L134741785L
tp3578
sS'_bfd_elf_merge_object_attributes'
p3579
(L135049696L
L135050098L
tp3580
sS'trad_unix_core_file_failing_command'
p3581
(L135175840L
L135175869L
tp3582
sS's_else'
p3583
(L134540160L
L134540571L
tp3584
sS'read_section'
p3585
(L134838864L
L134839322L
tp3586
sS'_bfd_archive_coff_construct_extended_name_table'
p3587
(L135184832L
L135184871L
tp3588
sS'bfd_cache_delete'
p3589
(L134762304L
L134762414L
tp3590
sS'elf_append_rela'
p3591
(L135046528L
L135046648L
tp3592
sS'had_errors'
p3593
(L134602064L
L134602070L
tp3594
sS'_bfd_pei_final_link_postscript'
p3595
(L135149984L
L135152837L
tp3596
sS'simple_restore_output_info'
p3597
(L134856496L
L134856530L
tp3598
sS'cfi_add_CFA_restore_state'
p3599
(L134558480L
L134558576L
tp3600
sS'bfd_plugin_bfd_copy_private_symbol_data'
p3601
(L135173840L
L135173872L
tp3602
sS'delete_non_B_K_work_stuff'
p3603
(L135203104L
L135203270L
tp3604
sS'bfd_bsd_truncate_arname'
p3605
(L135185728L
L135185848L
tp3606
sS'_bfd_set_gp_value'
p3607
(L134760512L
L134760627L
tp3608
sS'as_assert'
p3609
(L134602896L
L134603171L
tp3610
sS'input_scrub_insert_file'
p3611
(L134634096L
L134634141L
tp3612
sS'pe_mkobject_hook'
p3613
(L135105872L
L135106089L
tp3614
sS'string_appends'
p3615
(L135203936L
L135203996L
tp3616
sS'symbol_clone'
p3617
(L134652368L
L134652950L
tp3618
sS'binary_mkobject'
p3619
(L134828688L
L134828694L
tp3620
sS'string_appendn'
p3621
(L135203392L
L135203440L
tp3622
sS'cplus_demangle_fill_dtor'
p3623
(L135248368L
L135248428L
tp3624
sS'_bfd_dwarf2_slurp_debug_info'
p3625
(L134850944L
L134852571L
tp3626
sS'bfd_section_from_shdr'
p3627
(L134956976L
L134961281L
tp3628
sS'subseg_set'
p3629
(L134639936L
L134639986L
tp3630
sS'set_check'
p3631
(L134677424L
L134677749L
tp3632
sS'bfd_cache_close_all'
p3633
(L134762768L
L134762846L
tp3634
sS's_lcomm_internal'
p3635
(L134611472L
L134611572L
tp3636
sS'_bfd_merge_sections_free'
p3637
(L135201984L
L135202033L
tp3638
sS'bfd_new_link_order'
p3639
(L134818160L
L134818236L
tp3640
sS'fix_at_start'
p3641
(L134667760L
L134667829L
tp3642
sS's_abort'
p3643
(L134604784L
L134604823L
tp3644
sS'elf_link_input_bfd'
p3645
(L135023680L
L135029596L
tp3646
sS'elf_add_dt_needed_tag'
p3647
(L134996592L
L134997007L
tp3648
sS'symbol_get_obj'
p3649
(L134658064L
L134658109L
tp3650
sS'_bfd_elf_relocs_compatible'
p3651
(L134997024L
L134997087L
tp3652
sS'elfcore_write_register_note'
p3653
(L134964816L
L134965804L
tp3654
sS'quote_string_for_make'
p3655
(L134541712L
L134541920L
tp3656
sS'elf_slurp_reloc_table_from_section'
p3657
(L134897056L
L134897695L
tp3658
sS'_bfd_elf_section_already_linked'
p3659
(L135045168L
L135046085L
tp3660
sS'demangle_function_name'
p3661
(L135219232L
L135220522L
tp3662
sS'sb_build'
p3663
(L134634928L
L134634970L
tp3664
sS'generic_link_check_archive_element'
p3665
(L134815664L
L134816143L
tp3666
sS'_bfd_generic_link_add_symbols_collect'
p3667
(L134815648L
L134815663L
tp3668
sS'bfd_elf_obj_attr_size'
p3669
(L135047472L
L135047523L
tp3670
sS'listing_source_line'
p3671
(L134590560L
L134590606L
tp3672
sS'htab_clear_slot'
p3673
(L135273104L
L135273178L
tp3674
sS'_bfd_elf_merge_unknown_attribute_list'
p3675
(L135050336L
L135050615L
tp3676
sS'_bfd_elf_swap_verdef_in'
p3677
(L134908816L
L134908946L
tp3678
sS'get_frag_fix'
p3679
(L134544768L
L134544860L
tp3680
sS'dwarf2_finish'
p3681
(L134547968L
L134552185L
tp3682
sS'flonum_copy'
p3683
(L134573776L
L134573967L
tp3684
sS'_bfd_elf_eh_frame_address_size'
p3685
(L135066448L
L135066476L
tp3686
sS'_bfd_elf_link_create_dynamic_sections'
p3687
(L134986048L
L134986700L
tp3688
sS'elfcore_write_aarch_tls'
p3689
(L134964576L
L134964643L
tp3690
sS'bfd_coff_get_syment'
p3691
(L134776400L
L134776544L
tp3692
sS'resolve_expression'
p3693
(L134564640L
L134566376L
tp3694
sS'_bfd_generic_read_ar_hdr'
p3695
(L135179744L
L135179771L
tp3696
sS'sb_skip_white'
p3697
(L134635424L
L134635474L
tp3698
sS'swap_abort'
p3699
(L135176528L
L135176559L
tp3700
sS'aout_32_slurp_symbol_table'
p3701
(L135088256L
L135088487L
tp3702
sS'coff_i386_reloc'
p3703
(L135103216L
L135103631L
tp3704
sS'dlang_parse_integer'
p3705
(L135263872L
L135264534L
tp3706
sS'_bfd_elf_copy_link_hash_symbol_type'
p3707
(L135046448L
L135046516L
tp3708
sS'as_warn_internal'
p3709
(L134601408L
L134601725L
tp3710
sS'bfd_elf_gnu_hash'
p3711
(L134909856L
L134909902L
tp3712
sS'htab_remove_elt'
p3713
(L135273056L
L135273096L
tp3714
sS'elfcore_write_xstatereg'
p3715
(L134963616L
L134963683L
tp3716
sS'elf_init_stab_section'
p3717
(L134753168L
L134753173L
tp3718
sS'_bfd_elf_strtab_size'
p3719
(L135051744L
L135051760L
tp3720
sS'bfd_section_init'
p3721
(L134797424L
L134797544L
tp3722
sS'obj_elf_vtable_inherit'
p3723
(L134741792L
L134742338L
tp3724
sS'_bfd_elf_strtab_init'
p3725
(L135050848L
L135050972L
tp3726
sS'bfd_void'
p3727
(L134783040L
L134783042L
tp3728
sS'output_fde'
p3729
(L134555072L
L134555615L
tp3730
sS'elf_s_get_size'
p3731
(L134739680L
L134739702L
tp3732
sS'symbol_get_frag'
p3733
(L134656736L
L134656772L
tp3734
sS'tc_x86_parse_to_dw2regnum'
p3735
(L134738448L
L134738625L
tp3736
sS'elf_swap_shdr_in'
p3737
(L134895728L
L134895944L
tp3738
sS'current_location'
p3739
(L134564320L
L134564374L
tp3740
sS'_bfd_elf_no_info_to_howto'
p3741
(L134947488L
L134947519L
tp3742
sS'elf_sort_sections'
p3743
(L134904528L
L134904700L
tp3744
sS'htab_elements'
p3745
(L135271088L
L135271099L
tp3746
sS'verilog_set_arch_mach'
p3747
(L134859248L
L134859285L
tp3748
sS'elf_begin'
p3749
(L134739264L
L134739392L
tp3750
sS'bfd_plugin_core_file_pid'
p3751
(L135173712L
L135173741L
tp3752
sS'd_print_expr_op'
p3753
(L135247648L
L135247833L
tp3754
sS'MY_final_link_callback'
p3755
(L135068384L
L135068690L
tp3756
sS'_bfd_elf_link_hash_table_init'
p3757
(L135021632L
L135021742L
tp3758
sS'bfd_elf_allocate_object'
p3759
(L134909904L
L134910082L
tp3760
sS'_bfd_pei_swap_aux_in'
p3761
(L135130896L
L135131584L
tp3762
sS'elfcore_write_s390_tdb'
p3763
(L134964416L
L134964483L
tp3764
sS'input_file_get'
p3765
(L134578400L
L134578564L
tp3766
sS'bfd_canonicalize_reloc'
p3767
(L134758688L
L134758751L
tp3768
sS'cie_eq'
p3769
(L135053328L
L135053591L
tp3770
sS'section_symbol'
p3771
(L134640000L
L134640341L
tp3772
sS'symbol_used_p'
p3773
(L134657008L
L134657058L
tp3774
sS'_bfd_stringtab_size'
p3775
(L134807920L
L134807928L
tp3776
sS'symbol_table_insert'
p3777
(L134641984L
L134642326L
tp3778
sS'_bfd_elf_check_kept_section'
p3779
(L135023504L
L135023666L
tp3780
sS'do_repeat'
p3781
(L134610176L
L134610412L
tp3782
sS'coff_compute_section_file_positions'
p3783
(L135103760L
L135105279L
tp3784
sS'_bfd_elf_compute_section_file_positions'
p3785
(L134919056L
L134931723L
tp3786
sS'S_IS_LOCAL'
p3787
(L134646528L
L134646847L
tp3788
sS'_bfd_stringtab_init'
p3789
(L134807408L
L134807524L
tp3790
sS'_bfd_elf_get_symbol_info'
p3791
(L134946304L
L134946325L
tp3792
sS'__x86.get_pc_thunk.bx'
p3793
(L134527840L
L134527844L
tp3794
sS'symbol_mark_used_in_reloc'
p3795
(L134657072L
L134657117L
tp3796
sS'install_reloc'
p3797
(L134663616L
L134663914L
tp3798
sS'bfd_getl_signed_32'
p3799
(L134784448L
L134784485L
tp3800
sS'dlang_parse_symbol'
p3801
(L135267200L
L135267671L
tp3802
sS'd_parmlist'
p3803
(L135251008L
L135251208L
tp3804
sS'__moddi3'
p3805
(L135278176L
L135278626L
tp3806
sS'htab_set_functions_ex'
p3807
(L135271504L
L135271550L
tp3808
sS'__libc_csu_init'
p3809
(L135278992L
L135279089L
tp3810
sS'_bfd_coff_generic_relocate_section'
p3811
(L135171984L
L135173334L
tp3812
sS'bfd_mmap'
p3813
(L135193856L
L135193925L
tp3814
sS'get_macro_line_sb'
p3815
(L134607088L
L134607102L
tp3816
sS'_bfd_discard_section_stabs'
p3817
(L135196656L
L135197378L
tp3818
sS'symbol_set_value_expression'
p3819
(L134656336L
L134656459L
tp3820
sS'bfd_get_assert_handler'
p3821
(L134758208L
L134758214L
tp3822
sS'cplus_demangle_v3_callback'
p3823
(L135260608L
L135260633L
tp3824
sS'had_warnings'
p3825
(L134602048L
L134602054L
tp3826
sS's_ifeqs'
p3827
(L134540576L
L134541084L
tp3828
sS'bfd_arch_mach_octets_per_byte'
p3829
(L134757696L
L134757753L
tp3830
sS'elf_gc_propagate_vtable_entries_used'
p3831
(L134967712L
L134967906L
tp3832
sS'get_single_number'
p3833
(L134573744L
L134573767L
tp3834
sS'bfd_getb_signed_32'
p3835
(L134784400L
L134784435L
tp3836
sS'set_intel_syntax'
p3837
(L134677760L
L134678176L
tp3838
sS'bfd_get_mach'
p3839
(L134757328L
L134757339L
tp3840
sS'rsrc_compute_region_sizes'
p3841
(L135122384L
L135122553L
tp3842
sS'bfd_cache_section_contents'
p3843
(L134858240L
L134858282L
tp3844
sS'bfd_coff_get_auxent'
p3845
(L134776544L
L134776833L
tp3846
sS'bfd_cache_lookup_worker'
p3847
(L134763152L
L134763461L
tp3848
s.