(dp0
S'__x86.get_pc_thunk.bx'
p1
(L134514384L
L134514388L
tp2
sS'register_tm_clones'
p3
(L134514448L
L134514503L
tp4
sS'main'
p5
(L134514224L
L134514348L
tp6
sS'__libc_csu_fini'
p7
(L134514704L
L134514706L
tp8
sS'__do_global_dtors_aux'
p9
(L134514512L
L134514542L
tp10
sS'frame_dummy'
p11
(L134514544L
L134514589L
tp12
sS'deregister_tm_clones'
p13
(L134514400L
L134514442L
tp14
sS'_start'
p15
(L134514348L
L134514382L
tp16
sS'__libc_csu_init'
p17
(L134514592L
L134514689L
tp18
s.