(dp0
S'gc_section_callback'
p1
(L134555168L
L134555192L
tp2
sS'bfd_elf_get_elf_syms'
p3
(L134838336L
L134839193L
tp4
sS'mri_format'
p5
(L134599568L
L134599819L
tp6
sS'_bfd_elf_swap_versym_in'
p7
(L134837328L
L134837359L
tp8
sS'exp_assert'
p9
(L134619296L
L134619356L
tp10
sS'bfd_make_section_old_way'
p11
(L134726176L
L134726427L
tp12
sS'ctor_cmp'
p13
(L134600112L
L134600215L
tp14
sS'elf_new_obj_attr'
p15
(L134974704L
L134974819L
tp16
sS'ldfile_open_command_file_1'
p17
(L134626544L
L134627069L
tp18
sS'bfd_close'
p19
(L134717264L
L134717500L
tp20
sS'fix_syms'
p21
(L134748608L
L134748732L
tp22
sS'bfd_get_full_section_contents'
p23
(L134785088L
L134785828L
tp24
sS'md5_init_ctx'
p25
(L135171024L
L135171077L
tp26
sS'lrealpath'
p27
(L135193488L
L135193583L
tp28
sS'cplus_demangle_opname'
p29
(L135126960L
L135127968L
tp30
sS'_bfd_elf_link_output_relocs'
p31
(L134922832L
L134923237L
tp32
sS'_bfd_archive_bsd_update_armap_timestamp'
p33
(L134679760L
L134680110L
tp34
sS'tekhex_set_arch_mach'
p35
(L134757952L
L134758007L
tp36
sS'_bfd_generic_copy_link_hash_symbol_type'
p37
(L134739328L
L134739330L
tp38
sS'mri_draw_tree'
p39
(L134598464L
L134599256L
tp40
sS'_bfd_pei_swap_debugdir_out'
p41
(L135066096L
L135066276L
tp42
sS'ldlex_version_file'
p43
(L134544800L
L134544833L
tp44
sS'_bfd_elf_default_relocs_compatible'
p45
(L134924608L
L134924623L
tp46
sS'ldemul_choose_target'
p47
(L134621488L
L134621498L
tp48
sS'd_print_mod_list'
p49
(L135154864L
L135155796L
tp50
sS'_bfd_generic_get_elt_at_index'
p51
(L134670144L
L134670196L
tp52
sS'init_opb'
p53
(L134559520L
L134559622L
tp54
sS'md5_buffer'
p55
(L135173440L
L135173602L
tp56
sS'_bfd_elf_link_read_relocs'
p57
(L134921696L
L134922292L
tp58
sS'ldemul_syslib'
p59
(L134621056L
L134621066L
tp60
sS'_bfd_bsd44_write_ar_hdr'
p61
(L134674704L
L134675009L
tp62
sS'bfd_zmalloc'
p63
(L134711376L
L134711446L
tp64
sS'aout_32_print_symbol'
p65
(L135020640L
L135020890L
tp66
sS'bfd_sym_from_r_symndx'
p67
(L134841200L
L134841542L
tp68
sS'decode_line_info'
p69
(L134770880L
L134773846L
tp70
sS'_bfd_elf_find_inliner_info'
p71
(L134874720L
L134874779L
tp72
sS'consume_count'
p73
(L135112272L
L135112352L
tp74
sS'real_ftell'
p75
(L134688512L
L134688517L
tp76
sS'demangle_expression'
p77
(L135118448L
L135118834L
tp78
sS'_bfd_elf_reloc_type_class'
p79
(L134893568L
L134893571L
tp80
sS'elf_generic_info_to_howto_rel'
p81
(L135100960L
L135100972L
tp82
sS'd_print_array_type'
p83
(L135155808L
L135156447L
tp84
sS'gldelf_i386_append_to_separated_string'
p85
(L134641440L
L134641684L
tp86
sS'compare_sequences'
p87
(L134767920L
L134767991L
tp88
sS'freeargv'
p89
(L135180176L
L135180238L
tp90
sS'memory_bflush'
p91
(L134687632L
L134687635L
tp92
sS'bfd_elf32_swap_symbol_out'
p93
(L134821024L
L134821207L
tp94
sS'_bfd_ar_spacepad'
p95
(L134667296L
L134667459L
tp96
sS'binary_get_symtab_upper_bound'
p97
(L134756304L
L134756310L
tp98
sS'bfd_put_bits'
p99
(L134712896L
L134713017L
tp100
sS'bfd_elf_set_obj_attr_contents'
p101
(L134975136L
L134975597L
tp102
sS'cmpindexentry'
p103
(L134727920L
L134727948L
tp104
sS'rsrc_sort_entries'
p105
(L135054032L
L135057672L
tp106
sS'coff_i386_is_local_label_name'
p107
(L135034832L
L135034854L
tp108
sS'bfd_elf_record_link_assignment'
p109
(L134920400L
L134920975L
tp110
sS'elf_parse_notes'
p111
(L134876128L
L134881152L
tp112
sS'mri_only_load'
p113
(L134598400L
L134598446L
tp114
sS'coff_write_alien_symbol'
p115
(L134696432L
L134697024L
tp116
sS'get_dynamic_reloc_section_name'
p117
(L134901088L
L134901212L
tp118
sS'simple_dummy_reloc_overflow'
p119
(L134783952L
L134783958L
tp120
sS'separate_debug_file_exists'
p121
(L134715104L
L134715303L
tp122
sS'cache_bclose'
p123
(L134690112L
L134690155L
tp124
sS'lang_init'
p125
(L134572864L
L134573244L
tp126
sS'elf_i386_gc_mark_hook'
p127
(L134789696L
L134789774L
tp128
sS'_bfd_final_link_relocate'
p129
(L134723136L
L134723326L
tp130
sS'aout_32_swap_exec_header_out'
p131
(L135010720L
L135010895L
tp132
sS'bfd_get_error_handler'
p133
(L134683616L
L134683622L
tp134
sS'coff_set_arch_mach_hook'
p135
(L135034640L
L135034725L
tp136
sS'bfd_putb64'
p137
(L134712736L
L134712813L
tp138
sS'yyget_debug'
p139
(L134543856L
L134543862L
tp140
sS'd_template_param'
p141
(L135137792L
L135137878L
tp142
sS'minfo'
p143
(L134625680L
L134625810L
tp144
sS'bfd_openstreamr'
p145
(L134717040L
L134717148L
tp146
sS'bfd_elf_link_record_local_dynamic_symbol'
p147
(L134920976L
L134921412L
tp148
sS'elf_i386_finish_local_dynamic_symbol'
p149
(L134793088L
L134793132L
tp150
sS'bfd_elf32_swap_reloc_in'
p151
(L134820608L
L134820666L
tp152
sS'parse_die'
p153
(L134994144L
L134994647L
tp154
sS'elfcore_write_s390_timer'
p155
(L134891456L
L134891523L
tp156
sS'warn_deprecated'
p157
(L134713936L
L134714135L
tp158
sS'bfd_compress_section_contents'
p159
(L134784848L
L134785082L
tp160
sS'cplus_demangle_fill_name'
p161
(L135158400L
L135158458L
tp162
sS'walk_wild_section_specs3_wild2'
p163
(L134564112L
L134564452L
tp164
sS'bfd_elf_discard_info'
p165
(L134972128L
L134972762L
tp166
sS'string_append_template_idx'
p167
(L135113872L
L135113973L
tp168
sS'exp_nameop'
p169
(L134618880L
L134619041L
tp170
sS'bfd_generic_gc_sections'
p171
(L134724032L
L134724038L
tp172
sS'pe_ILF_save_relocs'
p173
(L135035840L
L135035964L
tp174
sS'bfd_symbol_info'
p175
(L134728944L
L134729026L
tp176
sS'stat_alloc'
p177
(L134566480L
L134566632L
tp178
sS'next_matching_output_section_statement'
p179
(L134573712L
L134573809L
tp180
sS'section_already_linked'
p181
(L134558976L
L134559063L
tp182
sS'gldelf_i386_before_parse'
p183
(L134648768L
L134648822L
tp184
sS'elfcore_maybe_make_sect'
p185
(L134834176L
L134834276L
tp186
sS'bfd_coff_set_long_section_names_allowed'
p187
(L135030208L
L135030234L
tp188
sS'bfd_generic_relax_section'
p189
(L134723952L
L134724024L
tp190
sS'elf_i386_fake_sections'
p191
(L134788288L
L134788329L
tp192
sS'get_run_time'
p193
(L135189376L
L135189429L
tp194
sS'bfd_hash_set_default_size'
p195
(L134734960L
L134734998L
tp196
sS'bfd_install_relocation'
p197
(L134721360L
L134722282L
tp198
sS'_bfd_default_link_order'
p199
(L134745840L
L134746380L
tp200
sS'_bfd_elf_setup_sections'
p201
(L134839328L
L134839900L
tp202
sS'set_extra_library_path'
p203
(L134633872L
L134633942L
tp204
sS'lang_leave_group'
p205
(L134588832L
L134588837L
tp206
sS'elf_i386_reloc_type_class'
p207
(L134788192L
L134788219L
tp208
sS'elf_i386_readonly_dynrelocs'
p209
(L134789312L
L134789482L
tp210
sS'_bfd_coff_reloc_link_order'
p211
(L135094048L
L135094779L
tp212
sS'_bfd_elf_find_nearest_line'
p213
(L134874112L
L134874583L
tp214
sS'find_target'
p215
(L134732144L
L134732311L
tp216
sS'bfd_arch_i386_onebyte_nop_fill'
p217
(L135103312L
L135103374L
tp218
sS'lang_final'
p219
(L134583952L
L134584009L
tp220
sS'section_for_dot'
p221
(L134579344L
L134579653L
tp222
sS'ihex_get_section_contents'
p223
(L134765744L
L134766461L
tp224
sS'elfcore_write_s390_todpreg'
p225
(L134891616L
L134891683L
tp226
sS'lang_for_each_statement'
p227
(L134567856L
L134567884L
tp228
sS'lang_relax_sections'
p229
(L134584928L
L134585109L
tp230
sS'lang_add_section'
p231
(L134575856L
L134576511L
tp232
sS'_bfd_elf_write_object_contents'
p233
(L134859328L
L134860053L
tp234
sS'cplus_mangle_opname'
p235
(L135115120L
L135115258L
tp236
sS'print_input_section'
p237
(L134559632L
L134560398L
tp238
sS'bfd_follow_gnu_debuglink'
p239
(L134719264L
L134719290L
tp240
sS'coff_real_object_p'
p241
(L134699728L
L134701280L
tp242
sS'_bfd_nocore_core_file_failing_command'
p243
(L134710720L
L134710741L
tp244
sS'aout_32_translate_symbol_table'
p245
(L135015008L
L135015849L
tp246
sS'gldelf_i386_parse_ld_so_conf'
p247
(L134646480L
L134647536L
tp248
sS'coff_link_check_archive_element'
p249
(L135083184L
L135083293L
tp250
sS'bfd_section_already_linked_table_free'
p251
(L134747376L
L134747395L
tp252
sS'lang_float'
p253
(L134587040L
L134587050L
tp254
sS'already_linked_newfunc'
p255
(L134735696L
L134735734L
tp256
sS'lang_leave_overlay'
p257
(L134589840L
L134590240L
tp258
sS'htab_remove_elt_with_hash'
p259
(L135192176L
L135192253L
tp260
sS'bfd_plugin_make_empty_symbol'
p261
(L135101568L
L135101603L
tp262
sS'strtab_hash_newfunc'
p263
(L134734720L
L134734782L
tp264
sS'srec_get_symtab_upper_bound'
p265
(L134749488L
L134749503L
tp266
sS'bfd_set_error_program_name'
p267
(L134683600L
L134683610L
tp268
sS'bfd_generic_discard_group'
p269
(L134727904L
L134727910L
tp270
sS'_bfd_elf_eh_frame_section_offset'
p271
(L134988976L
L134989468L
tp272
sS'_bfd_elf_link_hash_hide_symbol'
p273
(L134949136L
L134949218L
tp274
sS'bfd_perror'
p275
(L134683440L
L134683583L
tp276
sS'lang_add_map'
p277
(L134586560L
L134586607L
tp278
sS'warning_callback'
p279
(L134604320L
L134604653L
tp280
sS'simple_save_output_info'
p281
(L134784032L
L134784083L
tp282
sS'bfd_generic_lookup_section_flags'
p283
(L134724048L
L134724111L
tp284
sS'bfd_plugin_core_file_failing_signal'
p285
(L135101344L
L135101373L
tp286
sS'java_demangle_v3_callback'
p287
(L135170896L
L135170922L
tp288
sS'bfd_elf_get_dt_soname'
p289
(L134949680L
L134949721L
tp290
sS'pe_mkobject'
p291
(L135033296L
L135033459L
tp292
sS'yyset_in'
p293
(L134543824L
L134543834L
tp294
sS'lang_reset_memory_regions'
p295
(L134584016L
L134584112L
tp296
sS'before_allocation_default'
p297
(L134621712L
L134621733L
tp298
sS'pe_ILF_make_a_section'
p299
(L135035280L
L135035556L
tp300
sS'insert_undefined'
p301
(L134557184L
L134557318L
tp302
sS'bfd_hash_table_init_n'
p303
(L134733120L
L134733335L
tp304
sS'yy_stack_print'
p305
(L134526016L
L134526142L
tp306
sS'_bfd_elf_canonicalize_symtab'
p307
(L134868112L
L134868169L
tp308
sS'coff_sort_func_alent'
p309
(L135030352L
L135030404L
tp310
sS'_bfd_elf_can_make_relative'
p311
(L134994080L
L134994086L
tp312
sS'htab_hash_string'
p313
(L135192608L
L135192646L
tp314
sS'coff_slurp_symbol_table'
p315
(L135038528L
L135038557L
tp316
sS'_bfd_elf_init_2_index_sections'
p317
(L134944736L
L134944921L
tp318
sS'closest_target_match'
p319
(L134562720L
L134562936L
tp320
sS'binary_mkobject'
p321
(L134756288L
L134756294L
tp322
sS'elfcore_write_s390_system_call'
p323
(L134891936L
L134892003L
tp324
sS'unattached_reloc'
p325
(L134601888L
L134601968L
tp326
sS'after_open_default'
p327
(L134621664L
L134621666L
tp328
sS'bfd_cache_close'
p329
(L134690320L
L134690356L
tp330
sS'push_stat_ptr'
p331
(L134567904L
L134567977L
tp332
sS'remember_type'
p333
(L135114960L
L135115093L
tp334
sS'yy_create_buffer'
p335
(L134537536L
L134537620L
tp336
sS'_bfd_dwarf2_cleanup_debug_info'
p337
(L134778048L
L134778543L
tp338
sS'lang_finalize_version_expr_head'
p339
(L134557680L
L134558041L
tp340
sS'name_compare'
p341
(L134557408L
L134557675L
tp342
sS'_bfd_elf_find_segment_containing_section'
p343
(L134843280L
L134843371L
tp344
sS'lang_vers_match'
p345
(L134558112L
L134558852L
tp346
sS'lang_size_sections'
p347
(L134584432L
L134584919L
tp348
sS'check_nocrossrefs'
p349
(L134633104L
L134633167L
tp350
sS'srec_mkobject'
p351
(L134750896L
L134751023L
tp352
sS'bfd_set_error_handler'
p353
(L134683584L
L134683600L
tp354
sS'cplus_demangle_type'
p355
(L135158656L
L135160796L
tp356
sS'add_data_entry'
p357
(L135050160L
L135050240L
tp358
sS'bfd_section_from_elf_index'
p359
(L134841552L
L134841587L
tp360
sS'd_function_type'
p361
(L135162400L
L135162482L
tp362
sS'yyset_out'
p363
(L134543840L
L134543850L
tp364
sS'symbol_warning'
p365
(L134602272L
L134602394L
tp366
sS'_bfd_elf_size_group_sections'
p367
(L134938416L
L134938498L
tp368
sS'_bfd_elf_get_reloc_upper_bound'
p369
(L134867968L
L134867983L
tp370
sS'bfd_set_format'
p371
(L134710288L
L134710411L
tp372
sS'version_expr_head_hash'
p373
(L134558048L
L134558064L
tp374
sS'bfd_make_readable'
p375
(L134717904L
L134718167L
tp376
sS'lang_add_vers_depend'
p377
(L134597488L
L134597632L
tp378
sS'srec_print_symbol'
p379
(L134751024L
L134751129L
tp380
sS'bfd_errmsg'
p381
(L134683232L
L134683425L
tp382
sS'bfd_elf_get_needed_list'
p383
(L134949616L
L134949636L
tp384
sS'yywrap'
p385
(L134537104L
L134537110L
tp386
sS'separate_alt_debug_file_exists'
p387
(L134715024L
L134715102L
tp388
sS'ldemul_finish'
p389
(L134621168L
L134621178L
tp390
sS'elf_create_symbuf'
p391
(L134522098L
L134522480L
tp392
sS'bfd_elf_sym_name'
p393
(L134839200L
L134839327L
tp394
sS'_bfd_relocate_contents'
p395
(L134722288L
L134723135L
tp396
sS'bfd_dont_truncate_arname'
p397
(L134675392L
L134675562L
tp398
sS'elf32_i386_nacl_elf_object_p'
p399
(L134799952L
L134799992L
tp400
sS'lang_section_start'
p401
(L134586320L
L134586389L
tp402
sS'bfd_getl_signed_16'
p403
(L134711808L
L134711833L
tp404
sS'yyensure_buffer_stack'
p405
(L134536928L
L134537091L
tp406
sS'lang_add_reloc'
p407
(L134586736L
L134586840L
tp408
sS'elf_gc_allocate_got_offsets'
p409
(L134895520L
L134895630L
tp410
sS'elf_merge_st_other'
p411
(L134899808L
L134899907L
tp412
sS'memory_btell'
p413
(L134687616L
L134687627L
tp414
sS'aout_32_adjust_sizes_and_vmas'
p415
(L135012800L
L135014321L
tp416
sS'bfd_log2'
p417
(L134713696L
L134713731L
tp418
sS'string_appendn_0'
p419
(L135183024L
L135183072L
tp420
sS'cplus_demangle'
p421
(L135116768L
L135117041L
tp422
sS'_bfd_elf_get_symtab_upper_bound'
p423
(L134867792L
L134867846L
tp424
sS'bfd_elf_gc_common_final_link'
p425
(L134972064L
L134972122L
tp426
sS'bfd_arch_bits_per_address'
p427
(L134682800L
L134682811L
tp428
sS'_bfd_elf_find_line'
p429
(L134874592L
L134874707L
tp430
sS'elf_i386_adjust_dynamic_symbol'
p431
(L134798256L
L134798824L
tp432
sS'bfd_getb32'
p433
(L134711904L
L134711939L
tp434
sS'xmemdup'
p435
(L135196832L
L135196887L
tp436
sS'mri_name'
p437
(L134599536L
L134599563L
tp438
sS'bfd_make_writable'
p439
(L134717760L
L134717900L
tp440
sS'generate_build_id'
p441
(L134638912L
L134639454L
tp442
sS'is_gnu_v3_mangled_dtor'
p443
(L135170976L
L135171011L
tp444
sS'lang_add_input_file'
p445
(L134568048L
L134568210L
tp446
sS'reloc_overflow'
p447
(L134603360L
L134603836L
tp448
sS'lang_finish'
p449
(L134568224L
L134568255L
tp450
sS'bfd_openr_iovec'
p451
(L134718480L
L134718651L
tp452
sS'bfd_elf32_swap_dyn_in'
p453
(L134820896L
L134820947L
tp454
sS'bfd_rename_section'
p455
(L134726944L
L134726981L
tp456
sS'bfd_elf_set_group_contents'
p457
(L134833632L
L134834170L
tp458
sS'bfd_octets_per_byte'
p459
(L134683056L
L134683121L
tp460
sS'dlang_parse_real'
p461
(L135183744L
L135184264L
tp462
sS'coff_classify_symbol'
p463
(L135035968L
L135036219L
tp464
sS'coff_get_normalized_symtab'
p465
(L134702016L
L134703674L
tp466
sS'coff_swap_filehdr_in'
p467
(L135030016L
L135030202L
tp468
sS'_bfd_elf_obj_attrs_arg_type'
p469
(L134975776L
L134975887L
tp470
sS'_bfd_elf_get_lineno'
p471
(L134874016L
L134874047L
tp472
sS'd_demangle'
p473
(L135170336L
L135170446L
tp474
sS'bfd_slurp_armap'
p475
(L134670896L
L134672076L
tp476
sS'elfcore_write_ppc_vsx'
p477
(L134891376L
L134891443L
tp478
sS'mri_public'
p479
(L134599824L
L134599867L
tp480
sS'tekhex_get_symbol_info'
p481
(L134758016L
L134758037L
tp482
sS'squangle_mop_up'
p483
(L135112576L
L135112759L
tp484
sS'bfd_elf_hash'
p485
(L134837392L
L134837446L
tp486
sS'_bfd_generic_make_empty_symbol'
p487
(L134728448L
L134728483L
tp488
sS'd_print_comp'
p489
(L135152912L
L135152964L
tp490
sS'hash_file_ptr'
p491
(L134666096L
L134666103L
tp492
sS'bfd_realloc_or_free'
p493
(L134711264L
L134711370L
tp494
sS'bfd_elf_make_object'
p495
(L134837696L
L134837739L
tp496
sS'_bfd_pe_bfd_copy_private_section_data'
p497
(L135077360L
L135077566L
tp498
sS'_bfd_elf_notice_as_needed'
p499
(L134924688L
L134924756L
tp500
sS'_bfd_find_arch_match'
p501
(L134732016L
L134732138L
tp502
sS'demangle_template_template_parm'
p503
(L135127968L
L135128278L
tp504
sS'lookup_name'
p505
(L134581344L
L134581482L
tp506
sS'_bfd_look_for_bfd_in_cache'
p507
(L134667888L
L134667956L
tp508
sS'bfd_alt_mach_code'
p509
(L134686576L
L134686690L
tp510
sS'xmalloc'
p511
(L135196624L
L135196667L
tp512
sS'_bfd_elf_get_dynamic_reloc_section'
p513
(L134973776L
L134973860L
tp514
sS'elfcore_write_prxfpreg'
p515
(L134891136L
L134891203L
tp516
sS'bfd_check_format_matches'
p517
(L134708224L
L134710237L
tp518
sS'bfd_gnu_truncate_arname'
p519
(L134675568L
L134675714L
tp520
sS'elf_link_input_bfd'
p521
(L134951280L
L134957196L
tp522
sS'lang_map'
p523
(L134574896L
L134575855L
tp524
sS'dlang_demangle'
p525
(L135188736L
L135188938L
tp526
sS'print_statement'
p527
(L134560400L
L134562720L
tp528
sS'bfd_decode_symclass'
p529
(L134728496L
L134728901L
tp530
sS'tekhex_get_section_contents'
p531
(L134759872L
L134759945L
tp532
sS'srec_set_arch_mach'
p533
(L134750240L
L134750277L
tp534
sS'i386linux_bfd_final_link'
p535
(L134997280L
L134997328L
tp536
sS'coff_bad_format_hook'
p537
(L135030240L
L135030290L
tp538
sS'filename_ncmp'
p539
(L135188960L
L135188965L
tp540
sS'_bfd_elf_default_got_elt_size'
p541
(L134973744L
L134973774L
tp542
sS'coff_write_symbol'
p543
(L134692592L
L134694202L
tp544
sS'bfd_nullvoidptr'
p545
(L134710528L
L134710549L
tp546
sS'_bfd_elf_post_process_headers'
p547
(L134894912L
L134894963L
tp548
sS'_bfd_elf_common_definition'
p549
(L134973696L
L134973711L
tp550
sS'reloc_dangerous'
p551
(L134601968L
L134602048L
tp552
sS'bfd_get_reloc_code_name'
p553
(L134723920L
L134723947L
tp554
sS'srec_set_section_contents'
p555
(L134749696L
L134750240L
tp556
sS'bfd_generic_link_read_symbols_0'
p557
(L134736480L
L134736576L
tp558
sS'_bfd_elf_print_private_bfd_data'
p559
(L134870928L
L134873843L
tp560
sS'split_directories'
p561
(L135193648L
L135194021L
tp562
sS'bfd_plugin_bfd_print_private_bfd_data'
p563
(L135101408L
L135101440L
tp564
sS'coff_read_word'
p565
(L134522480L
L134522566L
tp566
sS'demangle_template_value_parm'
p567
(L135117056L
L135118439L
tp568
sS'_bfd_elf_canonicalize_dynamic_symtab'
p569
(L134868176L
L134868233L
tp570
sS'plugin_opt_plugin_arg'
p571
(L134636672L
L134636839L
tp572
sS'_bfd_elf_maybe_function_sym'
p573
(L134895008L
L134895072L
tp574
sS'pe_print_private_bfd_data'
p575
(L135041616L
L135041651L
tp576
sS'bfd_find_version_for_sym'
p577
(L134748976L
L134749416L
tp578
sS'_bfd_pei_swap_sym_in'
p579
(L135057680L
L135058328L
tp580
sS'sha1_buffer'
p581
(L135179536L
L135179668L
tp582
sS'bfd_elf32_write_shdrs_and_ehdr'
p583
(L134823760L
L134824119L
tp584
sS'coff_i386_reloc_name_lookup'
p585
(L135034736L
L135034823L
tp586
sS'yyrestart'
p587
(L134537632L
L134537755L
tp588
sS'ctor_prio'
p589
(L134599984L
L134600107L
tp590
sS'bfd_set_error'
p591
(L134683984L
L134684059L
tp592
sS'_bfd_elf_common_section'
p593
(L134973728L
L134973734L
tp594
sS'lang_one_common'
p595
(L134565120L
L134565714L
tp596
sS'bfd_link_repair_undef_list'
p597
(L134739072L
L134739150L
tp598
sS'md5_stream'
p599
(L135173616L
L135173913L
tp600
sS'bfd_hash_newfunc'
p601
(L134734784L
L134734817L
tp602
sS'elfcore_write_linux_prpsinfo32'
p603
(L134890016L
L134890402L
tp604
sS'_bfd_elf_rel_vtable_reloc_fn'
p605
(L134875664L
L134875667L
tp606
sS'_bfd_elf_canonicalize_dynamic_reloc'
p607
(L134868384L
L134868672L
tp608
sS'after_allocation_default'
p609
(L134621680L
L134621699L
tp610
sS'elf_i386_finish_dynamic_symbol'
p611
(L134791360L
L134793079L
tp612
sS'plugin_active_plugins_p'
p613
(L134637088L
L134637102L
tp614
sS'd_call_offset'
p615
(L135138736L
L135138844L
tp616
sS'bfd_elf_gc_mark_dynamic_ref_symbol'
p617
(L134969312L
L134969496L
tp618
sS'elf_adjust_dynstr_offsets'
p619
(L134903248L
L134903294L
tp620
sS'find_debug_info_0'
p621
(L134768048L
L134768149L
tp622
sS'_bfd_elf_make_dynamic_segment'
p623
(L134843376L
L134843434L
tp624
sS'mangle_name'
p625
(L134756368L
L134756512L
tp626
sS'bfd_close_all_done'
p627
(L134717504L
L134717676L
tp628
sS'xexit'
p629
(L135196400L
L135196426L
tp630
sS'elf_i386_check_relocs'
p631
(L134812736L
L134815152L
tp632
sS'_bfd_elf_strtab_finalize'
p633
(L134979760L
L134980184L
tp634
sS'ldemul_set_symbols'
p635
(L134621184L
L134621202L
tp636
sS'lang_clear_os_map'
p637
(L134578816L
L134578898L
tp638
sS'trad_unix_core_file_p'
p639
(L135103488L
L135104118L
tp640
sS'vfinfo'
p641
(L134622944L
L134625482L
tp642
sS'elf_i386_local_htab_hash'
p643
(L134788096L
L134788130L
tp644
sS'qualifier_string'
p645
(L135113072L
L135113160L
tp646
sS'bfd_get_stab_name'
p647
(L135108384L
L135108410L
tp648
sS'create_info_hash_table'
p649
(L134766928L
L134767032L
tp650
sS'bfd_elf_add_obj_attr_int_string'
p651
(L134976096L
L134976215L
tp652
sS'rsrc_parse_directory'
p653
(L135053616L
L135053924L
tp654
sS'elf_generic_info_to_howto'
p655
(L135100944L
L135100956L
tp656
sS'd_number'
p657
(L135137552L
L135137643L
tp658
sS'_bfd_coff_write_task_globals'
p659
(L135084608L
L135084701L
tp660
sS'ldfile_open_command_file'
p661
(L134629088L
L134629099L
tp662
sS'_bfd_elf_strtab_addref'
p663
(L134978864L
L134978971L
tp664
sS'elfcore_write_linux_prpsinfo64'
p665
(L134890416L
L134890810L
tp666
sS'd_source_name'
p667
(L135137936L
L135138132L
tp668
sS'_bfd_elf_swap_vernaux_in'
p669
(L134837088L
L134837186L
tp670
sS'bfd_elf32_object_p'
p671
(L134827200L
L134829162L
tp672
sS'_bfd_elf_get_synthetic_symtab'
p673
(L134894016L
L134894897L
tp674
sS'bfd_get_next_mapent'
p675
(L134667728L
L134667830L
tp676
sS'ldemul_choose_mode'
p677
(L134622096L
L134622321L
tp678
sS'elf_i386_finish_dynamic_sections'
p679
(L134789776L
L134791360L
tp680
sS'_bfd_pei_swap_debugdir_in'
p681
(L135064608L
L135064751L
tp682
sS'bfd_simple_get_relocated_section_contents'
p683
(L134784144L
L134784841L
tp684
sS'bfd_get_reloc_upper_bound'
p685
(L134684064L
L134684117L
tp686
sS'bfd_make_section_anyway'
p687
(L134726608L
L134726643L
tp688
sS'_bfd_get_elt_at_filepos'
p689
(L134669440L
L134670142L
tp690
sS'_bfd_elf_link_hash_newfunc'
p691
(L134897536L
L134897755L
tp692
sS'bfd_is_section_compressed'
p693
(L134785888L
L134786100L
tp694
sS'archive_path'
p695
(L134558064L
L134558099L
tp696
sS'cache_bmmap'
p697
(L134691072L
L134691375L
tp698
sS'bfd_elf_print_symbol'
p699
(L134840176L
L134841068L
tp700
sS'bfd_elf_string_from_elf_section_0'
p701
(L134837856L
L134838322L
tp702
sS'aout_32_get_symbol_info'
p703
(L135020480L
L135020631L
tp704
sS'gldi386linux_get_script'
p705
(L134652576L
L134652662L
tp706
sS'_bfd_coff_section_already_linked'
p707
(L134707808L
L134708209L
tp708
sS'lang_size_sections_1'
p709
(L134568576L
L134571909L
tp710
sS'd_number_component'
p711
(L135137648L
L135137715L
tp712
sS'countargv'
p713
(L135181744L
L135181794L
tp714
sS'try_open'
p715
(L134626176L
L134626404L
tp716
sS'gldelf32_x86_64_after_allocation'
p717
(L134659200L
L134659490L
tp718
sS'aout_32_minisymbol_to_symbol'
p719
(L135021024L
L135021281L
tp720
sS'bfd_scan_vma'
p721
(L134686080L
L134686085L
tp722
sS'pe_ILF_make_a_symbol_reloc'
p723
(L135046048L
L135046188L
tp724
sS'srec_get_section_contents'
p725
(L134751216L
L134752259L
tp726
sS'_bfd_elf_set_arch_mach'
p727
(L134874048L
L134874108L
tp728
sS'_bfd_generic_read_minisymbols'
p729
(L134729040L
L134729242L
tp730
sS'finish_default'
p731
(L134621744L
L134621788L
tp732
sS'elf_i386_copy_indirect_symbol'
p733
(L134789008L
L134789302L
tp734
sS'walk_wild_section_specs1_wild1'
p735
(L134563376L
L134563474L
tp736
sS'walk_wild_section_specs1_wild0'
p737
(L134564736L
L134564891L
tp738
sS'htab_create'
p739
(L135190752L
L135190819L
tp740
sS'bfd_arch_list'
p741
(L134682496L
L134682625L
tp742
sS'bfd_elf_mkcorefile'
p743
(L134837744L
L134837823L
tp744
sS'bfd_elf_link_mark_dynamic_symbol'
p745
(L134895072L
L134895178L
tp746
sS'yyparse'
p747
(L134526544L
L134536850L
tp748
sS'_bfd_generic_final_link'
p749
(L134746384L
L134747086L
tp750
sS'bfd_generic_link_read_symbols'
p751
(L134739248L
L134739277L
tp752
sS'd_lookup_template_argument'
p753
(L135138848L
L135138958L
tp754
sS'fini_reloc_cookie_for_section'
p755
(L134895952L
L134896024L
tp756
sS'bfd_elf_gc_sections'
p757
(L134969632L
L134970671L
tp758
sS'yyfree'
p759
(L134544080L
L134544085L
tp760
sS'syslib_default'
p761
(L134621888L
L134621939L
tp762
sS'comp_unit_find_line'
p763
(L134776512L
L134776900L
tp764
sS'lang_enter_overlay'
p765
(L134589152L
L134589229L
tp766
sS'_bfd_elf_strtab_add'
p767
(L134978624L
L134978857L
tp768
sS'tekhex_get_symtab_upper_bound'
p769
(L134757584L
L134757599L
tp770
sS'lang_get_output_target'
p771
(L134577488L
L134577627L
tp772
sS'core_file_matches_executable_p'
p773
(L135104352L
L135104422L
tp774
sS'gldelf_i386_stat_needed'
p775
(L134648368L
L134648753L
tp776
sS'_bfd_pei_only_swap_filehdr_out'
p777
(L135062384L
L135063486L
tp778
sS'aout_32_set_section_contents'
p779
(L135014544L
L135014947L
tp780
sS'gldi386linux_find_address_statement'
p781
(L134652880L
L134652964L
tp782
sS'walk_wild'
p783
(L134581488L
L134581827L
tp784
sS'archive_close_worker'
p785
(L134667264L
L134667293L
tp786
sS'bfd_calc_gnu_debuglink_crc32'
p787
(L134718816L
L134718869L
tp788
sS'yylex_destroy'
p789
(L134543888L
L134544041L
tp790
sS'cie_hash'
p791
(L134980304L
L134980312L
tp792
sS'_bfd_elf_create_got_section'
p793
(L134913328L
L134913648L
tp794
sS'bfd_target_list'
p795
(L134732896L
L134733026L
tp796
sS'read_signed_leb128'
p797
(L134714208L
L134714277L
tp798
sS'pe_ILF_make_a_symbol'
p799
(L135034864L
L135035265L
tp800
sS'gldelf_i386_place_orphan'
p801
(L134648832L
L134650364L
tp802
sS'rsrc_print_name'
p803
(L135050240L
L135050317L
tp804
sS'elf_link_read_relocs_from_section'
p805
(L134900464L
L134900984L
tp806
sS'objalloc_free_block'
p807
(L135195808L
L135196126L
tp808
sS'lang_append_dynamic_list_cpp_new'
p809
(L134597920L
L134598003L
tp810
sS'_bfd_generic_section_already_linked'
p811
(L134748080L
L134748273L
tp812
sS'get_segment_type'
p813
(L134831968L
L134832126L
tp814
sS'ldctor_add_set_entry'
p815
(L134600224L
L134600552L
tp816
sS'bfd_make_section_with_flags'
p817
(L134726656L
L134726854L
tp818
sS'xcalloc'
p819
(L135196672L
L135196743L
tp820
sS'memory_bclose'
p821
(L134687792L
L134687842L
tp822
sS'xatexit_cleanup'
p823
(L135196224L
L135196272L
tp824
sS'einfo'
p825
(L134625536L
L134625606L
tp826
sS'bfd_plugin_core_file_failing_command'
p827
(L135101376L
L135101405L
tp828
sS'gldelf_i386_check_needed'
p829
(L134650368L
L134650588L
tp830
sS'elf_link_output_extsym'
p831
(L134903984L
L134907497L
tp832
sS'is_ctor_or_dtor'
p833
(L135169152L
L135169413L
tp834
sS'ldemul_before_allocation'
p835
(L134621136L
L134621146L
tp836
sS'find_separate_debug_file'
p837
(L134715312L
L134716047L
tp838
sS'bfd_default_set_arch_mach'
p839
(L134682912L
L134682986L
tp840
sS'lang_add_data'
p841
(L134586672L
L134586734L
tp842
sS'pe_bfd_object_p'
p843
(L135046192L
L135049263L
tp844
sS'ihex_mkobject'
p845
(L134761488L
L134761559L
tp846
sS'rsrc_print_resource_directory'
p847
(L135052192L
L135052964L
tp848
sS'cref_sort_array'
p849
(L134630896L
L134630965L
tp850
sS'aout_32_swap_std_reloc_out'
p851
(L135017408L
L135017840L
tp852
sS'bfd_elf_add_obj_attr_int'
p853
(L134975888L
L134975983L
tp854
sS'yyerror'
p855
(L134526368L
L134526532L
tp856
sS'write_obj_attribute'
p857
(L134974528L
L134974689L
tp858
sS'new_rel_from_abs'
p859
(L134611248L
L134611328L
tp860
sS'generic_core_file_matches_executable_p'
p861
(L135104432L
L135104562L
tp862
sS'_bfd_archive_bsd_construct_extended_name_table'
p863
(L134674320L
L134674359L
tp864
sS'_bfd_elf_export_symbol'
p865
(L134920272L
L134920392L
tp866
sS'd_unqualified_name'
p867
(L135161440L
L135162302L
tp868
sS'map_input_to_output_sections'
p869
(L134582064L
L134582695L
tp870
sS'coff_canonicalize_symtab'
p871
(L134694352L
L134694458L
tp872
sS'srec_get_symbol_info'
p873
(L134750288L
L134750309L
tp874
sS'elf_i386_reloc_type_lookup'
p875
(L134787504L
L134788086L
tp876
sS'read_unsigned_leb128'
p877
(L134714144L
L134714195L
tp878
sS'objalloc_free'
p879
(L135195744L
L135195798L
tp880
sS'nacl_modify_program_headers'
p881
(L134818352L
L134818658L
tp882
sS'md5_process_bytes'
p883
(L135173184L
L135173428L
tp884
sS'coff_find_nearest_line'
p885
(L134707264L
L134707367L
tp886
sS'coff_get_reloc_upper_bound'
p887
(L134703680L
L134703739L
tp888
sS'load_symbols'
p889
(L134580096L
L134581342L
tp890
sS'try_load_plugin'
p891
(L135101776L
L135102324L
tp892
sS'print_nl'
p893
(L134625856L
L134625884L
tp894
sS'_bfd_pei_swap_sym_out'
p895
(L135058336L
L135058494L
tp896
sS'consume_count_with_underscores'
p897
(L135112352L
L135112431L
tp898
sS'bfd_getb16'
p899
(L134711712L
L134711729L
tp900
sS'elf32_r_info'
p901
(L134830544L
L134830559L
tp902
sS'bfd_hash_replace'
p903
(L134734496L
L134734591L
tp904
sS'yyset_debug'
p905
(L134543872L
L134543882L
tp906
sS'bfd_plugin_print_symbol'
p907
(L135101216L
L135101237L
tp908
sS'ldlex_filename'
p909
(L134545024L
L134545046L
tp910
sS'demangle_arm_hp_template'
p911
(L135124944L
L135126839L
tp912
sS'_bfd_coff_link_hash_table_create'
p913
(L135084864L
L135084956L
tp914
sS'bfd_elf32_swap_reloc_out'
p915
(L134820752L
L134820813L
tp916
sS'_bfd_elf_validate_reloc'
p917
(L134875120L
L134875540L
tp918
sS'_bfd_add_bfd_to_archive_cache'
p919
(L134667968L
L134668164L
tp920
sS'plugin_maybe_claim'
p921
(L134637968L
L134638258L
tp922
sS'bfd_default_scan'
p923
(L134681312L
L134682280L
tp924
sS'lang_register_vers_node'
p925
(L134590784L
L134591748L
tp926
sS'string_need_1'
p927
(L135182384L
L135182484L
tp928
sS'trad_unix_core_file_failing_signal'
p929
(L135103472L
L135103478L
tp930
sS'gldelf_i386_search_needed'
p931
(L134648096L
L134648361L
tp932
sS'bfd_fprintf_vma'
p933
(L134686528L
L134686571L
tp934
sS'yy_scan_buffer'
p935
(L134543392L
L134543539L
tp936
sS'sec_merge_hash_newfunc'
p937
(L135108656L
L135108770L
tp938
sS'coff_write_armap'
p939
(L134680112L
L134681052L
tp940
sS'd_cv_qualifiers'
p941
(L135136976L
L135137241L
tp942
sS'_bfd_n1'
p943
(L134710608L
L134710632L
tp944
sS'bfd_elf32_core_file_failing_command'
p945
(L134830576L
L134830596L
tp946
sS'd_print_function_type'
p947
(L135156448L
L135157231L
tp948
sS'ld_abort'
p949
(L134625888L
L134626050L
tp950
sS'_bfd_elf_new_section_hook'
p951
(L134841984L
L134842191L
tp952
sS'aout_link_free_symbols'
p953
(L135003680L
L135003748L
tp954
sS'aout_32_reloc_type_lookup'
p955
(L135010224L
L135010348L
tp956
sS'gldelf32_x86_64_list_options'
p957
(L134653440L
L134655037L
tp958
sS'bfd_section_list_clear'
p959
(L134725424L
L134725498L
tp960
sS'elf_i386_allocate_dynrelocs'
p961
(L134793136L
L134794488L
tp962
sS'd_make_name'
p963
(L135136896L
L135136962L
tp964
sS'real_fopen'
p965
(L134688544L
L134688644L
tp966
sS'coff_symbol_from'
p967
(L134695232L
L134695272L
tp968
sS'_bfd_append_relative_path'
p969
(L134669312L
L134669428L
tp970
sS'bfd_elf32_swap_phdr_out'
p971
(L134826080L
L134826274L
tp972
sS'tekhex_init'
p973
(L134760080L
L134760186L
tp974
sS'bfd_get_gp_size'
p975
(L134685712L
L134685778L
tp976
sS'bfd_set_start_address'
p977
(L134685680L
L134685697L
tp978
sS'htab_create_alloc'
p979
(L135190640L
L135190703L
tp980
sS'_bfd_elf_create_ifunc_sections'
p981
(L134815472L
L134815877L
tp982
sS'gldelf_i386_find_statement_assignment'
p983
(L134645568L
L134645592L
tp984
sS'check_for_scripts_dir'
p985
(L134626064L
L134626163L
tp986
sS'opncls_btell'
p987
(L134714304L
L134714318L
tp988
sS'elf_collect_hash_codes'
p989
(L134897328L
L134897533L
tp990
sS'_bfd_elf_canonicalize_reloc'
p991
(L134867984L
L134868105L
tp992
sS'dlang_attributes'
p993
(L135182720L
L135182902L
tp994
sS'gldelf_i386_after_allocation'
p995
(L134645600L
L134645890L
tp996
sS'aout_32_get_lineno'
p997
(L135020464L
L135020467L
tp998
sS'bfd_search_for_target'
p999
(L134733040L
L134733113L
tp1000
sS'_bfd_elf_default_action_discarded'
p1001
(L134951024L
L134951100L
tp1002
sS'bfd_release'
p1003
(L134718784L
L134718803L
tp1004
sS'lbasename'
p1005
(L135193440L
L135193474L
tp1006
sS'_bfd_coff_link_input_bfd'
p1007
(L135085040L
L135094039L
tp1008
sS'bfd_open_file'
p1009
(L134690448L
L134690743L
tp1010
sS'ihex_set_arch_mach'
p1011
(L134761568L
L134761623L
tp1012
sS'open_input_bfds'
p1013
(L134582832L
L134583527L
tp1014
sS'_bfd_elf_get_dynamic_reloc_upper_bound'
p1015
(L134868240L
L134868380L
tp1016
sS'register_all_symbols_read'
p1017
(L134633712L
L134633782L
tp1018
sS'_bfd_clear_contents'
p1019
(L134723328L
L134723723L
tp1020
sS'_bfd_elf_is_local_label_name'
p1021
(L134873936L
L134874014L
tp1022
sS'lang_output_section_get'
p1023
(L134572496L
L134572504L
tp1024
sS'_bfd_elf_gc_mark_hook'
p1025
(L134967856L
L134968084L
tp1026
sS'coff_swap_scnhdr_in'
p1027
(L135034368L
L135034633L
tp1028
sS'coff_set_arch_mach'
p1029
(L135041536L
L135041616L
tp1030
sS'is_gnu_v3_mangled_ctor'
p1031
(L135170928L
L135170963L
tp1032
sS'mri_alias'
p1033
(L134599360L
L134599531L
tp1034
sS'_bfd_generic_link_add_archive_symbols'
p1035
(L134739344L
L134740136L
tp1036
sS'_bfd_elf_swap_verdaux_out'
p1037
(L134836784L
L134836845L
tp1038
sS'opncls_bread'
p1039
(L134714400L
L134714476L
tp1040
sS'yyget_in'
p1041
(L134543744L
L134543750L
tp1042
sS'bfd_bread'
p1043
(L134688656L
L134688816L
tp1044
sS'aout_32_make_empty_symbol'
p1045
(L135014960L
L135014995L
tp1046
sS'elf_i386_get_local_sym_hash'
p1047
(L134800080L
L134800399L
tp1048
sS'_bfd_elf_stringtab_init'
p1049
(L134841072L
L134841188L
tp1050
sS'walk_wild_file'
p1051
(L134566304L
L134566478L
tp1052
sS'bfd_assert'
p1053
(L134683696L
L134683768L
tp1054
sS'_bfd_write_section_stabs'
p1055
(L135107616L
L135108067L
tp1056
sS'_bfd_elf_copy_private_bfd_data'
p1057
(L134840016L
L134840166L
tp1058
sS'adjust_relative_path'
p1059
(L134666576L
L134667260L
tp1060
sS'd_compact_number'
p1061
(L135137728L
L135137783L
tp1062
sS'iterative_hash'
p1063
(L135192656L
L135193296L
tp1064
sS'plugin_opt_plugin'
p1065
(L134636416L
L134636657L
tp1066
sS'_bfd_new_bfd'
p1067
(L134716048L
L134716248L
tp1068
sS'main'
p1069
(L134522576L
L134525766L
tp1070
sS'elf_i386_tls_transition'
p1071
(L134800400L
L134801972L
tp1072
sS'elfcore_write_arm_vfp'
p1073
(L134892096L
L134892163L
tp1074
sS'bfd_elf_add_obj_attr_string'
p1075
(L134975984L
L134976095L
tp1076
sS'_bfd_elf_map_sections_to_segments'
p1077
(L134843440L
L134846418L
tp1078
sS'bfd_section_from_shdr'
p1079
(L134884576L
L134888881L
tp1080
sS'bfd_generic_define_common_symbol'
p1081
(L134748784L
L134748972L
tp1082
sS'message_1'
p1083
(L135101680L
L135101769L
tp1084
sS'add_ignoresym'
p1085
(L134606640L
L134606854L
tp1086
sS'bfd_elf_size_dynsym_hash_dynstr'
p1087
(L134944928L
L134948613L
tp1088
sS'exp_fold_tree_1'
p1089
(L134611536L
L134617962L
tp1090
sS'rsrc_count_directory'
p1091
(L135049536L
L135049982L
tp1092
sS'walk_wild_consider_section'
p1093
(L134563184L
L134563374L
tp1094
sS'walk_wild_section_specs2_wild1'
p1095
(L134564464L
L134564732L
tp1096
sS'sym_is_global'
p1097
(L134833440L
L134833515L
tp1098
sS'_bfd_stab_section_find_nearest_line'
p1099
(L134729264L
L134732016L
tp1100
sS'remember_Btype'
p1101
(L135113168L
L135113231L
tp1102
sS'set_output_arch_default'
p1103
(L134621792L
L134621880L
tp1104
sS'bfd_generic_is_group_section'
p1105
(L134727888L
L134727891L
tp1106
sS'_bfd_add_merge_section'
p1107
(L135109360L
L135110008L
tp1108
sS'_bfd_elf_get_sec_type_attr'
p1109
(L134841824L
L134841972L
tp1110
sS'add_symbols_1'
p1111
(L135101616L
L135101679L
tp1112
sS'bfd_elf_generic_reloc'
p1113
(L134839936L
L134840009L
tp1114
sS'bfd_hash_traverse'
p1115
(L134734832L
L134734952L
tp1116
sS'd_print_mod_0'
p1117
(L135152976L
L135154859L
tp1118
sS'ldemul_parse_args'
p1119
(L134621392L
L134621411L
tp1120
sS'unique_section_p'
p1121
(L134564896L
L134565048L
tp1122
sS'memory_bread'
p1123
(L134688096L
L134688258L
tp1124
sS'binary_object_p'
p1125
(L134756736L
L134756900L
tp1126
sS'stab_link_includes_newfunc'
p1127
(L135104576L
L135104666L
tp1128
sS'bfd_core_file_failing_signal'
p1129
(L135104224L
L135104278L
tp1130
sS'exp_defsym'
p1131
(L134619136L
L134619210L
tp1132
sS'_bfd_elf_copy_private_header_data'
p1133
(L134861056L
L134867489L
tp1134
sS'ldlex_defsym'
p1135
(L134544848L
L134544881L
tp1136
sS'_bfd_dwarf2_find_nearest_line'
p1137
(L134780176L
L134783916L
tp1138
sS'cplus_demangle_name_to_style'
p1139
(L135115312L
L135115373L
tp1140
sS'message'
p1141
(L134635008L
L134635371L
tp1142
sS'exp_get_value_int'
p1143
(L134620480L
L134620485L
tp1144
sS'info_hash_table_newfunc'
p1145
(L134767040L
L134767127L
tp1146
sS'_bfd_pei_swap_aouthdr_in'
p1147
(L135060032L
L135060880L
tp1148
sS'resolve_section'
p1149
(L134901216L
L134901402L
tp1150
sS'_bfd_generic_link_hash_newfunc'
p1151
(L134736688L
L134736783L
tp1152
sS'one_lang_size_sections_pass'
p1153
(L134579184L
L134579239L
tp1154
sS'htab_find'
p1155
(L135191616L
L135191656L
tp1156
sS'd_expr_primary'
p1157
(L135168864L
L135169152L
tp1158
sS'elfcore_write_s390_ctrs'
p1159
(L134891696L
L134891763L
tp1160
sS'bfd_arch_get_compatible'
p1161
(L134682640L
L134682736L
tp1162
sS'is_sym_value'
p1163
(L134521542L
L134521699L
tp1164
sS'expandargv'
p1165
(L135180992L
L135181741L
tp1166
sS'_bfd_elf_section_from_bfd_section'
p1167
(L134846432L
L134846651L
tp1168
sS'd_print_subexpr'
p1169
(L135158064L
L135158389L
tp1170
sS'plugin_call_cleanup'
p1171
(L134638368L
L134638521L
tp1172
sS'sha1_stream'
p1173
(L135179680L
L135179999L
tp1174
sS'bfd_getb_signed_64'
p1175
(L134712352L
L134712494L
tp1176
sS'bfd_find_target'
p1177
(L134732400L
L134732546L
tp1178
sS'dummy_reloc16_estimate'
p1179
(L135031232L
L135031263L
tp1180
sS'bfd_section_already_linked_table_traverse'
p1181
(L134747152L
L134747187L
tp1182
sS'bfd_get_arch_info'
p1183
(L134682816L
L134682824L
tp1184
sS'ignore_section_sym'
p1185
(L134833520L
L134833627L
tp1186
sS'aout_link_input_section'
p1187
(L135005392L
L135010214L
tp1188
sS'new_afile'
p1189
(L134567104L
L134567666L
tp1190
sS'bfd_generic_get_relocated_section_contents'
p1191
(L134724128L
L134725009L
tp1192
sS'is_vma_in_section'
p1193
(L135049504L
L135049536L
tp1194
sS'ldfile_add_library_path'
p1195
(L134626416L
L134626542L
tp1196
sS'find_abstract_instance_name'
p1197
(L134773856L
L134774636L
tp1198
sS'bfd_getl64'
p1199
(L134712224L
L134712349L
tp1200
sS'bfd_get_section_contents'
p1201
(L134727520L
L134727857L
tp1202
sS'_bfd_stab_section_offset'
p1203
(L135108288L
L135108373L
tp1204
sS'_bfd_merged_section_offset'
p1205
(L135111696L
L135112206L
tp1206
sS'_bfd_elf_make_section_from_shdr_0'
p1207
(L134881152L
L134884518L
tp1208
sS'bfd_plugin_set_plugin'
p1209
(L135103040L
L135103050L
tp1210
sS'bfd_elf_bfd_from_remote_memory'
p1211
(L134893984L
L134894005L
tp1212
sS'mri_base'
p1213
(L134598448L
L134598458L
tp1214
sS'rsrc_write_entry'
p1215
(L135050320L
L135050670L
tp1216
sS'generic_add_output_symbol'
p1217
(L134736112L
L134736236L
tp1218
sS'add_cref'
p1219
(L134630976L
L134631355L
tp1220
sS'internal_srec_write_object_contents'
p1221
(L134752272L
L134753162L
tp1222
sS'bfd_plugin_set_program_name'
p1223
(L135103024L
L135103034L
tp1224
sS'make_relative_prefix'
p1225
(L135195312L
L135195337L
tp1226
sS'bfd_tell'
p1227
(L134688928L
L134689029L
tp1228
sS'bfd_elf_final_link'
p1229
(L134957200L
L134967851L
tp1230
sS'yy_fatal_error'
p1231
(L134520670L
L134520718L
tp1232
sS'ldlang_open_output'
p1233
(L134577632L
L134578492L
tp1234
sS'coff_swap_reloc_out'
p1235
(L135029920L
L135030004L
tp1236
sS'unix_lbasename'
p1237
(L135193312L
L135193346L
tp1238
sS'_bfd_nocore_core_file_matches_executable_p'
p1239
(L134710688L
L134710709L
tp1240
sS'i386linux_write_object_contents'
p1241
(L134997552L
L134998289L
tp1242
sS'_bfd_elf_parse_eh_frame'
p1243
(L134981568L
L134986690L
tp1244
sS'_bfd_elf_assign_file_position_for_section'
p1245
(L134843168L
L134843266L
tp1246
sS'ldfile_set_output_arch'
p1247
(L134629232L
L134629358L
tp1248
sS'_bfd_dwarf2_find_inliner_info'
p1249
(L134777968L
L134778044L
tp1250
sS'coff_count_linenumbers'
p1251
(L134694992L
L134695229L
tp1252
sS'read_value'
p1253
(L134981264L
L134981425L
tp1254
sS'ldemul_extra_map_file_text'
p1255
(L134622560L
L134622578L
tp1256
sS'bfd_slurp_bsd_armap_f2'
p1257
(L134672080L
L134672679L
tp1258
sS'i386_aout_linux_mkobject'
p1259
(L134998304L
L134998309L
tp1260
sS'pe_bfd_copy_private_bfd_data'
p1261
(L135041664L
L135041737L
tp1262
sS'lang_for_each_input_file'
p1263
(L134579824L
L134579866L
tp1264
sS'get_symbols_v1'
p1265
(L134636320L
L134636345L
tp1266
sS'get_symbols_v2'
p1267
(L134636288L
L134636313L
tp1268
sS'_bfd_write_archive_contents'
p1269
(L134676720L
L134678501L
tp1270
sS'bfd_set_archive_head'
p1271
(L134667856L
L134667876L
tp1272
sS'_bfd_elf_swap_verneed_out'
p1273
(L134836960L
L134837080L
tp1274
sS'lang_for_each_file'
p1275
(L134579872L
L134579914L
tp1276
sS'dlang_call_convention'
p1277
(L135182560L
L135182716L
tp1278
sS'check_refs'
p1279
(L134629584L
L134629712L
tp1280
sS'elf_i386_info_to_howto_rel'
p1281
(L134789664L
L134789695L
tp1282
sS'cache_bread'
p1283
(L134691936L
L134692480L
tp1284
sS'elf_i386_grok_prstatus'
p1285
(L134788704L
L134788994L
tp1286
sS'lang_gc_sections_1'
p1287
(L134581840L
L134581936L
tp1288
sS'bfd_plugin_sizeof_headers'
p1289
(L135101184L
L135101213L
tp1290
sS'd_demangle_callback'
p1291
(L135169760L
L135170321L
tp1292
sS'bfd_get_mtime'
p1293
(L134689552L
L134689624L
tp1294
sS'notice'
p1295
(L134602048L
L134602264L
tp1296
sS'strrevcmp'
p1297
(L134978224L
L134978330L
tp1298
sS'bfd_get_reloc_size'
p1299
(L134719904L
L134720052L
tp1300
sS'htab_collisions'
p1301
(L135192544L
L135192607L
tp1302
sS'os_region_check'
p1303
(L134559152L
L134559374L
tp1304
sS'lang_add_wild'
p1305
(L134585120L
L134586317L
tp1306
sS'demangle_class_name'
p1307
(L135126848L
L135126948L
tp1308
sS'ldemul_after_parse'
p1309
(L134621072L
L134621082L
tp1310
sS'pass_over'
p1311
(L134760928L
L134761239L
tp1312
sS'bfd_elf32_write_out_phdrs'
p1313
(L134826288L
L134826420L
tp1314
sS'gldelf_i386_get_script'
p1315
(L134639456L
L134639684L
tp1316
sS'read_attribute_value'
p1317
(L134768976L
L134770420L
tp1318
sS'compare_link_order'
p1319
(L134901568L
L134901624L
tp1320
sS'bfd_openw'
p1321
(L134717152L
L134717256L
tp1322
sS'bfd_openr'
p1323
(L134716816L
L134716859L
tp1324
sS'register_tm_clones'
p1325
(L134525872L
L134525927L
tp1326
sS'bfd_get_bits'
p1327
(L134713024L
L134713180L
tp1328
sS'simple_dummy_multiple_definition'
p1329
(L134784000L
L134784006L
tp1330
sS'elf_i386_gc_sweep_hook'
p1331
(L134801984L
L134802762L
tp1332
sS'elf_i386_reloc_name_lookup'
p1333
(L134799760L
L134799841L
tp1334
sS'release_input_file'
p1335
(L134635376L
L134635424L
tp1336
sS'_bfd_elf_strtab_clear_all_refs'
p1337
(L134979168L
L134979210L
tp1338
sS'gldelf32_x86_64_check_needed'
p1339
(L134663968L
L134664188L
tp1340
sS'gldi386linux_open_dynamic_archive'
p1341
(L134652672L
L134652877L
tp1342
sS'elf_i386_relocate_section'
p1343
(L134802768L
L134812633L
tp1344
sS'coff_renumber_symbols'
p1345
(L134695280L
L134696026L
tp1346
sS'bfd_hash_table_free'
p1347
(L134733392L
L134733423L
tp1348
sS'bfd_is_local_label'
p1349
(L134727952L
L134727995L
tp1350
sS'_bfd_elf_eh_frame_present'
p1351
(L134988768L
L134988854L
tp1352
sS'bfd_make_section'
p1353
(L134726864L
L134726899L
tp1354
sS'_bfd_stringtab_add'
p1355
(L134735216L
L134735509L
tp1356
sS'_bfd_generic_link_write_global_symbol'
p1357
(L134736240L
L134736479L
tp1358
sS'aout_32_squirt_out_relocs'
p1359
(L135019776L
L135020036L
tp1360
sS'demangle_qualified'
p1361
(L135120464L
L135121655L
tp1362
sS'bfd_check_format'
p1363
(L134710240L
L134710275L
tp1364
sS'section_iterator_callback'
p1365
(L134554816L
L134554849L
tp1366
sS'gldelf32_x86_64_stat_needed'
p1367
(L134661968L
L134662353L
tp1368
sS'bfd_cache_max_open'
p1369
(L134689776L
L134689889L
tp1370
sS'bfd_flush'
p1371
(L134689040L
L134689059L
tp1372
sS'bfd_arch_i386_long_nop_fill'
p1373
(L135103280L
L135103298L
tp1374
sS'read_address'
p1375
(L134768496L
L134768716L
tp1376
sS'bfd_scan_arch'
p1377
(L134682416L
L134682489L
tp1378
sS'bfd_realloc2'
p1379
(L134711120L
L134711250L
tp1380
sS'after_parse_default'
p1381
(L134621552L
L134621664L
tp1382
sS'_bfd_elf_init_1_index_section'
p1383
(L134944656L
L134944735L
tp1384
sS'cplus_demangle_mangled_name'
p1385
(L135168576L
L135168857L
tp1386
sS'lang_enter_output_section_statement'
p1387
(L134583584L
L134583940L
tp1388
sS'add_ysym'
p1389
(L134606432L
L134606638L
tp1390
sS'filename_eq'
p1391
(L135189040L
L135189075L
tp1392
sS'_objalloc_alloc'
p1393
(L135195472L
L135195743L
tp1394
sS'_bfd_construct_extended_name_table'
p1395
(L134673296L
L134674320L
tp1396
sS'exp_get_fill'
p1397
(L134620496L
L134620834L
tp1398
sS'bfd_set_file_flags'
p1399
(L134684192L
L134684314L
tp1400
sS'exp_get_abs_int'
p1401
(L134620848L
L134621031L
tp1402
sS'bfd_seek'
p1403
(L134689152L
L134689547L
tp1404
sS'_bfd_elf_attr_strdup'
p1405
(L134975712L
L134975770L
tp1406
sS'ldemul_list_emulation_options'
p1407
(L134622336L
L134622495L
tp1408
sS'elf_append_rel'
p1409
(L134974256L
L134974376L
tp1410
sS'ldwrite'
p1411
(L134609728L
L134611242L
tp1412
sS'srec_write_record'
p1413
(L134750320L
L134750887L
tp1414
sS'deregister_tm_clones'
p1415
(L134525824L
L134525866L
tp1416
sS'bfd_sprintf_vma'
p1417
(L134686464L
L134686515L
tp1418
sS'bfd_getl16'
p1419
(L134711744L
L134711761L
tp1420
sS'bfd_get_error'
p1421
(L134683216L
L134683222L
tp1422
sS'_bfd_elf_init_private_section_data'
p1423
(L134860288L
L134860688L
tp1424
sS'elfcore_write_aarch_hw_break'
p1425
(L134892256L
L134892323L
tp1426
sS'code_for_qualifier'
p1427
(L135113024L
L135113070L
tp1428
sS'bfd_section_already_linked_table_insert'
p1429
(L134747248L
L134747319L
tp1430
sS'bfd_reloc_type_lookup'
p1431
(L134723728L
L134723743L
tp1432
sS'_bfd_elf_gc_keep'
p1433
(L134969504L
L134969622L
tp1434
sS'memory_bseek'
p1435
(L134687856L
L134688083L
tp1436
sS'read_uleb128'
p1437
(L134980192L
L134980294L
tp1438
sS'_bfd_elf_strtab_restore_size'
p1439
(L134979216L
L134979334L
tp1440
sS'elf_gc_smash_unused_vtentry_relocs'
p1441
(L134922528L
L134922830L
tp1442
sS'bfd_emul_get_maxpagesize'
p1443
(L134686704L
L134686754L
tp1444
sS'lang_insert_orphan'
p1445
(L134587216L
L134588557L
tp1446
sS'_bfd_elf_link_hash_table_create'
p1447
(L134949344L
L134949444L
tp1448
sS'bfd_elf_gc_record_vtinherit'
p1449
(L134970672L
L134970910L
tp1450
sS'ldfile_open_default_command_file'
p1451
(L134629104L
L134629118L
tp1452
sS'srec_object_p'
p1453
(L134755712L
L134756025L
tp1454
sS'bfd_get_elf_phdrs'
p1455
(L134893472L
L134893555L
tp1456
sS'srec_bad_byte'
p1457
(L134753200L
L134753418L
tp1458
sS'vendor_obj_attr_size'
p1459
(L134974832L
L134975067L
tp1460
sS'lang_find_relro_sections_1'
p1461
(L134582704L
L134582832L
tp1462
sS'elf_gc_sweep_symbol'
p1463
(L134900352L
L134900450L
tp1464
sS'_bfd_elf_dynamic_symbol_p'
p1465
(L134923392L
L134923673L
tp1466
sS'bfd_cache_init'
p1467
(L134690160L
L134690313L
tp1468
sS'elf_vxworks_finish_dynamic_entry'
p1469
(L134820192L
L134820388L
tp1470
sS'add_wrap'
p1471
(L134607504L
L134607710L
tp1472
sS'ldemul_hll'
p1473
(L134621040L
L134621050L
tp1474
sS'do_slurp_bsd_armap'
p1475
(L134666160L
L134666565L
tp1476
sS'compute_build_id_size'
p1477
(L134638704L
L134638911L
tp1478
sS'check_section_callback'
p1479
(L134565056L
L134565112L
tp1480
sS'elf_get_linked_section_vma'
p1481
(L134901408L
L134901561L
tp1482
sS'bfd_elf_string_from_elf_section'
p1483
(L134837824L
L134837854L
tp1484
sS'i386_aout_linux_set_sizes'
p1485
(L134995920L
L134995982L
tp1486
sS'bfd_generic_archive_p'
p1487
(L134670448L
L134670888L
tp1488
sS'lang_new_phdr'
p1489
(L134588848L
L134589092L
tp1490
sS'_bfd_elf_init_reloc_shdr'
p1491
(L134834608L
L134835042L
tp1492
sS'_bfd_generic_init_private_section_data'
p1493
(L134714288L
L134714294L
tp1494
sS'print_one_symbol'
p1495
(L134559472L
L134559520L
tp1496
sS'bfd_get_arch'
p1497
(L134682752L
L134682763L
tp1498
sS'rsrc_parse_entries'
p1499
(L135052976L
L135053601L
tp1500
sS'coff_find_inliner_info'
p1501
(L134707376L
L134707432L
tp1502
sS'bfd_init'
p1503
(L134710464L
L134710466L
tp1504
sS'bfd_set_section_flags'
p1505
(L134726912L
L134726929L
tp1506
sS'aout_32_set_arch_mach'
p1507
(L135012656L
L135012797L
tp1508
sS'lang_enter_group'
p1509
(L134588752L
L134588821L
tp1510
sS'aout_32_get_symtab_upper_bound'
p1511
(L135020416L
L135020463L
tp1512
sS'bfd_section_already_linked_table_init'
p1513
(L134747328L
L134747371L
tp1514
sS'yy_switch_to_buffer'
p1515
(L134537120L
L134537228L
tp1516
sS'bfd_get_elf_phdr_upper_bound'
p1517
(L134893408L
L134893459L
tp1518
sS'_bfd_slurp_extended_name_table'
p1519
(L134672688L
L134673291L
tp1520
sS'bfd_elf_match_symbols_in_sections'
p1521
(L134897824L
L134899699L
tp1522
sS'generic_link_check_archive_element_collect'
p1523
(L134743776L
L134743801L
tp1524
sS'ihex_write_object_contents'
p1525
(L134762016L
L134762845L
tp1526
sS'_bfd_elf_get_special_section'
p1527
(L134841600L
L134841812L
tp1528
sS'linux_link_hash_table_create'
p1529
(L134997328L
L134997420L
tp1530
sS'yyget_out'
p1531
(L134543760L
L134543766L
tp1532
sS'bfd_elf_get_runpath_list'
p1533
(L134949648L
L134949671L
tp1534
sS'cplus_demangle_set_style'
p1535
(L135115264L
L135115305L
tp1536
sS'_bfd_generic_new_section_hook'
p1537
(L134725328L
L134725415L
tp1538
sS'bfd_record_phdr'
p1539
(L134686192L
L134686450L
tp1540
sS'i386_aout_linux_callback'
p1541
(L134998528L
L134999910L
tp1542
sS'eq_file_ptr'
p1543
(L134666112L
L134666139L
tp1544
sS'add_keepsyms_file'
p1545
(L134607712L
L134608271L
tp1546
sS'aout_32_sizeof_headers'
p1547
(L135022448L
L135022462L
tp1548
sS'yyset_lineno'
p1549
(L134543808L
L134543818L
tp1550
sS'elf_i386_link_hash_newfunc'
p1551
(L134799392L
L134799487L
tp1552
sS'cplus_demangle_fill_extended_operator'
p1553
(L135158464L
L135158524L
tp1554
sS'concat_length'
p1555
(L135181808L
L135181860L
tp1556
sS'add_input_library'
p1557
(L134633952L
L134634038L
tp1558
sS'register_claim_file_1'
p1559
(L135101168L
L135101180L
tp1560
sS'_bfd_nearby_section'
p1561
(L134748288L
L134748597L
tp1562
sS'yydestruct'
p1563
(L134526256L
L134526359L
tp1564
sS'htab_expand'
p1565
(L135189728L
L135190259L
tp1566
sS'insert_os_after'
p1567
(L134554864L
L134555038L
tp1568
sS'buildargv'
p1569
(L135180240L
L135180816L
tp1570
sS'bfd_wrapped_link_hash_lookup'
p1571
(L134736992L
L134737455L
tp1572
sS'_bfd_elf_define_linkage_sym'
p1573
(L134913072L
L134913321L
tp1574
sS'opncls_bclose'
p1575
(L134714496L
L134714539L
tp1576
sS'pe_print_debugdata'
p1577
(L135064752L
L135066091L
tp1578
sS'bfd_make_section_anyway_with_flags'
p1579
(L134726432L
L134726606L
tp1580
sS'_bfd_abort'
p1581
(L134683776L
L134683972L
tp1582
sS'coff_i386_rtype_to_howto'
p1583
(L135030432L
L135030808L
tp1584
sS'_bfd_coff_read_string_table'
p1585
(L134699328L
L134699722L
tp1586
sS'htab_try_create'
p1587
(L135190832L
L135190899L
tp1588
sS'binary_canonicalize_symtab'
p1589
(L134756512L
L134756727L
tp1590
sS'coff_make_empty_symbol'
p1591
(L134703744L
L134703807L
tp1592
sS'sort_def_symbol'
p1593
(L134566640L
L134566939L
tp1594
sS'info_assert'
p1595
(L134625616L
L134625675L
tp1596
sS'unwrap_hash_lookup'
p1597
(L134738560L
L134738822L
tp1598
sS'aout_32_mkobject'
p1599
(L135011856L
L135011967L
tp1600
sS'bfd_demangle'
p1601
(L134687024L
L134687609L
tp1602
sS'size_of_output_cie_fde'
p1603
(L134980320L
L134980394L
tp1604
sS'_bfd_write_merged_section'
p1605
(L135111312L
L135111689L
tp1606
sS'ldemul_handle_option'
p1607
(L134621360L
L134621379L
tp1608
sS'bfd_elf_get_default_section_type'
p1609
(L134843136L
L134843163L
tp1610
sS'ldlex_both'
p1611
(L134544944L
L134544977L
tp1612
sS'ignore_bfd_errors'
p1613
(L134555152L
L134555154L
tp1614
sS'bfd_coff_set_symbol_class'
p1615
(L134707504L
L134707750L
tp1616
sS'gldelf32_x86_64_add_sysroot'
p1617
(L134659904L
L134660077L
tp1618
sS'_bfd_elf_encode_eh_address'
p1619
(L134994096L
L134994138L
tp1620
sS'aout_32_link_hash_table_init'
p1621
(L135022656L
L135022661L
tp1622
sS'elf_sort_elf_symbol'
p1623
(L134895280L
L134895299L
tp1624
sS'do_type'
p1625
(L135121664L
L135124933L
tp1626
sS'gldelf_i386_load_symbols'
p1627
(L134639696L
L134639834L
tp1628
sS'bfd_getb64'
p1629
(L134712096L
L134712221L
tp1630
sS'lang_output_section_statement_lookup'
p1631
(L134572512L
L134572856L
tp1632
sS'iterate_demangle_function'
p1633
(L135133024L
L135133437L
tp1634
sS'bfd_elf_link_record_dynamic_symbol'
p1635
(L134914704L
L134914926L
tp1636
sS'ldemul_before_parse'
p1637
(L134621088L
L134621097L
tp1638
sS'_bfd_elf_adjust_dynamic_copy'
p1639
(L134923296L
L134923391L
tp1640
sS'lang_append_dynamic_list_cpp_typeinfo'
p1641
(L134597824L
L134597907L
tp1642
sS'bfd_set_arch_info'
p1643
(L134682736L
L134682748L
tp1644
sS'elf_vxworks_final_write_processing'
p1645
(L134819856L
L134819966L
tp1646
sS'elf_i386_rtype_to_howto'
p1647
(L134789488L
L134789654L
tp1648
sS'filename_hash'
p1649
(L135188976L
L135189037L
tp1650
sS'lang_add_attribute'
p1651
(L134586912L
L134586960L
tp1652
sS'sha1_init_ctx'
p1653
(L135173920L
L135173980L
tp1654
sS'gldelf_i386_handle_option'
p1655
(L134641696L
L134643688L
tp1656
sS'verilog_write_object_contents'
p1657
(L134787008L
L134787504L
tp1658
sS'bfd_get_linker_section'
p1659
(L134725648L
L134725742L
tp1660
sS'yy_load_buffer_state'
p1661
(L134536864L
L134536921L
tp1662
sS'rsrc_print_resource_entries'
p1663
(L135051168L
L135052184L
tp1664
sS'concat'
p1665
(L135182048L
L135182193L
tp1666
sS'unlink_if_ordinary'
p1667
(L135196128L
L135196217L
tp1668
sS'coff_link_add_object_symbols'
p1669
(L135080656L
L135083174L
tp1670
sS'bfd_elf32_slurp_symbol_table'
p1671
(L134821216L
L134822695L
tp1672
sS'htab_traverse'
p1673
(L135192464L
L135192529L
tp1674
sS'walk_wild_section_specs4_wild2'
p1675
(L134563664L
L134564110L
tp1676
sS'lang_do_assignments_1'
p1677
(L134556144L
L134557175L
tp1678
sS'cplus_demangle_print_callback'
p1679
(L135169424L
L135169745L
tp1680
sS'get_init_priority'
p1681
(L134565728L
L134565914L
tp1682
sS'_bfd_pe_print_ce_compressed_pdata'
p1683
(L135066544L
L135067822L
tp1684
sS'lex_redirect'
p1685
(L134544320L
L134544607L
tp1686
sS'_bfd_generic_link_hash_table_free'
p1687
(L134735744L
L134735836L
tp1688
sS'elf_fake_sections'
p1689
(L134835056L
L134836416L
tp1690
sS'bfd_set_section_contents'
p1691
(L134727248L
L134727507L
tp1692
sS'check_input_sections'
p1693
(L134581936L
L134582056L
tp1694
sS'_bfd_xcoff_stringtab_init'
p1695
(L134735136L
L134735159L
tp1696
sS'binary_sizeof_headers'
p1697
(L134756320L
L134756323L
tp1698
sS'make_mapping'
p1699
(L134832304L
L134832421L
tp1700
sS'htab_traverse_noresize'
p1701
(L135192384L
L135192449L
tp1702
sS'_bfd_pei_swap_aouthdr_out'
p1703
(L135060880L
L135062370L
tp1704
sS'bfd_generic_stat_arch_elt'
p1705
(L134675024L
L134675250L
tp1706
sS'_bfd_pei_write_codeview_record'
p1707
(L135066288L
L135066529L
tp1708
sS'elf_link_renumber_hash_table_dynsyms'
p1709
(L134899712L
L134899748L
tp1710
sS'bfd_arch_default_fill'
p1711
(L134682288L
L134682339L
tp1712
sS'_bfd_generic_reloc_link_order'
p1713
(L134745008L
L134745755L
tp1714
sS'strrevcmp_align'
p1715
(L135108528L
L135108655L
tp1716
sS'filename_cmp'
p1717
(L135188944L
L135188949L
tp1718
sS'd_expression_1'
p1719
(L135164272L
L135165742L
tp1720
sS'aout_32_swap_ext_reloc_out'
p1721
(L135017840L
L135018178L
tp1722
sS'ldemul_get_script'
p1723
(L134621248L
L134621258L
tp1724
sS'_bfd_elf_discard_section_eh_frame_hdr'
p1725
(L134988640L
L134988767L
tp1726
sS'bfd_alloc'
p1727
(L134718176L
L134718320L
tp1728
sS'getvalue'
p1729
(L134757280L
L134757407L
tp1730
sS'elfcore_write_note'
p1731
(L134889408L
L134889713L
tp1732
sS'gldelf_i386_try_needed'
p1733
(L134647536L
L134648087L
tp1734
sS'srec_scan'
p1735
(L134753424L
L134755712L
tp1736
sS'tekhex_print_symbol'
p1737
(L134759952L
L134760070L
tp1738
sS'bfd_malloc_and_get_section'
p1739
(L134727872L
L134727887L
tp1740
sS'tekhex_mkobject'
p1741
(L134758528L
L134758607L
tp1742
sS'_bfd_calloc_wrapper'
p1743
(L134666144L
L134666149L
tp1744
sS'lang_update_definedness'
p1745
(L134578544L
L134578706L
tp1746
sS'aout_32_swap_ext_reloc_in'
p1747
(L135018192L
L135018652L
tp1748
sS'dwarf1_unit_find_nearest_line'
p1749
(L134994656L
L134995343L
tp1750
sS'aout_32_canonicalize_reloc'
p1751
(L135020048L
L135020243L
tp1752
sS'default_indirect_link_order'
p1753
(L134737456L
L134738545L
tp1754
sS'gldi386linux_before_parse'
p1755
(L134652528L
L134652572L
tp1756
sS'aout_32_get_reloc_upper_bound'
p1757
(L135020256L
L135020403L
tp1758
sS'bfd_get_relocated_section_contents'
p1759
(L134686096L
L134686185L
tp1760
sS'cplus_demangle_fill_ctor'
p1761
(L135158528L
L135158588L
tp1762
sS'register_claim_file'
p1763
(L134633792L
L134633862L
tp1764
sS'cache_bwrite'
p1765
(L134691760L
L134691922L
tp1766
sS'tekhex_make_empty_symbol'
p1767
(L134757904L
L134757946L
tp1768
sS'do_arg'
p1769
(L135128288L
L135128616L
tp1770
sS'_bfd_generic_minisymbol_to_symbol'
p1771
(L134729248L
L134729255L
tp1772
sS'ldemul_new_vers_pattern'
p1773
(L134622528L
L134622554L
tp1774
sS'undefined_reference'
p1775
(L134896032L
L134896096L
tp1776
sS'init_os'
p1777
(L134573408L
L134573700L
tp1778
sS'coff_slurp_symbol_table_0'
p1779
(L135036224L
L135038524L
tp1780
sS'memory_bwrite'
p1781
(L134688272L
L134688511L
tp1782
sS'bfd_alloc2'
p1783
(L134718320L
L134718412L
tp1784
sS'stash_maybe_update_info_hash_tables'
p1785
(L134777024L
L134777534L
tp1786
sS'write_build_id_1'
p1787
(L134659504L
L134659894L
tp1788
sS'simple_dummy_warning'
p1789
(L134783920L
L134783926L
tp1790
sS'yy_init_buffer'
p1791
(L134537408L
L134537522L
tp1792
sS'_bfd_norelocs_canonicalize_reloc'
p1793
(L134710672L
L134710685L
tp1794
sS'_start'
p1795
(L134525766L
L134525800L
tp1796
sS'gldelf_i386_add_sysroot'
p1797
(L134646304L
L134646477L
tp1798
sS'elf_i386_create_dynamic_sections'
p1799
(L134815152L
L134815459L
tp1800
sS'bfd_elf32_swap_reloca_in'
p1801
(L134820672L
L134820738L
tp1802
sS'bfd_lookup_arch'
p1803
(L134682832L
L134682901L
tp1804
sS'verilog_set_section_contents'
p1805
(L134786576L
L134786837L
tp1806
sS'_bfd_elf_create_dynamic_sections'
p1807
(L134914304L
L134914695L
tp1808
sS'bfd_arch_i386_short_nop_fill'
p1809
(L135103264L
L135103279L
tp1810
sS'aout_32_bfd_free_cached_info'
p1811
(L135022464L
L135022655L
tp1812
sS'_bfd_elf_symbol_from_bfd_symbol'
p1813
(L134860080L
L134860282L
tp1814
sS'writevalue'
p1815
(L134757600L
L134757741L
tp1816
sS'nacl_modify_segment_map'
p1817
(L134817504L
L134818337L
tp1818
sS'gldelf32_x86_64_search_needed'
p1819
(L134661696L
L134661961L
tp1820
sS'dprint_statement'
p1821
(L134578912L
L134579025L
tp1822
sS'dlang_type'
p1823
(L135186880L
L135188021L
tp1824
sS'register_Btype'
p1825
(L135112768L
L135112877L
tp1826
sS'ldctor_build_sets'
p1827
(L134600560L
L134601815L
tp1828
sS'bfd_elf_gc_record_vtentry'
p1829
(L134970912L
L134971242L
tp1830
sS'input_statement_is_archive_path'
p1831
(L134563056L
L134563182L
tp1832
sS'opncls_bseek'
p1833
(L134714320L
L134714395L
tp1834
sS'scan_unit_for_symbols'
p1835
(L134774640L
L134776375L
tp1836
sS'yy_get_previous_state'
p1837
(L134520304L
L134520478L
tp1838
sS'make_relative_prefix_1'
p1839
(L135194032L
L135195303L
tp1840
sS'cache_bstat'
p1841
(L134691376L
L134691487L
tp1842
sS'_bfd_pei_swap_lineno_in'
p1843
(L135059904L
L135059955L
tp1844
sS'bfd_get_size'
p1845
(L134689632L
L134689688L
tp1846
sS'elf_collect_gnu_hash_codes'
p1847
(L134902976L
L134903233L
tp1848
sS'merge_sections_remove_hook'
p1849
(L134896384L
L134896437L
tp1850
sS'ada_demangle'
p1851
(L135115376L
L135116754L
tp1852
sS'lang_memory_region_lookup'
p1853
(L134568256L
L134568574L
tp1854
sS'mark_entry'
p1855
(L134980800L
L134980925L
tp1856
sS'read_rangelist'
p1857
(L134768720L
L134768965L
tp1858
sS'coff_write_linenumbers'
p1859
(L134698704L
L134699132L
tp1860
sS'aout_32_swap_exec_header_in'
p1861
(L135010464L
L135010713L
tp1862
sS'_bfd_create_empty_archive_element_shell'
p1863
(L134667840L
L134667845L
tp1864
sS'get_target'
p1865
(L134555680L
L134555717L
tp1866
sS'bfd_set_symtab'
p1867
(L134728000L
L134728074L
tp1868
sS'_bfd_elf_merge_sections'
p1869
(L134948624L
L134948832L
tp1870
sS'linux_add_one_symbol'
p1871
(L135000800L
L135001481L
tp1872
sS'_bfd_elf_gc_mark_rsec'
p1873
(L134968096L
L134968341L
tp1874
sS'bfd_set_assert_handler'
p1875
(L134683632L
L134683648L
tp1876
sS'print_space'
p1877
(L134625824L
L134625852L
tp1878
sS'_bfd_generic_link_add_symbols'
p1879
(L134743232L
L134743244L
tp1880
sS'ldlex_expression'
p1881
(L134544896L
L134544929L
tp1882
sS'bfd_getl32'
p1883
(L134711952L
L134711989L
tp1884
sS'_bfd_generic_write_ar_hdr'
p1885
(L134674640L
L134674689L
tp1886
sS'_bfd_merge_sections'
p1887
(L135110016L
L135111312L
tp1888
sS'symbolsrec_write_object_contents'
p1889
(L134753184L
L134753198L
tp1890
sS'lex_warn_invalid'
p1891
(L134520478L
L134520670L
tp1892
sS'bfd_map_over_sections'
p1893
(L134726992L
L134727082L
tp1894
sS'elf_i386_size_dynamic_sections'
p1895
(L134794496L
L134797973L
tp1896
sS'dlang_function_type'
p1897
(L135188352L
L135188736L
tp1898
sS'_bfd_elf_swap_verdaux_in'
p1899
(L134836720L
L134836771L
tp1900
sS'__umoddi3'
p1901
(L135197904L
L135198247L
tp1902
sS'ld_cleanup'
p1903
(L134603312L
L134603356L
tp1904
sS'bfd_elf32_checksum_contents'
p1905
(L134826432L
L134827189L
tp1906
sS'bfd_i386_compatible'
p1907
(L135103376L
L135103428L
tp1908
sS'htab_find_slot_with_hash'
p1909
(L135191664L
L135192124L
tp1910
sS'_bfd_elf_copy_private_symbol_data'
p1911
(L134867504L
L134867783L
tp1912
sS'is_default_attr'
p1913
(L134974384L
L134974430L
tp1914
sS'_bfd_pei_swap_scnhdr_out'
p1915
(L135063680L
L135064608L
tp1916
sS'exp_assign'
p1917
(L134619056L
L134619130L
tp1918
sS'_bfd_elf_link_hash_table_free'
p1919
(L134897760L
L134897815L
tp1920
sS'generic_link_add_object_symbols'
p1921
(L134742640L
L134743131L
tp1922
sS'bfd_format_string'
p1923
(L134710416L
L134710452L
tp1924
sS'__libc_csu_fini'
p1925
(L135198368L
L135198370L
tp1926
sS'aout_32_find_nearest_line'
p1927
(L135021296L
L135022447L
tp1928
sS'bfd_elf32_swap_symbol_in'
p1929
(L134820400L
L134820605L
tp1930
sS'plugin_error_plugin'
p1931
(L134636352L
L134636403L
tp1932
sS'MY_bfd_copy_private_section_data'
p1933
(L134999920L
L134999981L
tp1934
sS'check_dynsym'
p1935
(L134900992L
L134901079L
tp1936
sS'd_make_comp'
p1937
(L135136784L
L135136891L
tp1938
sS'bfd_realloc'
p1939
(L134711024L
L134711106L
tp1940
sS'cref_fill_array'
p1941
(L134629472L
L134629576L
tp1942
sS'coff_pe_i386_relocate_section'
p1943
(L135031296L
L135031348L
tp1944
sS'aout_32_link_add_symbols'
p1945
(L135022768L
L135022910L
tp1946
sS'd_exprlist'
p1947
(L135162496L
L135164261L
tp1948
sS'elf_strtab_hash_newfunc'
p1949
(L134978336L
L134978442L
tp1950
sS'_bfd_elf_make_section_from_phdr'
p1951
(L134842192L
L134843048L
tp1952
sS'output_section_callback_tree_to_list'
p1953
(L134577152L
L134577236L
tp1954
sS'version_expr_head_eq'
p1955
(L134555728L
L134555769L
tp1956
sS'bfd_elf_get_bfd_needed_list'
p1957
(L134949728L
L134950105L
tp1958
sS'elf_i386_link_hash_table_free'
p1959
(L134799488L
L134799553L
tp1960
sS'_bfd_elf_copy_private_section_data'
p1961
(L134860688L
L134860837L
tp1962
sS'lang_append_dynamic_list'
p1963
(L134597744L
L134597823L
tp1964
sS'rsrc_write_directory'
p1965
(L135050672L
L135051158L
tp1966
sS'_bfd_elf_slurp_version_tables'
p1967
(L134868672L
L134870921L
tp1968
sS'bfd_section_hash_newfunc'
p1969
(L134725152L
L134725326L
tp1970
sS'bfd_malloc'
p1971
(L134710848L
L134710909L
tp1972
sS'bfd_elf_reloc_symbol_deleted_p'
p1973
(L134895632L
L134895915L
tp1974
sS'd_bare_function_type'
p1975
(L135162304L
L135162388L
tp1976
sS'write_build_id'
p1977
(L134645904L
L134646294L
tp1978
sS'add_archive_element'
p1979
(L134602400L
L134603301L
tp1980
sS'_bfd_elf_link_hash_copy_indirect'
p1981
(L134948832L
L134949129L
tp1982
sS'htab_create_typed_alloc'
p1983
(L135190480L
L135190633L
tp1984
sS'_bfd_generic_mkarchive'
p1985
(L134667680L
L134667723L
tp1986
sS'yypush_buffer_state'
p1987
(L134543136L
L134543266L
tp1988
sS'bfd_stat'
p1989
(L134689072L
L134689144L
tp1990
sS'_bfd_elf_fix_symbol_flags'
p1991
(L134918304L
L134919069L
tp1992
sS'lang_process'
p1993
(L134591760L
L134597476L
tp1994
sS'srec_write_object_contents'
p1995
(L134753168L
L134753179L
tp1996
sS'bfd_core_file_failing_command'
p1997
(L135104160L
L135104210L
tp1998
sS'_bfd_coff_write_global_sym'
p1999
(L135083296L
L135084596L
tp2000
sS'elfcore_write_ppc_vmx'
p2001
(L134891296L
L134891363L
tp2002
sS'coff_new_section_hook'
p2003
(L135049264L
L135049494L
tp2004
sS'd_print_cast'
p2005
(L135157232L
L135157867L
tp2006
sS'string_prepend'
p2007
(L135113760L
L135113808L
tp2008
sS'verilog_mkobject'
p2009
(L134786896L
L134786999L
tp2010
sS'_bfd_elf_get_dynamic_symtab_upper_bound'
p2011
(L134867856L
L134867955L
tp2012
sS'bfd_elf32_slurp_reloc_table'
p2013
(L134825296L
L134825857L
tp2014
sS'bfd_hash_lookup'
p2015
(L134733952L
L134734286L
tp2016
sS'_bfd_archive_bsd44_construct_extended_name_table'
p2017
(L134674416L
L134674630L
tp2018
sS'bfd_get_unique_section_name'
p2019
(L134725904L
L134726162L
tp2020
sS'exp_trinop'
p2021
(L134618496L
L134618689L
tp2022
sS'java_demangle_v3'
p2023
(L135170864L
L135170889L
tp2024
sS'elf_i386_mkobject'
p2025
(L134799904L
L134799939L
tp2026
sS'bfd_default_compatible'
p2027
(L134682352L
L134682395L
tp2028
sS'_bfd_elf_discard_section_eh_frame'
p2029
(L134986864L
L134988638L
tp2030
sS'bfd_section_from_phdr'
p2031
(L134888896L
L134889402L
tp2032
sS'remember_Ktype'
p2033
(L135112880L
L135113016L
tp2034
sS'coff_i386_reloc_type_lookup'
p2035
(L135035648L
L135035826L
tp2036
sS'read_hex'
p2037
(L134638528L
L134638580L
tp2038
sS'aout_32_make_sections'
p2039
(L135010896L
L135011044L
tp2040
sS'_bfd_delete_bfd'
p2041
(L134714720L
L134714799L
tp2042
sS'ldlex_mri_script'
p2043
(L134544704L
L134544737L
tp2044
sS'bfd_set_default_target'
p2045
(L134732320L
L134732396L
tp2046
sS'bfd_fdopenr'
p2047
(L134716864L
L134717035L
tp2048
sS'ldemul_create_output_section_statements'
p2049
(L134621216L
L134621234L
tp2050
sS'bfd_get_arch_size'
p2051
(L134685344L
L134685404L
tp2052
sS'exp_provide'
p2053
(L134619216L
L134619290L
tp2054
sS'get_symbols'
p2055
(L134635472L
L134636283L
tp2056
sS'_bfd_elf_adjust_dynamic_symbol'
p2057
(L134919072L
L134919378L
tp2058
sS'yypop_buffer_state'
p2059
(L134543280L
L134543377L
tp2060
sS'plugin_get_ir_dummy_bfd'
p2061
(L134636848L
L134637076L
tp2062
sS'bfd_create_gnu_debuglink_section'
p2063
(L134719328L
L134719484L
tp2064
sS'_bfd_generic_read_ar_hdr_mag'
p2065
(L134668176L
L134669270L
tp2066
sS'hash_entry_addr_cmp'
p2067
(L134555040L
L134555074L
tp2068
sS'md5_process_block'
p2069
(L135171136L
L135173012L
tp2070
sS'_bfd_pe_get_symbol_info'
p2071
(L135077568L
L135077573L
tp2072
sS'aout_link_write_other_symbol'
p2073
(L135004576L
L135005380L
tp2074
sS'_bfd_elf_link_renumber_dynsyms'
p2075
(L134897040L
L134897321L
tp2076
sS'_bfd_ar_sizepad'
p2077
(L134667472L
L134667669L
tp2078
sS'bfd_false'
p2079
(L134710480L
L134710501L
tp2080
sS'_bfd_elf_make_empty_symbol'
p2081
(L134873856L
L134873891L
tp2082
sS'elf_i386_add_symbol_hook'
p2083
(L134800000L
L134800080L
tp2084
sS'bfd_init_section_decompress_status'
p2085
(L134786112L
L134786391L
tp2086
sS'_bfd_archive_close_and_cleanup'
p2087
(L134681056L
L134681311L
tp2088
sS'yyget_text'
p2089
(L134543792L
L134543798L
tp2090
sS'lang_add_fill'
p2091
(L134586608L
L134586663L
tp2092
sS'ldfile_open_file_search'
p2093
(L134628336L
L134628716L
tp2094
sS'bfd_perform_relocation'
p2095
(L134720272L
L134721346L
tp2096
sS'ihex_sizeof_headers'
p2097
(L134761472L
L134761475L
tp2098
sS'i386_aout_linux_object_p'
p2099
(L134998320L
L134998524L
tp2100
sS'elfcore_write_aarch_hw_watch'
p2101
(L134892336L
L134892403L
tp2102
sS'set_symbol_from_hash'
p2103
(L134735840L
L134736106L
tp2104
sS'_bfd_link_section_stabs'
p2105
(L135104672L
L135106875L
tp2106
sS'get_alt_debug_link_info_shim'
p2107
(L134719184L
L134719255L
tp2108
sS'demangle_nested_args'
p2109
(L135129328L
L135129452L
tp2110
sS'_bfd_elf32_bfd_from_remote_memory'
p2111
(L134829168L
L134830542L
tp2112
sS'bfd_elf_stack_segment_size'
p2113
(L134938512L
L134938973L
tp2114
sS'demangle_signature'
p2115
(L135130752L
L135133023L
tp2116
sS'gldelf32_x86_64_append_to_separated_string'
p2117
(L134655040L
L134655284L
tp2118
sS'check_nocrossref'
p2119
(L134630000L
L134630278L
tp2120
sS'opncls_bwrite'
p2121
(L134714480L
L134714491L
tp2122
sS'_bfd_coff_debug_merge_hash_newfunc'
p2123
(L135080560L
L135080646L
tp2124
sS'srec_sizeof_headers'
p2125
(L134749472L
L134749475L
tp2126
sS'gldelf32_x86_64_place_orphan'
p2127
(L134662432L
L134663964L
tp2128
sS'bfd_true'
p2129
(L134710512L
L134710518L
tp2130
sS'cplus_demangle_print'
p2131
(L135170448L
L135170699L
tp2132
sS'elf_vxworks_add_symbol_hook'
p2133
(L134819104L
L134819178L
tp2134
sS'bfd_print_symbol_vandf'
p2135
(L134728080L
L134728444L
tp2136
sS'ldemul_recognized_file'
p2137
(L134621456L
L134621475L
tp2138
sS'ldlex_script'
p2139
(L134544608L
L134544641L
tp2140
sS'exp_get_vma'
p2141
(L134620336L
L134620474L
tp2142
sS'_bfd_generic_link_output_symbols'
p2143
(L134743808L
L134744994L
tp2144
sS'_bfd_compute_and_write_armap'
p2145
(L134675728L
L134676715L
tp2146
sS'elf_sort_symbol'
p2147
(L134895184L
L134895265L
tp2148
sS'bfd_elf32_swap_reloca_out'
p2149
(L134820816L
L134820896L
tp2150
sS'aout_32_write_syms'
p2151
(L135016096L
L135017292L
tp2152
sS'bfd_coff_get_comdat_section'
p2153
(L134707760L
L134707794L
tp2154
sS'lang_map_flags'
p2155
(L134556032L
L134556142L
tp2156
sS'bfd_hash_allocate'
p2157
(L134734592L
L134734707L
tp2158
sS'_bfd_write_stab_strings'
p2159
(L135108080L
L135108279L
tp2160
sS'__do_global_dtors_aux'
p2161
(L134525936L
L134525966L
tp2162
sS'elf_i386_always_size_sections'
p2163
(L134797984L
L134798242L
tp2164
sS'_bfd_elf_ifunc_get_synthetic_symtab'
p2165
(L134816576L
L134817497L
tp2166
sS'MY_close_and_cleanup'
p2167
(L134997504L
L134997549L
tp2168
sS'elf_find_function'
p2169
(L134832432L
L134832965L
tp2170
sS'bfd_create'
p2171
(L134717680L
L134717756L
tp2172
sS'_bfd_elf_tls_setup'
p2173
(L134923872L
L134923978L
tp2174
sS'in_reloc_p'
p2175
(L135029808L
L135029838L
tp2176
sS'string_prepend_0'
p2177
(L135182912L
L135183020L
tp2178
sS'bfd_get_alt_debug_link_info'
p2179
(L134718880L
L134719169L
tp2180
sS'elf_vxworks_gott_symbol_p'
p2181
(L134819024L
L134819104L
tp2182
sS'swap_abort'
p2183
(L135104128L
L135104159L
tp2184
sS'_bfd_elf_sizeof_headers'
p2185
(L134874784L
L134874921L
tp2186
sS'_bfd_generic_verify_endian_match'
p2187
(L134713792L
L134713930L
tp2188
sS'_bfd_elf_no_info_to_howto'
p2189
(L134875088L
L134875119L
tp2190
sS'bfd_elf32_write_relocs'
p2191
(L134824128L
L134824644L
tp2192
sS'bfd_printable_arch_mach'
p2193
(L134682992L
L134683041L
tp2194
sS'bsd_write_armap'
p2195
(L134678512L
L134679760L
tp2196
sS'bfd_zalloc2'
p2197
(L134718656L
L134718773L
tp2198
sS'htab_find_with_hash'
p2199
(L135191280L
L135191605L
tp2200
sS'_bfd_norelocs_get_reloc_upper_bound'
p2201
(L134710656L
L134710662L
tp2202
sS'opncls_bflush'
p2203
(L134714544L
L134714547L
tp2204
sS'bfd_get_debug_link_info'
p2205
(L134714800L
L134715017L
tp2206
sS'htab_size'
p2207
(L135190272L
L135190280L
tp2208
sS'mri_load'
p2209
(L134599264L
L134599309L
tp2210
sS'aout_get_external_symbols'
p2211
(L135001712L
L135002123L
tp2212
sS'ldlex_version_script'
p2213
(L134544752L
L134544785L
tp2214
sS'_bfd_elf_allocate_ifunc_dyn_relocs'
p2215
(L134815888L
L134816574L
tp2216
sS'match_simple_wild'
p2217
(L134558864L
L134558963L
tp2218
sS'concat_copy'
p2219
(L135181872L
L135181949L
tp2220
sS'new_fixup'
p2221
(L134999984L
L135000060L
tp2222
sS'_bfd_elf_section_offset'
p2223
(L134893840L
L134893983L
tp2224
sS'mri_output_section'
p2225
(L134598352L
L134598400L
tp2226
sS'gldelf_i386_list_options'
p2227
(L134639840L
L134641437L
tp2228
sS'coff_set_alignment_hook'
p2229
(L135033696L
L135034353L
tp2230
sS'd_ref_qualifier'
p2231
(L135137248L
L135137327L
tp2232
sS'_bfd_elf_add_dynamic_entry'
p2233
(L134923984L
L134924185L
tp2234
sS'ihex_bad_byte'
p2235
(L134763120L
L134763338L
tp2236
sS'multiple_common'
p2237
(L134605744L
L134606421L
tp2238
sS'ldfile_add_arch'
p2239
(L134629120L
L134629218L
tp2240
sS'_bfd_elf_link_assign_sym_version'
p2241
(L134919392L
L134920265L
tp2242
sS'add_symbols'
p2243
(L134634144L
L134634994L
tp2244
sS'_bfd_elf_merge_symbol'
p2245
(L134914928L
L134918289L
tp2246
sS'bfd_link_add_undef'
p2247
(L134738976L
L134739060L
tp2248
sS'lang_list_remove_tail'
p2249
(L134555200L
L134555263L
tp2250
sS'simple_dummy_undefined_symbol'
p2251
(L134783936L
L134783942L
tp2252
sS'bfd_openr_next_archived_file'
p2253
(L134670208L
L134670275L
tp2254
sS'bfd_generic_is_local_label_name'
p2255
(L134713744L
L134713781L
tp2256
sS'elf32_r_sym'
p2257
(L134830560L
L134830568L
tp2258
sS'cache_btell'
p2259
(L134691680L
L134691746L
tp2260
sS'_bfd_pe_print_private_bfd_data_common'
p2261
(L135067824L
L135076793L
tp2262
sS'_bfd_elf_close_and_cleanup'
p2263
(L134875552L
L134875653L
tp2264
sS'_bfd_handle_already_linked'
p2265
(L134747408L
L134748067L
tp2266
sS'bfd_emul_set_maxpagesize'
p2267
(L134686768L
L134686853L
tp2268
sS'bfd_elf_get_dyn_lib_class'
p2269
(L134949504L
L134949553L
tp2270
sS'eq_pointer'
p2271
(L135189440L
L135189455L
tp2272
sS'close_one'
p2273
(L134690016L
L134690102L
tp2274
sS'bfd_elf_get_obj_attr_int'
p2275
(L134975600L
L134975706L
tp2276
sS'elf_i386_get_synthetic_symtab'
p2277
(L134798832L
L134798921L
tp2278
sS'bfd_putb16'
p2279
(L134711840L
L134711859L
tp2280
sS'input'
p2281
(L134521307L
L134521467L
tp2282
sS'_bfd_coff_get_external_symbols'
p2283
(L134699152L
L134699319L
tp2284
sS'elfcore_grok_nto_regs'
p2285
(L134834288L
L134834608L
tp2286
sS'bfd_putl32'
p2287
(L134712688L
L134712721L
tp2288
sS'd_append_char'
p2289
(L135137424L
L135137538L
tp2290
sS'bfd_elf32_core_file_matches_executable_p'
p2291
(L134830672L
L134830799L
tp2292
sS'aout_32_new_section_hook'
p2293
(L135014336L
L135014531L
tp2294
sS'_bfd_count_link_order_relocs'
p2295
(L134747088L
L134747126L
tp2296
sS'_bfd_pei_swap_aux_out'
p2297
(L135059184L
L135059891L
tp2298
sS'_bfd_elf_rel_local_sym'
p2299
(L134893760L
L134893832L
tp2300
sS'srec_get_byte'
p2301
(L134751136L
L134751210L
tp2302
sS'bfd_elf32_core_file_p'
p2303
(L134830800L
L134831957L
tp2304
sS'bfd_fopen'
p2305
(L134716480L
L134716812L
tp2306
sS'string_append_0'
p2307
(L135113808L
L135113866L
tp2308
sS'_bfd_link_hash_newfunc'
p2309
(L134736576L
L134736680L
tp2310
sS'ldemul_find_potential_libraries'
p2311
(L134622496L
L134622515L
tp2312
sS'memory_bstat'
p2313
(L134687664L
L134687782L
tp2314
sS'demangle_function_name'
p2315
(L135129456L
L135130746L
tp2316
sS'bfd_elf32_swap_dyn_out'
p2317
(L134820960L
L134821021L
tp2318
sS'insert_info_hash_table'
p2319
(L134776912L
L134777009L
tp2320
sS'elf_i386_fbsd_post_process_headers'
p2321
(L134788224L
L134788229L
tp2322
sS'lfinfo'
p2323
(L134622896L
L134622939L
tp2324
sS'strip_excluded_output_sections'
p2325
(L134584112L
L134584417L
tp2326
sS'set_segment_start'
p2327
(L134545056L
L134545285L
tp2328
sS'internal_cplus_demangle'
p2329
(L135135024L
L135136770L
tp2330
sS'_bfd_elf_maybe_strip_eh_frame_hdr'
p2331
(L134988864L
L134988968L
tp2332
sS'lang_ld_feature'
p2333
(L134598016L
L134598221L
tp2334
sS'gldelf_i386_find_exp_assignment'
p2335
(L134645360L
L134645560L
tp2336
sS'xmalloc_failed'
p2337
(L135196496L
L135196619L
tp2338
sS'_bfd_elf_strtab_refcount'
p2339
(L134979136L
L134979154L
tp2340
sS'init_reloc_cookie'
p2341
(L134896096L
L134896370L
tp2342
sS'aout_32_read_minisymbols'
p2343
(L135020896L
L135021023L
tp2344
sS'string_prependn'
p2345
(L135113664L
L135113751L
tp2346
sS'd_discriminator'
p2347
(L135137888L
L135137923L
tp2348
sS'aout_32_final_link'
p2349
(L135022912L
L135029796L
tp2350
sS'md5_read_ctx'
p2351
(L135171088L
L135171123L
tp2352
sS'_bfd_elfcore_strndup'
p2353
(L134876016L
L134876113L
tp2354
sS'elf_link_sort_cmp2'
p2355
(L134900288L
L134900351L
tp2356
sS'elf_i386_link_hash_table_create'
p2357
(L134799568L
L134799760L
tp2358
sS'elf_link_sort_cmp1'
p2359
(L134900192L
L134900279L
tp2360
sS'ldemul_unrecognized_file'
p2361
(L134621424L
L134621443L
tp2362
sS'bfd_get_target_info'
p2363
(L134732560L
L134732889L
tp2364
sS'yy_delete_buffer'
p2365
(L134537232L
L134537325L
tp2366
sS'htab_delete'
p2367
(L135190912L
L135191031L
tp2368
sS'bfd_hide_sym_by_version'
p2369
(L134749424L
L134749471L
tp2370
sS'buy_and_read'
p2371
(L135033168L
L135033281L
tp2372
sS'comp_unit_find_nearest_line'
p2373
(L134777536L
L134777959L
tp2374
sS'bfd_check_overflow'
p2375
(L134720064L
L134720266L
tp2376
sS'output_section_callback'
p2377
(L134576512L
L134577145L
tp2378
sS'bfd_zalloc'
p2379
(L134718416L
L134718475L
tp2380
sS'bfd_hash_rename'
p2381
(L134734288L
L134734483L
tp2382
sS'ld_bfd_assert_handler'
p2383
(L134601824L
L134601878L
tp2384
sS'gldelf32_x86_64_handle_option'
p2385
(L134655296L
L134657288L
tp2386
sS'htab_create_alloc_ex'
p2387
(L135190304L
L135190477L
tp2388
sS'xstrerror'
p2389
(L135196960L
L135197042L
tp2390
sS'pop_stat_ptr'
p2391
(L134567984L
L134568045L
tp2392
sS'work_stuff_copy_to_from'
p2393
(L135114224L
L135114950L
tp2394
sS'exp_relop'
p2395
(L134618128L
L134618196L
tp2396
sS'_bfd_elf_write_corefile_contents'
p2397
(L134860064L
L134860069L
tp2398
sS'u16_mbtouc'
p2399
(L135053936L
L135054025L
tp2400
sS'_bfd_elf_strtab_emit'
p2401
(L134979520L
L134979746L
tp2402
sS'coff_print_symbol'
p2403
(L134704448L
L134705873L
tp2404
sS'skip_cfa_op'
p2405
(L134980400L
L134980800L
tp2406
sS'exp_unop'
p2407
(L134618704L
L134618865L
tp2408
sS'mri_align'
p2409
(L134599872L
L134599918L
tp2410
sS'ldemul_after_open'
p2411
(L134621104L
L134621114L
tp2412
sS'sha1_finish_ctx'
p2413
(L135178960L
L135179208L
tp2414
sS'elfcore_write_prfpreg'
p2415
(L134891056L
L134891123L
tp2416
sS'_bfd_elf_strtab_free'
p2417
(L134978576L
L134978616L
tp2418
sS'simple_dummy_reloc_dangerous'
p2419
(L134783968L
L134783974L
tp2420
sS'ldversion'
p2421
(L134622592L
L134622885L
tp2422
sS'string_append'
p2423
(L135182496L
L135182554L
tp2424
sS'bfd_section_already_linked_table_lookup'
p2425
(L134747200L
L134747243L
tp2426
sS'dlang_identifier'
p2427
(L135185360L
L135186398L
tp2428
sS'd_encoding'
p2429
(L135167104L
L135168563L
tp2430
sS'bfd_is_undefined_symclass'
p2431
(L134728912L
L134728939L
tp2432
sS'bfd_link_hash_traverse'
p2433
(L134738832L
L134738976L
tp2434
sS'_bfd_coff_link_hash_newfunc'
p2435
(L135080448L
L135080558L
tp2436
sS'ihex_set_section_contents'
p2437
(L134762848L
L134763119L
tp2438
sS'aout_32_link_hash_table_create'
p2439
(L135022672L
L135022764L
tp2440
sS'bfd_arch_bits_per_byte'
p2441
(L134682784L
L134682795L
tp2442
sS'elf_vxworks_create_dynamic_sections'
p2443
(L134819184L
L134819372L
tp2444
sS'linux_link_hash_newfunc'
p2445
(L134997424L
L134997500L
tp2446
sS'generic_link_check_archive_element_no_collect'
p2447
(L134743744L
L134743769L
tp2448
sS'_bfd_elf_archive_symbol_lookup'
p2449
(L134924768L
L134925088L
tp2450
sS'_bfd_generic_get_section_contents_in_window'
p2451
(L134713536L
L134713567L
tp2452
sS'd_operator_name'
p2453
(L135160800L
L135161230L
tp2454
sS'check_reloc_refs'
p2455
(L134630288L
L134630895L
tp2456
sS'_bfd_generic_link_hash_table_create'
p2457
(L134739152L
L134739244L
tp2458
sS'strcut'
p2459
(L134557328L
L134557401L
tp2460
sS'xstrdup'
p2461
(L135196896L
L135196946L
tp2462
sS'_bfd_stringtab_emit'
p2463
(L134735536L
L134735693L
tp2464
sS'lang_add_entry'
p2465
(L134586400L
L134586467L
tp2466
sS'yylex'
p2467
(L134537760L
L134543132L
tp2468
sS'comp_unit_contains_address'
p2469
(L134768000L
L134768038L
tp2470
sS'aout_link_includes_newfunc'
p2471
(L135003584L
L135003674L
tp2472
sS'bfd_elf_set_dt_needed_name'
p2473
(L134949456L
L134949501L
tp2474
sS'elf_i386_allocate_local_dynrelocs'
p2475
(L134812640L
L134812726L
tp2476
sS'_bfd_stringtab_free'
p2477
(L134735168L
L134735207L
tp2478
sS'coff_find_nearest_line_with_names'
p2479
(L134705920L
L134707251L
tp2480
sS'_bfd_elf_write_section_eh_frame'
p2481
(L134989472L
L134993030L
tp2482
sS'bfd_elf_link_add_symbols'
p2483
(L134925088L
L134938348L
tp2484
sS'_bfd_elf_gc_mark'
p2485
(L134968352L
L134968771L
tp2486
sS'getpwd'
p2487
(L135189088L
L135189371L
tp2488
sS'aout_32_some_aout_object_p'
p2489
(L135011056L
L135011846L
tp2490
sS'bfd_reloc_name_lookup'
p2491
(L134723744L
L134723759L
tp2492
sS'demangle_args'
p2493
(L135128624L
L135129315L
tp2494
sS'elf_swap_shdr_out'
p2495
(L134823552L
L134823747L
tp2496
sS'bfd_elf_set_dyn_lib_class'
p2497
(L134949568L
L134949613L
tp2498
sS'elf_i386_local_htab_eq'
p2499
(L134788144L
L134788182L
tp2500
sS'_bfd_elf_rela_local_sym'
p2501
(L134893584L
L134893748L
tp2502
sS'generic_link_add_symbols'
p2503
(L134743136L
L134743225L
tp2504
sS'yy_get_next_buffer'
p2505
(L134520718L
L134521307L
tp2506
sS'aout_link_add_symbols'
p2507
(L135002368L
L135003580L
tp2508
sS'_bfd_elf_copy_obj_attributes'
p2509
(L134976224L
L134976591L
tp2510
sS'bfd_hash_insert'
p2511
(L134733424L
L134733942L
tp2512
sS'elfcore_write_aarch_tls'
p2513
(L134892176L
L134892243L
tp2514
sS'_bfd_elf_strtab_delref'
p2515
(L134978976L
L134979132L
tp2516
sS'symbolsrec_object_p'
p2517
(L134756032L
L134756276L
tp2518
sS'coff_get_lineno'
p2519
(L134699136L
L134699144L
tp2520
sS'bfd_init_section_compress_status'
p2521
(L134786400L
L134786574L
tp2522
sS'coff_write_symbols'
p2523
(L134697024L
L134698693L
tp2524
sS'aout_link_check_archive_element'
p2525
(L135003760L
L135004567L
tp2526
sS'd_growable_string_callback_adapter'
p2527
(L135139200L
L135139393L
tp2528
sS'gldelf32_x86_64_before_allocation'
p2529
(L134657920L
L134658955L
tp2530
sS'lang_add_output'
p2531
(L134583536L
L134583575L
tp2532
sS'_bfd_elf_link_hash_fixup_symbol'
p2533
(L134923248L
L134923291L
tp2534
sS'lang_leave_output_section_statement'
p2535
(L134587056L
L134587201L
tp2536
sS'xmalloc_set_program_name'
p2537
(L135196432L
L135196485L
tp2538
sS'strrevcmp_1'
p2539
(L135108416L
L135108522L
tp2540
sS'first_phase'
p2541
(L134758608L
L134759506L
tp2542
sS'write_value'
p2543
(L134981440L
L134981561L
tp2544
sS'coff_mangle_symbols'
p2545
(L134696032L
L134696417L
tp2546
sS'coff_print_aux'
p2547
(L135035568L
L135035646L
tp2548
sS'_bfd_elf_make_section_from_shdr'
p2549
(L134884528L
L134884570L
tp2550
sS'styp_to_sec_flags'
p2551
(L135039424L
L135041536L
tp2552
sS'elf_vxworks_add_dynamic_entries'
p2553
(L134819968L
L134820191L
tp2554
sS'get_input_file'
p2555
(L134635424L
L134635472L
tp2556
sS'print_one_symbol_0'
p2557
(L134559376L
L134559458L
tp2558
sS'_bfd_coff_final_link'
p2559
(L135094784L
L135099569L
tp2560
sS'bfd_elf32_core_file_pid'
p2561
(L134830640L
L134830660L
tp2562
sS'_bfd_generic_link_split_section'
p2563
(L134747136L
L134747139L
tp2564
sS'elf_link_renumber_local_hash_table_dynsyms'
p2565
(L134899760L
L134899796L
tp2566
sS'_bfd_elf_hash_symbol'
p2567
(L134938352L
L134938408L
tp2568
sS'sha1_process_bytes'
p2569
(L135179216L
L135179521L
tp2570
sS'_bfd_coff_free_symbols'
p2571
(L134701904L
L134702007L
tp2572
sS'add_line_info'
p2573
(L134767136L
L134767910L
tp2574
sS'_bfd_elf_swap_verdef_out'
p2575
(L134836560L
L134836720L
tp2576
sS'aout_32_swap_std_reloc_in'
p2577
(L135018656L
L135019253L
tp2578
sS'ldlang_override_segment_assignment'
p2579
(L134579040L
L134579184L
tp2580
sS'elf_i386_hash_symbol'
p2581
(L134788240L
L134788275L
tp2582
sS'build_link_order'
p2583
(L134608272L
L134609720L
tp2584
sS'get_count'
p2585
(L135112432L
L135112565L
tp2586
sS'mri_add_to_list'
p2587
(L134598224L
L134598350L
tp2588
sS'yyget_leng'
p2589
(L134543776L
L134543782L
tp2590
sS'bfd_elf_lookup_section_flags'
p2591
(L134971248L
L134971638L
tp2592
sS'bfd_core_file_pid'
p2593
(L135104288L
L135104342L
tp2594
sS'd_find_pack'
p2595
(L135138960L
L135139049L
tp2596
sS'_bfd_elf_link_sec_merge_syms'
p2597
(L134903872L
L134903976L
tp2598
sS'bfd_get_section_by_name_if'
p2599
(L134725744L
L134725892L
tp2600
sS'higher_prime_index'
p2601
(L135189584L
L135189719L
tp2602
sS'concat_filename'
p2603
(L134770432L
L134770871L
tp2604
sS'lang_add_nocrossref'
p2605
(L134589104L
L134589150L
tp2606
sS'dummy_reloc16_extra_cases'
p2607
(L135031264L
L135031295L
tp2608
sS'ldemul_set_output_arch'
p2609
(L134621152L
L134621162L
tp2610
sS'bfd_generic_openr_next_archived_file'
p2611
(L134670288L
L134670441L
tp2612
sS'_bfd_coff_internal_syment_name'
p2613
(L134701744L
L134701892L
tp2614
sS'_bfd_new_bfd_contained_in'
p2615
(L134716256L
L134716356L
tp2616
sS'bfd_getl_signed_64'
p2617
(L134712496L
L134712638L
tp2618
sS'_bfd_elf_gc_mark_fdes'
p2619
(L134986704L
L134986853L
tp2620
sS'd_abi_tags'
p2621
(L135138144L
L135138217L
tp2622
sS'coff_bfd_make_debug_symbol'
p2623
(L134703808L
L134703916L
tp2624
sS'gldelf32_x86_64_before_parse'
p2625
(L134662368L
L134662422L
tp2626
sS'output_section_callback_fast'
p2627
(L134566096L
L134566301L
tp2628
sS'_bfd_dwarf1_find_nearest_line'
p2629
(L134995344L
L134995909L
tp2630
sS'bfd_set_section_size'
p2631
(L134727184L
L134727242L
tp2632
sS'bfd_get_next_section_by_name'
p2633
(L134725568L
L134725641L
tp2634
sS'dos_lbasename'
p2635
(L135193360L
L135193433L
tp2636
sS'elf_i386_get_plt_sym_val'
p2637
(L134798928L
L134799382L
tp2638
sS'lang_default_entry'
p2639
(L134586480L
L134586490L
tp2640
sS'coff_swap_reloc_in'
p2641
(L135029840L
L135029907L
tp2642
sS'sec_merge_add'
p2643
(L135109264L
L135109356L
tp2644
sS'ldlex_popstate'
p2645
(L134544992L
L134545015L
tp2646
sS'demangle_template'
p2647
(L135118848L
L135120449L
tp2648
sS'lang_symbol_defined'
p2649
(L134578496L
L134578539L
tp2650
sS'coff_get_symtab_upper_bound'
p2651
(L134694288L
L134694343L
tp2652
sS'bfd_elf_size_dynamic_sections'
p2653
(L134938976L
L134944647L
tp2654
sS'tekhex_canonicalize_symtab'
p2655
(L134757520L
L134757575L
tp2656
sS'writesym'
p2657
(L134758400L
L134758519L
tp2658
sS'_bfd_elf_parse_attributes'
p2659
(L134976592L
L134977289L
tp2660
sS'elf_link_flush_output_syms'
p2661
(L134903296L
L134903454L
tp2662
sS'_bfd_nocore_core_file_pid'
p2663
(L134710784L
L134710805L
tp2664
sS'htab_empty'
p2665
(L135191040L
L135191275L
tp2666
sS'compute_bucket_count'
p2667
(L134896448L
L134897039L
tp2668
sS'_bfd_coff_read_internal_relocs'
p2669
(L134694464L
L134694992L
tp2670
sS'resolve_symbol'
p2671
(L134907504L
L134907835L
tp2672
sS'_bfd_elf_single_rel_hdr'
p2673
(L134843056L
L134843128L
tp2674
sS'elfcore_write_prstatus'
p2675
(L134890816L
L134891044L
tp2676
sS'_bfd_pei_swap_lineno_out'
p2677
(L135059968L
L135060032L
tp2678
sS'd_print_comp_inner'
p2679
(L135139408L
L135152897L
tp2680
sS'exp_binop'
p2681
(L134618304L
L134618481L
tp2682
sS'_bfd_coff_link_add_symbols'
p2683
(L135084960L
L135085040L
tp2684
sS'bfd_link_hash_lookup'
p2685
(L134736912L
L134736987L
tp2686
sS'md5_finish_ctx'
p2687
(L135173024L
L135173177L
tp2688
sS'bfd_elf32_core_file_failing_signal'
p2689
(L134830608L
L134830627L
tp2690
sS'_bfd_elf_symbol_refs_local_p'
p2691
(L134923680L
L134923859L
tp2692
sS'ldemul_after_allocation'
p2693
(L134621120L
L134621130L
tp2694
sS'simple_dummy_einfo'
p2695
(L134784016L
L134784018L
tp2696
sS'cref_hash_newfunc'
p2697
(L134629360L
L134629458L
tp2698
sS'_bfd_elf_strtab_offset'
p2699
(L134979360L
L134979520L
tp2700
sS'bfd_printable_name'
p2701
(L134682400L
L134682411L
tp2702
sS'aout_32_link_hash_newfunc'
p2703
(L135002256L
L135002354L
tp2704
sS'compare_section'
p2705
(L134565920L
L134566092L
tp2706
sS'_bfd_elf_make_dynamic_reloc_section'
p2707
(L134973872L
L134974034L
tp2708
sS'_bfd_pe_only_swap_filehdr_out'
p2709
(L135063488L
L135063672L
tp2710
sS'ldfile_open_file'
p2711
(L134628720L
L134629087L
tp2712
sS'gldelf_i386_open_dynamic_archive'
p2713
(L134643904L
L134644314L
tp2714
sS'elf_link_output_sym'
p2715
(L134903456L
L134903868L
tp2716
sS'lang_do_assignments'
p2717
(L134579248L
L134579332L
tp2718
sS'opncls_bmmap'
p2719
(L134714560L
L134714566L
tp2720
sS'bfd_sections_find_if'
p2721
(L134727088L
L134727172L
tp2722
sS'_bfd_coff_is_local_label_name'
p2723
(L134705888L
L134705914L
tp2724
sS'bfd_arch_i386_fill'
p2725
(L135103056L
L135103249L
tp2726
sS'vma_compare'
p2727
(L134981200L
L134981255L
tp2728
sS'elfcore_write_s390_prefix'
p2729
(L134891776L
L134891843L
tp2730
sS'xrealloc'
p2731
(L135196752L
L135196818L
tp2732
sS'sha1_read_ctx'
p2733
(L135173984L
L135174031L
tp2734
sS'linux_tally_symbols'
p2735
(L135000064L
L135000794L
tp2736
sS'undefined_symbol'
p2737
(L134606864L
L134607500L
tp2738
sS'null_error_handler'
p2739
(L134692480L
L134692482L
tp2740
sS'_bfd_generic_link_just_syms'
p2741
(L134739280L
L134739314L
tp2742
sS'opncls_bstat'
p2743
(L134714576L
L134714710L
tp2744
sS'gldelf32_x86_64_parse_ld_so_conf'
p2745
(L134660080L
L134661136L
tp2746
sS'coff_link_output_has_begun'
p2747
(L135030416L
L135030431L
tp2748
sS'_bfd_nocore_core_file_failing_signal'
p2749
(L134710752L
L134710773L
tp2750
sS'find_relro_section_callback'
p2751
(L134559072L
L134559147L
tp2752
sS'eval_symbol'
p2753
(L134907840L
L134912803L
tp2754
sS'lang_add_unique'
p2755
(L134597632L
L134597732L
tp2756
sS'lang_statement_append'
p2757
(L134588560L
L134588581L
tp2758
sS'plugin_call_all_symbols_read'
p2759
(L134638272L
L134638359L
tp2760
sS'binary_get_symbol_info'
p2761
(L134756336L
L134756357L
tp2762
sS'cplus_demangle_init_info'
p2763
(L135170704L
L135170795L
tp2764
sS'bfd_hash_table_init'
p2765
(L134733344L
L134733388L
tp2766
sS'reconcat'
p2767
(L135182208L
L135182373L
tp2768
sS'lang_enter_overlay_section'
p2769
(L134589232L
L134589431L
tp2770
sS'gldelf_i386_after_open'
p2771
(L134650592L
L134652276L
tp2772
sS'exp_print_tree'
p2773
(L134619360L
L134620329L
tp2774
sS'coff_section_from_bfd_index'
p2775
(L134694208L
L134694286L
tp2776
sS'coff_get_symbol_info'
p2777
(L134703920L
L134703989L
tp2778
sS'bfd_0'
p2779
(L134710560L
L134710563L
tp2780
sS'register_cleanup'
p2781
(L134633632L
L134633702L
tp2782
sS'_bfd_elf_link_lookup_local_dynindx'
p2783
(L134921424L
L134921486L
tp2784
sS'bfd_generic_merge_sections'
p2785
(L134724112L
L134724118L
tp2786
sS'bfd_malloc2'
p2787
(L134710912L
L134711023L
tp2788
sS'_bfd_generic_set_section_contents'
p2789
(L134713568L
L134713684L
tp2790
sS'elfcore_write_prpsinfo'
p2791
(L134889728L
L134890011L
tp2792
sS'gldi386linux_before_allocation'
p2793
(L134652976L
L134653052L
tp2794
sS'gldelf_i386_before_allocation'
p2795
(L134644320L
L134645355L
tp2796
sS'gldelf32_x86_64_add_options'
p2797
(L134657296L
L134657498L
tp2798
sS'bfd_elf_gc_common_finalize_got_offsets'
p2799
(L134971648L
L134972051L
tp2800
sS'__divdi3'
p2801
(L135197056L
L135197426L
tp2802
sS'out'
p2803
(L134758048L
L134758395L
tp2804
sS'_bfd_generic_link_add_one_symbol'
p2805
(L134740144L
L134742626L
tp2806
sS'bfd_coff_get_auxent'
p2807
(L134704144L
L134704433L
tp2808
sS'nacl_final_write_processing'
p2809
(L134818672L
L134819011L
tp2810
sS'_bfd_elf_swap_vernaux_out'
p2811
(L134837200L
L134837320L
tp2812
sS'bfd_putl16'
p2813
(L134711872L
L134711889L
tp2814
sS'binary_set_section_contents'
p2815
(L134756912L
L134757176L
tp2816
sS'bfd_plugin_canonicalize_symtab'
p2817
(L135102704L
L135103009L
tp2818
sS'memory_bmmap'
p2819
(L134687648L
L134687654L
tp2820
sS'add_to_set'
p2821
(L134605584L
L134605744L
tp2822
sS'validate_build_id_style'
p2823
(L134638592L
L134638701L
tp2824
sS'_bfd_elf_write_section_eh_frame_hdr'
p2825
(L134993040L
L134994042L
tp2826
sS'bfd_bwrite'
p2827
(L134688816L
L134688928L
tp2828
sS'bfd_get_sign_extend_vma'
p2829
(L134685408L
L134685666L
tp2830
sS'parse_args'
p2831
(L134545296L
L134554803L
tp2832
sS'bfd_plugin_object_p'
p2833
(L135102336L
L135102695L
tp2834
sS'dupargv'
p2835
(L135180000L
L135180170L
tp2836
sS'constructor_callback'
p2837
(L134605056L
L134605574L
tp2838
sS'coff_write_object_contents'
p2839
(L135041744L
L135046041L
tp2840
sS'check_local_sym_xref'
p2841
(L134629712L
L134629996L
tp2842
sS'bfd_0u'
p2843
(L134710576L
L134710579L
tp2844
sS'lang_new_vers_pattern'
p2845
(L134590240L
L134590709L
tp2846
sS'handle_asneeded_cref'
p2847
(L134631360L
L134632102L
tp2848
sS'bfd_0l'
p2849
(L134710592L
L134710595L
tp2850
sS'get_program_header_size'
p2851
(L134832976L
L134833433L
tp2852
sS'elfcore_write_s390_todcmp'
p2853
(L134891536L
L134891603L
tp2854
sS'gldelf32_x86_64_find_statement_assignment'
p2855
(L134659168L
L134659192L
tp2856
sS'd_template_args'
p2857
(L135165744L
L135166018L
tp2858
sS'elf_sym_name_compare'
p2859
(L134895920L
L134895947L
tp2860
sS'ihex_write_record'
p2861
(L134761632L
L134762005L
tp2862
sS'_bfd_get_gp_value'
p2863
(L134685872L
L134685946L
tp2864
sS'coff_canonicalize_reloc'
p2865
(L135038560L
L135039416L
tp2866
sS'elf_final_link_free'
p2867
(L134912816L
L134913061L
tp2868
sS'elf_vxworks_link_output_symbol_hook'
p2869
(L134819376L
L134819446L
tp2870
sS'ldemul_add_options'
p2871
(L134621328L
L134621357L
tp2872
sS'elf_link_check_versioned_symbol'
p2873
(L134901984L
L134902856L
tp2874
sS'init_reloc_cookie_for_section'
p2875
(L134922304L
L134922525L
tp2876
sS'exp_fold_tree'
p2877
(L134618208L
L134618243L
tp2878
sS'coff_object_p'
p2879
(L134701280L
L134701744L
tp2880
sS'make_relative_prefix_ignore_links'
p2881
(L135195344L
L135195369L
tp2882
sS'bfd_emul_set_commonpagesize'
p2883
(L134686928L
L134687013L
tp2884
sS'bfd_getb_signed_16'
p2885
(L134711776L
L134711801L
tp2886
sS'_bfd_dummy_target'
p2887
(L134710816L
L134710837L
tp2888
sS'ldemul_default_target'
p2889
(L134621504L
L134621540L
tp2890
sS'cache_bseek'
p2891
(L134691584L
L134691673L
tp2892
sS'sha1_process_block'
p2893
(L135174032L
L135178948L
tp2894
sS'gnu_special'
p2895
(L135133440L
L135135015L
tp2896
sS'tekhex_sizeof_headers'
p2897
(L134757744L
L134757747L
tp2898
sS'gldelf_i386_vercheck'
p2899
(L134652288L
L134652492L
tp2900
sS'arange_add'
p2901
(L134768304L
L134768493L
tp2902
sS'bfd_set_reloc'
p2903
(L134683664L
L134683683L
tp2904
sS'lang_definedness_newfunc'
p2905
(L134555264L
L134555369L
tp2906
sS'bfd_plugin_get_symtab_upper_bound'
p2907
(L135101248L
L135101312L
tp2908
sS'bfd_plugin_get_symbol_info'
p2909
(L135101536L
L135101557L
tp2910
sS'real_fseek'
p2911
(L134688528L
L134688533L
tp2912
sS'concat_copy2'
p2913
(L135181952L
L135182038L
tp2914
sS'srec_canonicalize_symtab'
p2915
(L134749504L
L134749681L
tp2916
sS'yy_flush_buffer'
p2917
(L134537328L
L134537405L
tp2918
sS'_bfd_free_cached_info'
p2919
(L134716368L
L134716472L
tp2920
sS'ldemul_place_orphan'
p2921
(L134621296L
L134621316L
tp2922
sS'elf_vxworks_emit_relocs'
p2923
(L134819456L
L134819852L
tp2924
sS'set_cplus_marker_for_demangling'
p2925
(L135115104L
L135115114L
tp2926
sS'ihex_object_p'
p2927
(L134763344L
L134765742L
tp2928
sS'lang_add_insert'
p2929
(L134588672L
L134588744L
tp2930
sS'_bfd_elf_match_sections_by_type'
p2931
(L134950112L
L134950202L
tp2932
sS'emit_stringtab'
p2933
(L135002128L
L135002253L
tp2934
sS'_bfd_default_error_handler'
p2935
(L134684320L
L134685342L
tp2936
sS'_bfd_pe_bfd_copy_private_bfd_data_common'
p2937
(L135076800L
L135077355L
tp2938
sS'ldlang_add_undef'
p2939
(L134578720L
L134578814L
tp2940
sS'lang_add_output_format'
p2941
(L134588592L
L134588669L
tp2942
sS'_bfd_coff_link_hash_table_init'
p2943
(L135084704L
L135084854L
tp2944
sS'multiple_definition'
p2945
(L134603840L
L134604317L
tp2946
sS'elf_i386_grok_psinfo'
p2947
(L134788336L
L134788698L
tp2948
sS'obj_attr_size'
p2949
(L134974432L
L134974528L
tp2950
sS'_bfd_elf_link_size_reloc_section'
p2951
(L134902864L
L134902975L
tp2952
sS'cache_bflush'
p2953
(L134691488L
L134691576L
tp2954
sS'ldlang_add_file'
p2955
(L134579920L
L134580089L
tp2956
sS'add_excluded_libs'
p2957
(L134577248L
L134577487L
tp2958
sS'd_substitution'
p2959
(L135138224L
L135138731L
tp2960
sS'elf_renumber_gnu_hash_syms'
p2961
(L134899920L
L134900188L
tp2962
sS'objalloc_create'
p2963
(L135195376L
L135195472L
tp2964
sS'sort_by_secaddr'
p2965
(L135030304L
L135030338L
tp2966
sS'htab_find_slot'
p2967
(L135192128L
L135192176L
tp2968
sS'lang_memory_region_alias'
p2969
(L134572112L
L134572490L
tp2970
sS'ldemul_list_emulations'
p2971
(L134622016L
L134622096L
tp2972
sS'free_split_directories'
p2973
(L135193584L
L135193640L
tp2974
sS'bfd_default_reloc_type_lookup'
p2975
(L134723760L
L134723912L
tp2976
sS'aout_32_reloc_name_lookup'
p2977
(L135010352L
L135010459L
tp2978
sS'_bfd_elf_link_omit_section_dynsym'
p2979
(L134921488L
L134921682L
tp2980
sS'd_append_string'
p2981
(L135139056L
L135139199L
tp2982
sS'_bfd_elf_merge_unknown_attribute_low'
p2983
(L134977712L
L134977924L
tp2984
sS'd_name'
p2985
(L135166032L
L135167093L
tp2986
sS'lang_output_section_find_by_flags'
p2987
(L134573824L
L134574882L
tp2988
sS'coff_sizeof_headers'
p2989
(L134707440L
L134707496L
tp2990
sS'_bfd_generic_get_section_contents'
p2991
(L134713184L
L134713531L
tp2992
sS'bfd_fill_in_gnu_debuglink_section'
p2993
(L134719488L
L134719895L
tp2994
sS'elf_swap_ehdr_in'
p2995
(L134822704L
L134822979L
tp2996
sS'bfd_plugin_bfd_copy_private_bfd_data'
p2997
(L135101504L
L135101536L
tp2998
sS'_bfd_elf_link_find_version_dependencies'
p2999
(L134901632L
L134901981L
tp3000
sS'find_debug_info'
p3001
(L134768160L
L134768294L
tp3002
sS'move_section_contents'
p3003
(L134759520L
L134759777L
tp3004
sS'yyget_lineno'
p3005
(L134543728L
L134543734L
tp3006
sS'elfcore_write_s390_last_break'
p3007
(L134891856L
L134891923L
tp3008
sS'lang_startup'
p3009
(L134586960L
L134587036L
tp3010
sS'yy_scan_string'
p3011
(L134543680L
L134543713L
tp3012
sS'find_chunk'
p3013
(L134757760L
L134757898L
tp3014
sS'_bfd_elf_gc_mark_reloc'
p3015
(L134968784L
L134968904L
tp3016
sS'bfd_emul_get_commonpagesize'
p3017
(L134686864L
L134686914L
tp3018
sS'update_wild_statements'
p3019
(L134555776L
L134556025L
tp3020
sS'hash_pointer'
p3021
(L135189456L
L135189581L
tp3022
sS'copy_name'
p3023
(L134692496L
L134692592L
tp3024
sS'output_cref'
p3025
(L134632112L
L134633100L
tp3026
sS'binary_get_section_contents'
p3027
(L134757184L
L134757270L
tp3028
sS'ldfile_try_open_bfd'
p3029
(L134627072L
L134628331L
tp3030
sS'coff_set_section_contents'
p3031
(L135032880L
L135033162L
tp3032
sS'bfd_elf32_swap_phdr_in'
p3033
(L134825872L
L134826071L
tp3034
sS'sec_merge_hash_lookup'
p3035
(L135108784L
L135109260L
tp3036
sS'string_need'
p3037
(L135113504L
L135113604L
tp3038
sS'add_input_file'
p3039
(L134634048L
L134634134L
tp3040
sS'ldlex_inputlist'
p3041
(L134544656L
L134544689L
tp3042
sS'_bfd_elf_set_section_contents'
p3043
(L134874928L
L134875073L
tp3044
sS'lang_get_regions'
p3045
(L134571920L
L134572110L
tp3046
sS'aout_32_machine_type'
p3047
(L135011968L
L135012645L
tp3048
sS'frame_dummy'
p3049
(L134525968L
L134526013L
tp3050
sS'yy_scan_bytes'
p3051
(L134543552L
L134543665L
tp3052
sS'd_count_templates_scopes'
p3053
(L135137328L
L135137424L
tp3054
sS'dlang_function_args'
p3055
(L135188032L
L135188343L
tp3056
sS'snarf_numeric_literal'
p3057
(L135113984L
L135114147L
tp3058
sS'bfd_write_bigendian_4byte_int'
p3059
(L134711600L
L134711710L
tp3060
sS'getsym'
p3061
(L134757408L
L134757514L
tp3062
sS'hll_default'
p3063
(L134621952L
L134622003L
tp3064
sS'hex_init'
p3065
(L135193296L
L135193298L
tp3066
sS'tekhex_object_p'
p3067
(L134761248L
L134761466L
tp3068
sS'aout_32_slurp_reloc_table'
p3069
(L135019264L
L135019776L
tp3070
sS'bfd_set_gp_size'
p3071
(L134685792L
L134685870L
tp3072
sS'lang_leave_overlay_section'
p3073
(L134589440L
L134589831L
tp3074
sS'bfd_follow_gnu_debugaltlink'
p3075
(L134719296L
L134719322L
tp3076
sS'plugin_load_plugins'
p3077
(L134637104L
L134637954L
tp3078
sS'comment'
p3079
(L134521467L
L134521542L
tp3080
sS'_bfd_fix_excluded_sec_syms'
p3081
(L134748736L
L134748774L
tp3082
sS'bfd_putl64'
p3083
(L134712816L
L134712893L
tp3084
sS'tekhex_set_section_contents'
p3085
(L134759792L
L134759865L
tp3086
sS'forget_types'
p3087
(L135113232L
L135113316L
tp3088
sS'linux_finish_dynamic_link'
p3089
(L134996304L
L134997266L
tp3090
sS'dlang_value'
p3091
(L135184272L
L135185352L
tp3092
sS'_bfd_default_assert_handler'
p3093
(L134683200L
L134683207L
tp3094
sS'info_msg'
p3095
(L134625488L
L134625532L
tp3096
sS'bfd_get_section_by_name'
p3097
(L134725504L
L134725564L
tp3098
sS'elf_i386_is_local_label_name'
p3099
(L134799856L
L134799900L
tp3100
sS'_bfd_elf_swap_versym_out'
p3101
(L134837360L
L134837391L
tp3102
sS'_bfd_elfcore_make_pseudosection'
p3103
(L134875680L
L134876009L
tp3104
sS'bfd_plugin_bfd_copy_private_section_data'
p3105
(L135101472L
L135101504L
tp3106
sS'_bfd_link_hash_table_init'
p3107
(L134736784L
L134736905L
tp3108
sS'bfd_i386linux_size_dynamic_sections'
p3109
(L135001488L
L135001711L
tp3110
sS'_bfd_elf_swap_verneed_in'
p3111
(L134836848L
L134836946L
tp3112
sS'comp_unit_maybe_decode_line_info'
p3113
(L134776384L
L134776499L
tp3114
sS'_bfd_elf_is_function_type'
p3115
(L134894976L
L134894993L
tp3116
sS'aout_32_canonicalize_symtab'
p3117
(L135017296L
L135017396L
tp3118
sS'lang_add_assignment'
p3119
(L134586848L
L134586903L
tp3120
sS'bfd_elf_perform_complex_relocation'
p3121
(L134950208L
L134951015L
tp3122
sS'lex_push_file'
p3123
(L134544096L
L134544308L
tp3124
sS'_bfd_elf_fixup_group_sections'
p3125
(L134860848L
L134861052L
tp3126
sS'tekhex_write_object_contents'
p3127
(L134760192L
L134760917L
tp3128
sS'writeargv'
p3129
(L135180816L
L135180978L
tp3130
sS'gldelf32_x86_64_vercheck'
p3131
(L134665888L
L134666092L
tp3132
sS'simple_dummy_unattached_reloc'
p3133
(L134783984L
L134783990L
tp3134
sS'walk_wild_section_general'
p3135
(L134563488L
L134563662L
tp3136
sS'elf32_generic_link_add_symbols'
p3137
(L135100976L
L135101047L
tp3138
sS'_bfd_elf_common_section_index'
p3139
(L134973712L
L134973718L
tp3140
sS'mri_alignmod'
p3141
(L134599920L
L134599966L
tp3142
sS'check_for_relocs'
p3143
(L135101056L
L135101162L
tp3144
sS'_bfd_elf_merge_object_attributes'
p3145
(L134977296L
L134977698L
tp3146
sS'trad_unix_core_file_failing_command'
p3147
(L135103440L
L135103469L
tp3148
sS'read_section'
p3149
(L134766464L
L134766922L
tp3150
sS'_bfd_archive_coff_construct_extended_name_table'
p3151
(L134674368L
L134674407L
tp3152
sS'bfd_cache_delete'
p3153
(L134689904L
L134690014L
tp3154
sS'elf_append_rela'
p3155
(L134974128L
L134974248L
tp3156
sS'_bfd_pei_final_link_postscript'
p3157
(L135077584L
L135080437L
tp3158
sS'simple_restore_output_info'
p3159
(L134784096L
L134784130L
tp3160
sS'bfd_plugin_bfd_copy_private_symbol_data'
p3161
(L135101440L
L135101472L
tp3162
sS'delete_non_B_K_work_stuff'
p3163
(L135113328L
L135113494L
tp3164
sS'bfd_bsd_truncate_arname'
p3165
(L134675264L
L134675384L
tp3166
sS'_bfd_set_gp_value'
p3167
(L134685952L
L134686067L
tp3168
sS'lang_add_target'
p3169
(L134586496L
L134586551L
tp3170
sS'pe_mkobject_hook'
p3171
(L135033472L
L135033689L
tp3172
sS'output_section_statement_newfunc'
p3173
(L134555376L
L134555673L
tp3174
sS'lang_for_each_statement_worker'
p3175
(L134567680L
L134567848L
tp3176
sS'string_appends'
p3177
(L135114160L
L135114220L
tp3178
sS'_bfd_elf_gc_mark_extra_sections'
p3179
(L134968912L
L134969302L
tp3180
sS'string_appendn'
p3181
(L135113616L
L135113664L
tp3182
sS'cplus_demangle_fill_dtor'
p3183
(L135158592L
L135158652L
tp3184
sS'xatexit_0'
p3185
(L135196272L
L135196387L
tp3186
sS'_bfd_dwarf2_slurp_debug_info'
p3187
(L134778544L
L134780171L
tp3188
sS'cplus_demangle_v3'
p3189
(L135170800L
L135170824L
tp3190
sS'bfd_cache_close_all'
p3191
(L134690368L
L134690446L
tp3192
sS'_bfd_merge_sections_free'
p3193
(L135112208L
L135112257L
tp3194
sS'bfd_new_link_order'
p3195
(L134745760L
L134745836L
tp3196
sS'gldelf32_x86_64_get_script'
p3197
(L134653056L
L134653284L
tp3198
sS'exp_bigintop'
p3199
(L134618048L
L134618116L
tp3200
sS'gldelf32_x86_64_find_exp_assignment'
p3201
(L134658960L
L134659160L
tp3202
sS'insert_pad'
p3203
(L134566944L
L134567095L
tp3204
sS'mri_truncate'
p3205
(L134599968L
L134599978L
tp3206
sS'name_match'
p3207
(L134562944L
L134563049L
tp3208
sS'elf_add_dt_needed_tag'
p3209
(L134924192L
L134924607L
tp3210
sS'_bfd_elf_relocs_compatible'
p3211
(L134924624L
L134924687L
tp3212
sS'elfcore_write_register_note'
p3213
(L134892416L
L134893404L
tp3214
sS'elf_slurp_reloc_table_from_section'
p3215
(L134824656L
L134825295L
tp3216
sS'_bfd_elf_section_already_linked'
p3217
(L134972768L
L134973685L
tp3218
sS'gldelf32_x86_64_try_needed'
p3219
(L134661136L
L134661687L
tp3220
sS'lang_set_flags'
p3221
(L134579664L
L134579822L
tp3222
sS'yyrealloc'
p3223
(L134544064L
L134544069L
tp3224
sS'generic_link_check_archive_element'
p3225
(L134743264L
L134743743L
tp3226
sS'_bfd_generic_link_add_symbols_collect'
p3227
(L134743248L
L134743263L
tp3228
sS'bfd_elf_obj_attr_size'
p3229
(L134975072L
L134975123L
tp3230
sS'htab_clear_slot'
p3231
(L135192304L
L135192378L
tp3232
sS'_bfd_elf_merge_unknown_attribute_list'
p3233
(L134977936L
L134978215L
tp3234
sS'_bfd_elf_swap_verdef_in'
p3235
(L134836416L
L134836546L
tp3236
sS'lang_list_init'
p3237
(L134567888L
L134567902L
tp3238
sS'_bfd_elf_eh_frame_address_size'
p3239
(L134994048L
L134994076L
tp3240
sS'bfd_zmalloc2'
p3241
(L134711456L
L134711592L
tp3242
sS'bfd_coff_get_syment'
p3243
(L134704000L
L134704144L
tp3244
sS'_bfd_generic_read_ar_hdr'
p3245
(L134669280L
L134669307L
tp3246
sS'lang_new_vers_node'
p3247
(L134590720L
L134590775L
tp3248
sS'gldelf32_x86_64_open_dynamic_archive'
p3249
(L134657504L
L134657914L
tp3250
sS'aout_32_slurp_symbol_table'
p3251
(L135015856L
L135016087L
tp3252
sS'coff_i386_reloc'
p3253
(L135030816L
L135031231L
tp3254
sS'exp_print_token'
p3255
(L134611328L
L134611530L
tp3256
sS'dlang_parse_integer'
p3257
(L135183072L
L135183734L
tp3258
sS'_bfd_elf_copy_link_hash_symbol_type'
p3259
(L134974048L
L134974116L
tp3260
sS'bfd_elf_gnu_hash'
p3261
(L134837456L
L134837502L
tp3262
sS'htab_remove_elt'
p3263
(L135192256L
L135192296L
tp3264
sS'elfcore_write_xstatereg'
p3265
(L134891216L
L134891283L
tp3266
sS'_bfd_elf_strtab_size'
p3267
(L134979344L
L134979360L
tp3268
sS'bfd_section_init'
p3269
(L134725024L
L134725144L
tp3270
sS'_bfd_elf_strtab_init'
p3271
(L134978448L
L134978572L
tp3272
sS'gldi386linux_create_output_section_statements'
p3273
(L134652496L
L134652515L
tp3274
sS'bfd_void'
p3275
(L134710640L
L134710642L
tp3276
sS'sort_sections_by_lma'
p3277
(L134555088L
L134555151L
tp3278
sS'elf_swap_shdr_in'
p3279
(L134823328L
L134823544L
tp3280
sS'elf_link_adjust_relocs'
p3281
(L134521699L
L134522098L
tp3282
sS'elf_sort_sections'
p3283
(L134832128L
L134832300L
tp3284
sS'htab_elements'
p3285
(L135190288L
L135190299L
tp3286
sS'verilog_set_arch_mach'
p3287
(L134786848L
L134786885L
tp3288
sS'bfd_plugin_core_file_pid'
p3289
(L135101312L
L135101341L
tp3290
sS'd_print_expr_op'
p3291
(L135157872L
L135158057L
tp3292
sS'MY_final_link_callback'
p3293
(L134995984L
L134996290L
tp3294
sS'_bfd_elf_link_hash_table_init'
p3295
(L134949232L
L134949342L
tp3296
sS'bfd_elf_allocate_object'
p3297
(L134837504L
L134837682L
tp3298
sS'warning_find_reloc'
p3299
(L134604656L
L134605053L
tp3300
sS'bfd_elf_is_group_section'
p3301
(L134839904L
L134839926L
tp3302
sS'_bfd_pei_swap_aux_in'
p3303
(L135058496L
L135059184L
tp3304
sS'elfcore_write_s390_tdb'
p3305
(L134892016L
L134892083L
tp3306
sS'bfd_canonicalize_reloc'
p3307
(L134684128L
L134684191L
tp3308
sS'cie_eq'
p3309
(L134980928L
L134981191L
tp3310
sS'_bfd_stringtab_size'
p3311
(L134735520L
L134735528L
tp3312
sS'_bfd_elf_check_kept_section'
p3313
(L134951104L
L134951266L
tp3314
sS'elf_swap_ehdr_out'
p3315
(L134822992L
L134823328L
tp3316
sS'gldelf32_x86_64_after_open'
p3317
(L134664192L
L134665876L
tp3318
sS'coff_compute_section_file_positions'
p3319
(L135031360L
L135032879L
tp3320
sS'_bfd_elf_compute_section_file_positions'
p3321
(L134846656L
L134859323L
tp3322
sS'_bfd_stringtab_init'
p3323
(L134735008L
L134735124L
tp3324
sS'_bfd_elf_get_symbol_info'
p3325
(L134873904L
L134873925L
tp3326
sS'__x86.get_pc_thunk.bx'
p3327
(L134525808L
L134525812L
tp3328
sS'bfd_getl_signed_32'
p3329
(L134712048L
L134712085L
tp3330
sS'dlang_parse_symbol'
p3331
(L135186400L
L135186871L
tp3332
sS'mri_order'
p3333
(L134599312L
L134599358L
tp3334
sS'd_parmlist'
p3335
(L135161232L
L135161432L
tp3336
sS'__moddi3'
p3337
(L135197440L
L135197890L
tp3338
sS'exp_intop'
p3339
(L134617968L
L134618036L
tp3340
sS'htab_set_functions_ex'
p3341
(L135190704L
L135190750L
tp3342
sS'__libc_csu_init'
p3343
(L135198256L
L135198353L
tp3344
sS'_bfd_coff_generic_relocate_section'
p3345
(L135099584L
L135100934L
tp3346
sS'yyalloc_0'
p3347
(L134544048L
L134544053L
tp3348
sS'bfd_mmap'
p3349
(L134689696L
L134689765L
tp3350
sS'exp_init_os'
p3351
(L134573248L
L134573406L
tp3352
sS'_bfd_discard_section_stabs'
p3353
(L135106880L
L135107602L
tp3354
sS'bfd_get_assert_handler'
p3355
(L134683648L
L134683654L
tp3356
sS'cplus_demangle_v3_callback'
p3357
(L135170832L
L135170857L
tp3358
sS'_bfd_elf_link_create_dynamic_sections'
p3359
(L134913648L
L134914300L
tp3360
sS'bfd_arch_mach_octets_per_byte'
p3361
(L134683136L
L134683193L
tp3362
sS'elf_gc_propagate_vtable_entries_used'
p3363
(L134895312L
L134895506L
tp3364
sS'bfd_getb_signed_32'
p3365
(L134712000L
L134712035L
tp3366
sS'gldelf_i386_add_options'
p3367
(L134643696L
L134643898L
tp3368
sS'plugin_notice'
p3369
(L134633168L
L134633632L
tp3370
sS'ldemul_open_dynamic_archive'
p3371
(L134621264L
L134621284L
tp3372
sS'yy_symbol_print'
p3373
(L134526144L
L134526242L
tp3374
sS'exp_fold_tree_no_dot'
p3375
(L134618256L
L134618295L
tp3376
sS'bfd_get_mach'
p3377
(L134682768L
L134682779L
tp3378
sS'gldelf32_x86_64_load_symbols'
p3379
(L134653296L
L134653434L
tp3380
sS'rsrc_compute_region_sizes'
p3381
(L135049984L
L135050153L
tp3382
sS'bfd_cache_lookup_worker'
p3383
(L134690752L
L134691061L
tp3384
sS'bfd_putb32'
p3385
(L134712640L
L134712675L
tp3386
sS'bfd_cache_section_contents'
p3387
(L134785840L
L134785882L
tp3388
s.