(dp0
S'cplus_demangle_print_callback'
p1
(L135038496L
L135038817L
tp2
sS'elf_link_output_extsym'
p3
(L134765232L
L134768745L
tp4
sS'is_default_attr'
p5
(L134835632L
L134835678L
tp6
sS'i386_aout_linux_set_sizes'
p7
(L134857168L
L134857230L
tp8
sS'writevalue'
p9
(L134618848L
L134618989L
tp10
sS'find_separate_debug_file'
p11
(L134581680L
L134582415L
tp12
sS'elf_i386_local_htab_eq'
p13
(L134649392L
L134649430L
tp14
sS'bfd_default_set_arch_mach'
p15
(L134551984L
L134552058L
tp16
sS'generic_link_add_symbols'
p17
(L134604384L
L134604473L
tp18
sS'strrevcmp_align'
p19
(L134977600L
L134977727L
tp20
sS'_bfd_elf_swap_versym_in'
p21
(L134698576L
L134698607L
tp22
sS'pe_bfd_object_p'
p23
(L134907440L
L134910511L
tp24
sS'aout_link_add_symbols'
p25
(L134863616L
L134864828L
tp26
sS'bfd_set_section_contents'
p27
(L134588496L
L134588755L
tp28
sS'styp_to_sec_flags'
p29
(L134900672L
L134902784L
tp30
sS'print_value'
p31
(L134527952L
L134528077L
tp32
sS'_bfd_elf_copy_obj_attributes'
p33
(L134837472L
L134837839L
tp34
sS'bfd_hash_insert'
p35
(L134594672L
L134595190L
tp36
sS'ihex_mkobject'
p37
(L134622736L
L134622807L
tp38
sS'_bfd_xcoff_stringtab_init'
p39
(L134596384L
L134596407L
tp40
sS'rsrc_print_resource_directory'
p41
(L134913440L
L134914212L
tp42
sS'_bfd_elf_strtab_delref'
p43
(L134840224L
L134840380L
tp44
sS'bfd_coff_get_syment'
p45
(L134570368L
L134570512L
tp46
sS'bfd_make_section_old_way'
p47
(L134587424L
L134587675L
tp48
sS'coff_get_lineno'
p49
(L134565504L
L134565512L
tp50
sS'binary_sizeof_headers'
p51
(L134617568L
L134617571L
tp52
sS'bfd_init_section_compress_status'
p53
(L134647648L
L134647822L
tp54
sS'coff_write_symbols'
p55
(L134563392L
L134565061L
tp56
sS'bfd_elf_add_obj_attr_int'
p57
(L134837136L
L134837231L
tp58
sS'bfd_section_already_linked_table_init'
p59
(L134608576L
L134608619L
tp60
sS'simple_dummy_warning'
p61
(L134645168L
L134645174L
tp62
sS'elf_new_obj_attr'
p63
(L134835952L
L134836067L
tp64
sS'_bfd_generic_link_hash_table_free'
p65
(L134596992L
L134597084L
tp66
sS'coff_write_alien_symbol'
p67
(L134562800L
L134563392L
tp68
sS'bfd_generic_stat_arch_elt'
p69
(L134544096L
L134544322L
tp70
sS'bfd_close'
p71
(L134583632L
L134583868L
tp72
sS'd_growable_string_callback_adapter'
p73
(L135008272L
L135008465L
tp74
sS'bfd_arch_i386_short_nop_fill'
p75
(L134964512L
L134964527L
tp76
sS'fix_syms'
p77
(L134609856L
L134609980L
tp78
sS'nacl_modify_segment_map'
p79
(L134678752L
L134679585L
tp80
sS'fatal'
p81
(L134530896L
L134530931L
tp82
sS'write_obj_attribute'
p83
(L134835776L
L134835937L
tp84
sS'd_print_cast'
p85
(L135026304L
L135026939L
tp86
sS'dlang_function_type'
p87
(L135048448L
L135048832L
tp88
sS'bfd_get_full_section_contents'
p89
(L134646336L
L134647076L
tp90
sS'simple_dummy_unattached_reloc'
p91
(L134645232L
L134645238L
tp92
sS'lrealpath'
p93
(L135053520L
L135053615L
tp94
sS'_bfd_elf_strtab_add'
p95
(L134839872L
L134840105L
tp96
sS'generic_core_file_matches_executable_p'
p97
(L134968384L
L134968514L
tp98
sS'_bfd_archive_bsd_construct_extended_name_table'
p99
(L134543392L
L134543431L
tp100
sS'print_symname'
p101
(L134522032L
L134522148L
tp102
sS'strrevcmp_1'
p103
(L134977488L
L134977594L
tp104
sS'_bfd_elf_link_output_relocs'
p105
(L134784080L
L134784485L
tp106
sS'bfd_get_reloc_code_name'
p107
(L134972544L
L134972571L
tp108
sS'tekhex_set_arch_mach'
p109
(L134619200L
L134619255L
tp110
sS'first_phase'
p111
(L134619856L
L134620754L
tp112
sS'bfd_arch_default_fill'
p113
(L134551360L
L134551411L
tp114
sS'_bfd_generic_copy_link_hash_symbol_type'
p115
(L134600576L
L134600578L
tp116
sS'htab_hash_string'
p117
(L135052640L
L135052678L
tp118
sS'bfd_reloc_type_lookup'
p119
(L134972352L
L134972367L
tp120
sS'coff_symbol_from'
p121
(L134561600L
L134561640L
tp122
sS'demangle_class_name'
p123
(L134995920L
L134996020L
tp124
sS'_bfd_elf_rela_local_sym'
p125
(L134754832L
L134754996L
tp126
sS'd_demangle_callback'
p127
(L135038832L
L135039393L
tp128
sS'coff_canonicalize_symtab'
p129
(L134560720L
L134560826L
tp130
sS'_bfd_generic_reloc_link_order'
p131
(L134606256L
L134607003L
tp132
sS'_bfd_elf_default_relocs_compatible'
p133
(L134785856L
L134785871L
tp134
sS'coff_mangle_symbols'
p135
(L134562400L
L134562785L
tp136
sS'coff_print_aux'
p137
(L134896816L
L134896894L
tp138
sS'_bfd_elf_make_section_from_shdr'
p139
(L134745776L
L134745818L
tp140
sS'd_print_comp_inner'
p141
(L135008480L
L135021969L
tp142
sS'bfd_get_elf_phdr_upper_bound'
p143
(L134754656L
L134754707L
tp144
sS'elf_vxworks_add_dynamic_entries'
p145
(L134681216L
L134681439L
tp146
sS'elf_i386_reloc_type_lookup'
p147
(L134648752L
L134649334L
tp148
sS'_bfd_elf_get_sec_type_attr'
p149
(L134703072L
L134703220L
tp150
sS'd_print_mod_list'
p151
(L135023936L
L135024868L
tp152
sS'unix_lbasename'
p153
(L135053344L
L135053378L
tp154
sS'read_unsigned_leb128'
p155
(L134580512L
L134580563L
tp156
sS'_bfd_generic_get_elt_at_index'
p157
(L134539216L
L134539268L
tp158
sS'cache_bseek'
p159
(L134967216L
L134967305L
tp160
sS'aout_32_swap_ext_reloc_out'
p161
(L134879088L
L134879426L
tp162
sS'choose_tmpdir'
p163
(L135055408L
L135055896L
tp164
sS'bfd_elf_size_dynamic_sections'
p165
(L134800224L
L134805895L
tp166
sS'ignore_section_sym'
p167
(L134694768L
L134694875L
tp168
sS'_bfd_elf_discard_section_eh_frame_hdr'
p169
(L134849888L
L134850015L
tp170
sS'nacl_modify_program_headers'
p171
(L134679600L
L134679906L
tp172
sS'bfd_alloc'
p173
(L134584544L
L134584688L
tp174
sS'compute_bucket_count'
p175
(L134757696L
L134758287L
tp176
sS'_bfd_coff_final_link'
p177
(L134956032L
L134960817L
tp178
sS'_bfd_elf_link_read_relocs'
p179
(L134782944L
L134783540L
tp180
sS'_bfd_bsd44_write_ar_hdr'
p181
(L134543776L
L134544081L
tp182
sS'bfd_zmalloc'
p183
(L134577744L
L134577814L
tp184
sS'cache_bmmap'
p185
(L134966704L
L134967007L
tp186
sS'd_source_name'
p187
(L135007008L
L135007204L
tp188
sS'aout_link_check_archive_element'
p189
(L134865008L
L134865815L
tp190
sS'elf_link_renumber_local_hash_table_dynsyms'
p191
(L134761008L
L134761044L
tp192
sS'_bfd_elf_hash_symbol'
p193
(L134799600L
L134799656L
tp194
sS'coff_find_nearest_line'
p195
(L134573632L
L134573735L
tp196
sS'coff_get_reloc_upper_bound'
p197
(L134570048L
L134570107L
tp198
sS'aout_32_print_symbol'
p199
(L134881888L
L134882138L
tp200
sS'_bfd_nocore_core_file_matches_executable_p'
p201
(L134577056L
L134577077L
tp202
sS'coff_i386_reloc'
p203
(L134892064L
L134892479L
tp204
sS'_bfd_coff_free_symbols'
p205
(L134568272L
L134568375L
tp206
sS'srec_scan'
p207
(L134614672L
L134616960L
tp208
sS'_bfd_elf_swap_verdef_out'
p209
(L134697808L
L134697968L
tp210
sS'aout_32_swap_std_reloc_in'
p211
(L134879904L
L134880501L
tp212
sS'tekhex_print_symbol'
p213
(L134621200L
L134621318L
tp214
sS'bfd_malloc_and_get_section'
p215
(L134589120L
L134589135L
tp216
sS'bfd_default_reloc_type_lookup'
p217
(L134972384L
L134972536L
tp218
sS'tekhex_mkobject'
p219
(L134619776L
L134619855L
tp220
sS'_bfd_calloc_wrapper'
p221
(L134535216L
L134535221L
tp222
sS'elf_i386_hash_symbol'
p223
(L134649488L
L134649523L
tp224
sS'_bfd_pei_swap_sym_out'
p225
(L134919584L
L134919742L
tp226
sS'bfd_cache_close_all'
p227
(L134966000L
L134966078L
tp228
sS'aout_32_swap_ext_reloc_in'
p229
(L134879440L
L134879900L
tp230
sS'dwarf1_unit_find_nearest_line'
p231
(L134855904L
L134856591L
tp232
sS'decode_line_info'
p233
(L134632128L
L134635094L
tp234
sS'_bfd_elf_find_inliner_info'
p235
(L134735968L
L134736027L
tp236
sS'is_valid_archive_path'
p237
(L134534496L
L134534628L
tp238
sS'aout_link_write_other_symbol'
p239
(L134865824L
L134866628L
tp240
sS'coff_link_output_has_begun'
p241
(L134891664L
L134891679L
tp242
sS'real_ftell'
p243
(L134557584L
L134557589L
tp244
sS'default_indirect_link_order'
p245
(L134598704L
L134599793L
tp246
sS'cplus_demangle_v3_callback'
p247
(L135039904L
L135039929L
tp248
sS'symbolsrec_object_p'
p249
(L134617280L
L134617524L
tp250
sS'pe_bfd_copy_private_bfd_data'
p251
(L134902912L
L134902985L
tp252
sS'_bfd_merge_sections'
p253
(L134979088L
L134980384L
tp254
sS'bfd_elf32_write_out_phdrs'
p255
(L134687536L
L134687668L
tp256
sS'_bfd_elf_link_sec_merge_syms'
p257
(L134765120L
L134765224L
tp258
sS'bfd_get_section_by_name_if'
p259
(L134586992L
L134587140L
tp260
sS'bfd_openstreamr'
p261
(L134583408L
L134583516L
tp262
sS'bfd_getb16'
p263
(L134578080L
L134578097L
tp264
sS'_bfd_elf_reloc_type_class'
p265
(L134754816L
L134754819L
tp266
sS'elf_generic_info_to_howto_rel'
p267
(L134962208L
L134962220L
tp268
sS'elf32_r_info'
p269
(L134691792L
L134691807L
tp270
sS'concat_filename'
p271
(L134631680L
L134632119L
tp272
sS'bfd_elf_string_from_elf_section_0'
p273
(L134699104L
L134699570L
tp274
sS'htab_size'
p275
(L135050304L
L135050312L
tp276
sS'bfd_hash_replace'
p277
(L134595744L
L134595839L
tp278
sS'compare_sequences'
p279
(L134629168L
L134629239L
tp280
sS'freeargv'
p281
(L135040272L
L135040334L
tp282
sS'bfd_plugin_print_symbol'
p283
(L134962464L
L134962485L
tp284
sS'bfd_zalloc2'
p285
(L134585024L
L134585141L
tp286
sS'demangle_arm_hp_template'
p287
(L134994016L
L134995911L
tp288
sS'_bfd_elf_init_reloc_shdr'
p289
(L134695856L
L134696290L
tp290
sS'bfd_get_relocated_section_contents'
p291
(L134555168L
L134555257L
tp292
sS'cplus_demangle_fill_ctor'
p293
(L135027600L
L135027660L
tp294
sS'_bfd_coff_link_hash_table_create'
p295
(L134946112L
L134946204L
tp296
sS'elfcore_write_s390_last_break'
p297
(L134753104L
L134753171L
tp298
sS'htab_traverse_noresize'
p299
(L135052416L
L135052481L
tp300
sS'register_claim_file'
p301
(L134962416L
L134962428L
tp302
sS'cache_bwrite'
p303
(L134967392L
L134967554L
tp304
sS'bfd_cache_max_open'
p305
(L134965408L
L134965521L
tp306
sS'coff_swap_reloc_out'
p307
(L134891168L
L134891252L
tp308
sS'bfd_generic_openr_next_archived_file'
p309
(L134539360L
L134539513L
tp310
sS'bfd_elf32_swap_reloc_out'
p311
(L134682000L
L134682061L
tp312
sS'try_load_plugin'
p313
(L134963024L
L134963572L
tp314
sS'_bfd_elf_validate_reloc'
p315
(L134736368L
L134736788L
tp316
sS'undefined_reference'
p317
(L134757280L
L134757344L
tp318
sS'bfd_elf32_swap_symbol_out'
p319
(L134682272L
L134682455L
tp320
sS'_bfd_ar_spacepad'
p321
(L134536368L
L134536531L
tp322
sS'elf_i386_allocate_dynrelocs'
p323
(L134654384L
L134655736L
tp324
sS'_bfd_coff_internal_syment_name'
p325
(L134568112L
L134568260L
tp326
sS'_bfd_new_bfd_contained_in'
p327
(L134582624L
L134582724L
tp328
sS'_bfd_add_bfd_to_archive_cache'
p329
(L134537040L
L134537236L
tp330
sS'coff_slurp_symbol_table_0'
p331
(L134897472L
L134899772L
tp332
sS'aout_32_get_symbol_info'
p333
(L134881728L
L134881879L
tp334
sS'_bfd_elf_gc_mark_fdes'
p335
(L134847952L
L134848101L
tp336
sS'bfd_default_scan'
p337
(L134550384L
L134551352L
tp338
sS'bfd_elf_get_dyn_lib_class'
p339
(L134810752L
L134810801L
tp340
sS'bfd_put_bits'
p341
(L134579264L
L134579385L
tp342
sS'd_abi_tags'
p343
(L135007216L
L135007289L
tp344
sS'print_archive_member_sysv'
p345
(L134527456L
L134527618L
tp346
sS'coff_bfd_make_debug_symbol'
p347
(L134570176L
L134570284L
tp348
sS'_bfd_coff_get_external_symbols'
p349
(L134565520L
L134565687L
tp350
sS'_bfd_fix_excluded_sec_syms'
p351
(L134609984L
L134610022L
tp352
sS'trad_unix_core_file_failing_signal'
p353
(L134964720L
L134964726L
tp354
sS'make_mapping'
p355
(L134693552L
L134693669L
tp356
sS'cmpindexentry'
p357
(L134589168L
L134589196L
tp358
sS'bfd_alloc2'
p359
(L134584688L
L134584780L
tp360
sS'bfd_elf_add_obj_attr_int_string'
p361
(L134837344L
L134837463L
tp362
sS'd_number'
p363
(L135006624L
L135006715L
tp364
sS'elfcore_write_linux_prpsinfo64'
p365
(L134751664L
L134752058L
tp366
sS'_bfd_coff_link_hash_newfunc'
p367
(L134941696L
L134941806L
tp368
sS'bfd_set_section_size'
p369
(L134588432L
L134588490L
tp370
sS'bfd_get_next_section_by_name'
p371
(L134586816L
L134586889L
tp372
sS'sec_merge_hash_newfunc'
p373
(L134977728L
L134977842L
tp374
sS'_start'
p375
(L134521745L
L134521779L
tp376
sS'coff_i386_is_local_label_name'
p377
(L134896080L
L134896102L
tp378
sS'bfd_elf_record_link_assignment'
p379
(L134781648L
L134782223L
tp380
sS'__moddi3'
p381
(L135057968L
L135058418L
tp382
sS'print_symbol_info_sysv'
p383
(L134528080L
L134528829L
tp384
sS'elf_i386_get_plt_sym_val'
p385
(L134660176L
L134660630L
tp386
sS'elf_parse_notes'
p387
(L134737376L
L134742400L
tp388
sS'xstrdup'
p389
(L135057424L
L135057474L
tp390
sS'bfd_fprintf_vma'
p391
(L134555600L
L134555643L
tp392
sS'parse_vma'
p393
(L134533536L
L134533630L
tp394
sS'coff_swap_reloc_in'
p395
(L134891088L
L134891155L
tp396
sS'elf_i386_create_dynamic_sections'
p397
(L134676400L
L134676707L
tp398
sS'bfd_get_target_info'
p399
(L134593808L
L134594137L
tp400
sS'bfd_elf32_swap_reloca_in'
p401
(L134681920L
L134681986L
tp402
sS'make_tempname'
p403
(L134533440L
L134533500L
tp404
sS'_bfd_pei_swap_aouthdr_out'
p405
(L134922128L
L134923618L
tp406
sS'coff_write_armap'
p407
(L134549184L
L134550124L
tp408
sS'sec_merge_add'
p409
(L134978336L
L134978428L
tp410
sS'_bfd_elf_merge_unknown_attribute_low'
p411
(L134838960L
L134839172L
tp412
sS'demangle_template'
p413
(L134987920L
L134989521L
tp414
sS'bfd_lookup_arch'
p415
(L134551904L
L134551973L
tp416
sS'verilog_set_section_contents'
p417
(L134647824L
L134648085L
tp418
sS'_bfd_elf_create_dynamic_sections'
p419
(L134775552L
L134775943L
tp420
sS'_bfd_n1'
p421
(L134576976L
L134577000L
tp422
sS'simple_dummy_reloc_overflow'
p423
(L134645200L
L134645206L
tp424
sS'bfd_elf32_core_file_failing_command'
p425
(L134691824L
L134691844L
tp426
sS'coff_get_symtab_upper_bound'
p427
(L134560656L
L134560711L
tp428
sS'separate_debug_file_exists'
p429
(L134581472L
L134581671L
tp430
sS'cache_bclose'
p431
(L134965744L
L134965787L
tp432
sS'd_demangle'
p433
(L135039408L
L135039518L
tp434
sS'elf_i386_gc_mark_hook'
p435
(L134650944L
L134651022L
tp436
sS'_bfd_elf_new_section_hook'
p437
(L134703232L
L134703439L
tp438
sS'bfd_bwrite'
p439
(L134557888L
L134558000L
tp440
sS'print_symbol_filename_posix'
p441
(L134527360L
L134527454L
tp442
sS'_bfd_elf_symbol_from_bfd_symbol'
p443
(L134721328L
L134721530L
tp444
sS'aout_32_swap_exec_header_out'
p445
(L134871968L
L134872143L
tp446
sS'set_print_width'
p447
(L134529440L
L134529548L
tp448
sS'_bfd_elf_parse_attributes'
p449
(L134837840L
L134838537L
tp450
sS'elf_link_flush_output_syms'
p451
(L134764544L
L134764702L
tp452
sS'bfd_get_error_handler'
p453
(L134552688L
L134552694L
tp454
sS'bfd_section_list_clear'
p455
(L134586672L
L134586746L
tp456
sS'_bfd_nocore_core_file_pid'
p457
(L134577152L
L134577173L
tp458
sS'print_symbol_filename_bsd'
p459
(L134527168L
L134527249L
tp460
sS'd_make_name'
p461
(L135005968L
L135006034L
tp462
sS'real_fopen'
p463
(L134557616L
L134557716L
tp464
sS'bfd_putb64'
p465
(L134579104L
L134579181L
tp466
sS'_bfd_append_relative_path'
p467
(L134538384L
L134538500L
tp468
sS'_bfd_coff_link_add_symbols'
p469
(L134946208L
L134946288L
tp470
sS'htab_empty'
p471
(L135051072L
L135051307L
tp472
sS'd_template_param'
p473
(L135006864L
L135006950L
tp474
sS'bfd_elf32_swap_phdr_out'
p475
(L134687328L
L134687522L
tp476
sS'elf_collect_hash_codes'
p477
(L134758576L
L134758781L
tp478
sS'_bfd_coff_read_internal_relocs'
p479
(L134560832L
L134561360L
tp480
sS'tekhex_init'
p481
(L134621328L
L134621434L
tp482
sS'bfd_get_gp_size'
p483
(L134554784L
L134554850L
tp484
sS'resolve_symbol'
p485
(L134768752L
L134769083L
tp486
sS'_bfd_elf_single_rel_hdr'
p487
(L134704304L
L134704376L
tp488
sS'elfcore_write_prstatus'
p489
(L134752064L
L134752292L
tp490
sS'bfd_set_start_address'
p491
(L134554752L
L134554769L
tp492
sS'_bfd_elf_merge_object_attributes'
p493
(L134838544L
L134838946L
tp494
sS'buy_and_read'
p495
(L134894416L
L134894529L
tp496
sS'bfd_elf_link_record_local_dynamic_symbol'
p497
(L134782224L
L134782660L
tp498
sS'elf_link_renumber_hash_table_dynsyms'
p499
(L134760960L
L134760996L
tp500
sS'elf_i386_finish_local_dynamic_symbol'
p501
(L134654336L
L134654380L
tp502
sS'bfd_elf32_swap_reloc_in'
p503
(L134681856L
L134681914L
tp504
sS'_bfd_pei_swap_lineno_out'
p505
(L134921216L
L134921280L
tp506
sS'display_file'
p507
(L134529552L
L134530342L
tp508
sS'_bfd_elf_create_ifunc_sections'
p509
(L134676720L
L134677125L
tp510
sS'elfcore_write_s390_timer'
p511
(L134752704L
L134752771L
tp512
sS'warn_deprecated'
p513
(L134580304L
L134580503L
tp514
sS'htab_find_with_hash'
p515
(L135051312L
L135051637L
tp516
sS'bfd_compress_section_contents'
p517
(L134646096L
L134646330L
tp518
sS'_bfd_elf_parse_eh_frame'
p519
(L134842816L
L134847938L
tp520
sS'_bfd_elf_link_hash_fixup_symbol'
p521
(L134784496L
L134784539L
tp522
sS'__libc_csu_fini'
p523
(L135058896L
L135058898L
tp524
sS'opncls_btell'
p525
(L134580672L
L134580686L
tp526
sS'elf_fake_sections'
p527
(L134696304L
L134697664L
tp528
sS'_bfd_elf_canonicalize_reloc'
p529
(L134729232L
L134729353L
tp530
sS'bfd_cache_delete'
p531
(L134965536L
L134965646L
tp532
sS'register_Btype'
p533
(L134981840L
L134981949L
tp534
sS'bfd_link_hash_lookup'
p535
(L134598160L
L134598235L
tp536
sS'string_need_1'
p537
(L135042480L
L135042580L
tp538
sS'aout_32_get_lineno'
p539
(L134881712L
L134881715L
tp540
sS'_bfd_elf_default_action_discarded'
p541
(L134812272L
L134812348L
tp542
sS'bfd_elf_discard_info'
p543
(L134833376L
L134834010L
tp544
sS'_bfd_pei_swap_sym_in'
p545
(L134918928L
L134919576L
tp546
sS'bfd_elf_gc_common_finalize_got_offsets'
p547
(L134832896L
L134833299L
tp548
sS'cplus_demangle_opname'
p549
(L134996032L
L134997040L
tp550
sS'elf_link_sort_cmp2'
p551
(L134761536L
L134761599L
tp552
sS'bfd_release'
p553
(L134585152L
L134585171L
tp554
sS'elf_i386_link_hash_table_create'
p555
(L134660816L
L134661008L
tp556
sS'bfd_elf32_core_file_failing_signal'
p557
(L134691856L
L134691875L
tp558
sS'_bfd_coff_link_input_bfd'
p559
(L134946288L
L134955287L
tp560
sS'_bfd_elf_symbol_refs_local_p'
p561
(L134784928L
L134785107L
tp562
sS'elf_find_function'
p563
(L134693680L
L134694213L
tp564
sS'bfd_symbol_info'
p565
(L134590192L
L134590274L
tp566
sS'java_demangle_v3'
p567
(L135039936L
L135039961L
tp568
sS'aout_32_reloc_type_lookup'
p569
(L134871472L
L134871596L
tp570
sS'opncls_bseek'
p571
(L134580688L
L134580763L
tp572
sS'd_make_comp'
p573
(L135005856L
L135005963L
tp574
sS'_bfd_elf_link_hash_table_free'
p575
(L134759008L
L134759063L
tp576
sS'simple_dummy_einfo'
p577
(L134645264L
L134645266L
tp578
sS'_bfd_elf_export_symbol'
p579
(L134781520L
L134781640L
tp580
sS'coff_pe_i386_relocate_section'
p581
(L134892544L
L134892596L
tp582
sS'ihex_set_arch_mach'
p583
(L134622816L
L134622871L
tp584
sS'aout_32_swap_std_reloc_out'
p585
(L134878656L
L134879088L
tp586
sS'bfd_install_relocation'
p587
(L134969984L
L134970906L
tp588
sS'writeargv'
p589
(L135040912L
L135041074L
tp590
sS'_bfd_elf_get_dynamic_reloc_upper_bound'
p591
(L134729488L
L134729628L
tp592
sS'elfcore_maybe_make_sect'
p593
(L134695424L
L134695524L
tp594
sS'bfd_printable_name'
p595
(L134551472L
L134551483L
tp596
sS'_bfd_elf_define_linkage_sym'
p597
(L134774320L
L134774569L
tp598
sS'aout_32_link_hash_newfunc'
p599
(L134863504L
L134863602L
tp600
sS'bfd_generic_relax_section'
p601
(L134972576L
L134972648L
tp602
sS'd_unqualified_name'
p603
(L135030512L
L135031374L
tp604
sS'memory_bwrite'
p605
(L134557344L
L134557583L
tp606
sS'_bfd_clear_contents'
p607
(L134971952L
L134972347L
tp608
sS'elf_i386_fake_sections'
p609
(L134649536L
L134649577L
tp610
sS'i386_aout_linux_mkobject'
p611
(L134859552L
L134859557L
tp612
sS'_bfd_elf_is_local_label_name'
p613
(L134735184L
L134735262L
tp614
sS'dupargv'
p615
(L135040096L
L135040266L
tp616
sS'_bfd_elf_make_dynamic_reloc_section'
p617
(L134835120L
L134835282L
tp618
sS'_bfd_pe_only_swap_filehdr_out'
p619
(L134924736L
L134924920L
tp620
sS'bfd_get_size'
p621
(L134558704L
L134558760L
tp622
sS'elf_collect_gnu_hash_codes'
p623
(L134764224L
L134764481L
tp624
sS'merge_sections_remove_hook'
p625
(L134757632L
L134757685L
tp626
sS'elf_link_output_sym'
p627
(L134764704L
L134765116L
tp628
sS'coff_set_arch_mach'
p629
(L134902784L
L134902864L
tp630
sS'bfd_hash_set_default_size'
p631
(L134596208L
L134596246L
tp632
sS'filename_cmp'
p633
(L135049040L
L135049045L
tp634
sS'lbasename'
p635
(L135053472L
L135053506L
tp636
sS'_bfd_generic_link_add_archive_symbols'
p637
(L134600592L
L134601384L
tp638
sS'ada_demangle'
p639
(L134984448L
L134985826L
tp640
sS'elf_vxworks_finish_dynamic_entry'
p641
(L134681440L
L134681636L
tp642
sS'_bfd_elf_swap_verdaux_out'
p643
(L134698032L
L134698093L
tp644
sS'opncls_bread'
p645
(L134580768L
L134580844L
tp646
sS'opncls_bmmap'
p647
(L134580928L
L134580934L
tp648
sS'bfd_sections_find_if'
p649
(L134588336L
L134588420L
tp650
sS'_bfd_default_link_order'
p651
(L134607088L
L134607628L
tp652
sS'_bfd_coff_is_local_label_name'
p653
(L134572256L
L134572282L
tp654
sS'bfd_arch_i386_fill'
p655
(L134964304L
L134964497L
tp656
sS'bfd_elf_get_elf_syms'
p657
(L134699584L
L134700441L
tp658
sS'print_object_filename_sysv'
p659
(L134527632L
L134527818L
tp660
sS'vma_compare'
p661
(L134842448L
L134842503L
tp662
sS'aout_32_mkobject'
p663
(L134873104L
L134873215L
tp664
sS'bfd_elf_final_link'
p665
(L134818448L
L134829099L
tp666
sS'bfd_bread'
p667
(L134557728L
L134557888L
tp668
sS'filename_eq'
p669
(L135049136L
L135049171L
tp670
sS'elf_i386_reloc_type_class'
p671
(L134649440L
L134649467L
tp672
sS'aout_32_make_empty_symbol'
p673
(L134876208L
L134876243L
tp674
sS'elf_i386_get_local_sym_hash'
p675
(L134661328L
L134661647L
tp676
sS'_bfd_elf_stringtab_init'
p677
(L134702320L
L134702436L
tp678
sS'elf_sort_elf_symbol'
p679
(L134756528L
L134756547L
tp680
sS'elf_i386_readonly_dynrelocs'
p681
(L134650560L
L134650730L
tp682
sS'xrealloc'
p683
(L135057344L
L135057410L
tp684
sS'bfd_assert'
p685
(L134552768L
L134552840L
tp686
sS'read_rangelist'
p687
(L134629968L
L134630213L
tp688
sS'display_info'
p689
(L134531664L
L134533107L
tp690
sS'_bfd_write_section_stabs'
p691
(L134976688L
L134977139L
tp692
sS'elf_swap_ehdr_out'
p693
(L134684240L
L134684576L
tp694
sS'_bfd_elf_copy_private_bfd_data'
p695
(L134701264L
L134701414L
tp696
sS'adjust_relative_path'
p697
(L134535648L
L134536332L
tp698
sS'_bfd_coff_reloc_link_order'
p699
(L134955296L
L134956027L
tp700
sS'coff_write_linenumbers'
p701
(L134565072L
L134565500L
tp702
sS'd_compact_number'
p703
(L135006800L
L135006855L
tp704
sS'null_error_handler'
p705
(L134558848L
L134558850L
tp706
sS'find_target'
p707
(L134593392L
L134593559L
tp708
sS'bfd_arch_i386_onebyte_nop_fill'
p709
(L134964560L
L134964622L
tp710
sS'iterative_hash'
p711
(L135052688L
L135053328L
tp712
sS'sec_merge_hash_lookup'
p713
(L134977856L
L134978332L
tp714
sS'rsrc_write_directory'
p715
(L134911920L
L134912406L
tp716
sS'_bfd_generic_link_just_syms'
p717
(L134600528L
L134600562L
tp718
sS'opncls_bstat'
p719
(L134580944L
L134581078L
tp720
sS'elfcore_write_aarch_tls'
p721
(L134753424L
L134753491L
tp722
sS'ihex_get_section_contents'
p723
(L134626992L
L134627709L
tp724
sS'_bfd_create_empty_archive_element_shell'
p725
(L134536912L
L134536917L
tp726
sS'_bfd_nocore_core_file_failing_signal'
p727
(L134577120L
L134577141L
tp728
sS'list_matching_formats'
p729
(L134531072L
L134531213L
tp730
sS'bfd_plugin_canonicalize_symtab'
p731
(L134963952L
L134964257L
tp732
sS'bfd_set_symtab'
p733
(L134589248L
L134589322L
tp734
sS'_bfd_pei_swap_debugdir_out'
p735
(L134927344L
L134927524L
tp736
sS'_bfd_new_bfd'
p737
(L134582416L
L134582616L
tp738
sS'ihex_bad_byte'
p739
(L134624368L
L134624586L
tp740
sS'_bfd_elf_merge_sections'
p741
(L134809872L
L134810080L
tp742
sS'main'
p743
(L134520592L
L134521745L
tp744
sS'srec_get_section_contents'
p745
(L134612464L
L134613507L
tp746
sS'_bfd_elf_write_object_contents'
p747
(L134720576L
L134721301L
tp748
sS'elf_i386_tls_transition'
p749
(L134661648L
L134663220L
tp750
sS'write_value'
p751
(L134842688L
L134842809L
tp752
sS'eval_symbol'
p753
(L134769088L
L134774051L
tp754
sS'bfd_follow_gnu_debuglink'
p755
(L134585632L
L134585658L
tp756
sS'bfd_elf_make_object'
p757
(L134698944L
L134698987L
tp758
sS'_bfd_link_section_stabs'
p759
(L134973744L
L134975947L
tp760
sS'bfd_elf_add_obj_attr_string'
p761
(L134837232L
L134837343L
tp762
sS'coff_real_object_p'
p763
(L134566096L
L134567648L
tp764
sS'dlang_type'
p765
(L135046976L
L135048117L
tp766
sS'_bfd_nocore_core_file_failing_command'
p767
(L134577088L
L134577109L
tp768
sS'aout_32_translate_symbol_table'
p769
(L134876256L
L134877097L
tp770
sS'_bfd_elf_map_sections_to_segments'
p771
(L134704688L
L134707666L
tp772
sS'bfd_cache_init'
p773
(L134965792L
L134965945L
tp774
sS'non_fatal'
p775
(L134530944L
L134530971L
tp776
sS'_bfd_generic_link_add_symbols'
p777
(L134604480L
L134604492L
tp778
sS'bfd_hash_table_init'
p779
(L134594592L
L134594636L
tp780
sS'bfd_getl32'
p781
(L134578320L
L134578357L
tp782
sS'reconcat'
p783
(L135042304L
L135042469L
tp784
sS'bfd_section_from_shdr'
p785
(L134745824L
L134750129L
tp786
sS'elf_vxworks_gott_symbol_p'
p787
(L134680272L
L134680352L
tp788
sS'bfd_section_already_linked_table_free'
p789
(L134608624L
L134608643L
tp790
sS'bfd_generic_define_common_symbol'
p791
(L134610032L
L134610220L
tp792
sS'already_linked_newfunc'
p793
(L134596944L
L134596982L
tp794
sS'_bfd_generic_write_ar_hdr'
p795
(L134543712L
L134543761L
tp796
sS'coff_section_from_bfd_index'
p797
(L134560576L
L134560654L
tp798
sS'coff_sort_func_alent'
p799
(L134891600L
L134891652L
tp800
sS'bfd_elf_size_dynsym_hash_dynstr'
p801
(L134806176L
L134809861L
tp802
sS'coff_get_symbol_info'
p803
(L134570288L
L134570357L
tp804
sS'htab_remove_elt_with_hash'
p805
(L135052208L
L135052285L
tp806
sS'bfd_0'
p807
(L134576928L
L134576931L
tp808
sS'make_temp_file'
p809
(L135055904L
L135056140L
tp810
sS'_bfd_elf_link_lookup_local_dynindx'
p811
(L134782672L
L134782734L
tp812
sS'_bfd_elf_link_find_version_dependencies'
p813
(L134762880L
L134763229L
tp814
sS'rsrc_count_directory'
p815
(L134910784L
L134911230L
tp816
sS'make_relative_prefix_1'
p817
(L135054064L
L135055335L
tp818
sS'bfd_map_over_sections'
p819
(L134588240L
L134588330L
tp820
sS'strtab_hash_newfunc'
p821
(L134595968L
L134596030L
tp822
sS'bfd_malloc2'
p823
(L134577280L
L134577391L
tp824
sS'_bfd_elf_link_assign_sym_version'
p825
(L134780640L
L134781513L
tp826
sS'string_appendn_0'
p827
(L135043120L
L135043168L
tp828
sS'_bfd_generic_set_section_contents'
p829
(L134579936L
L134580052L
tp830
sS'elf_swap_shdr_in'
p831
(L134684576L
L134684792L
tp832
sS'print_archive_member_posix'
p833
(L134527104L
L134527163L
tp834
sS'elfcore_write_prpsinfo'
p835
(L134750976L
L134751259L
tp836
sS'_bfd_elf_swap_verdaux_in'
p837
(L134697968L
L134698019L
tp838
sS'_bfd_elf32_bfd_from_remote_memory'
p839
(L134690416L
L134691790L
tp840
sS'__umoddi3'
p841
(L135058432L
L135058775L
tp842
sS'srec_get_symtab_upper_bound'
p843
(L134610736L
L134610751L
tp844
sS'bfd_set_error_program_name'
p845
(L134552672L
L134552682L
tp846
sS'sym_is_global'
p847
(L134694688L
L134694763L
tp848
sS'bfd_generic_discard_group'
p849
(L134589152L
L134589158L
tp850
sS'_bfd_pei_swap_lineno_in'
p851
(L134921152L
L134921203L
tp852
sS'd_print_function_type'
p853
(L135025520L
L135026303L
tp854
sS'set_output_format'
p855
(L134527824L
L134527944L
tp856
sS'_bfd_stab_section_find_nearest_line'
p857
(L134590512L
L134593264L
tp858
sS'bfd_i386_compatible'
p859
(L134964624L
L134964676L
tp860
sS'cache_bstat'
p861
(L134967008L
L134967119L
tp862
sS'htab_find_slot_with_hash'
p863
(L135051696L
L135052156L
tp864
sS'd_expression_1'
p865
(L135033344L
L135034814L
tp866
sS'out'
p867
(L134619296L
L134619643L
tp868
sS'_bfd_elf_copy_private_symbol_data'
p869
(L134728752L
L134729031L
tp870
sS'_bfd_elf_init_2_index_sections'
p871
(L134805984L
L134806169L
tp872
sS'is_ctor_or_dtor'
p873
(L135038224L
L135038485L
tp874
sS'bfd_coff_set_long_section_names_allowed'
p875
(L134891456L
L134891482L
tp876
sS'_bfd_generic_link_add_one_symbol'
p877
(L134601392L
L134603874L
tp878
sS'bfd_putb32'
p879
(L134579008L
L134579043L
tp880
sS'bfd_perror'
p881
(L134552512L
L134552655L
tp882
sS'bfd_generic_is_group_section'
p883
(L134589136L
L134589139L
tp884
sS'_bfd_pei_swap_scnhdr_out'
p885
(L134924928L
L134925856L
tp886
sS'_bfd_add_merge_section'
p887
(L134978432L
L134979080L
tp888
sS'nacl_final_write_processing'
p889
(L134679920L
L134680259L
tp890
sS'generic_link_add_object_symbols'
p891
(L134603888L
L134604379L
tp892
sS'simple_save_output_info'
p893
(L134645280L
L134645331L
tp894
sS'bfd_generic_lookup_section_flags'
p895
(L134972672L
L134972735L
tp896
sS'bfd_plugin_core_file_failing_signal'
p897
(L134962592L
L134962621L
tp898
sS'htab_create_alloc'
p899
(L135050672L
L135050735L
tp900
sS'bfd_format_string'
p901
(L134576784L
L134576820L
tp902
sS'_bfd_elf_swap_vernaux_out'
p903
(L134698448L
L134698568L
tp904
sS'bfd_elf_generic_reloc'
p905
(L134701184L
L134701257L
tp906
sS'bfd_elf_get_dt_soname'
p907
(L134810928L
L134810969L
tp908
sS'bfd_putl16'
p909
(L134578240L
L134578257L
tp910
sS'string_prepend_0'
p911
(L135043008L
L135043116L
tp912
sS'elf_append_rel'
p913
(L134835504L
L134835624L
tp914
sS'pe_mkobject'
p915
(L134894544L
L134894707L
tp916
sS'bfd_rename_section'
p917
(L134588192L
L134588229L
tp918
sS'binary_set_section_contents'
p919
(L134618160L
L134618424L
tp920
sS'cplus_demangle_init_info'
p921
(L135039776L
L135039867L
tp922
sS'memory_bmmap'
p923
(L134556720L
L134556726L
tp924
sS'pe_print_private_bfd_data'
p925
(L134902864L
L134902899L
tp926
sS'aout_32_find_nearest_line'
p927
(L134882544L
L134883695L
tp928
sS'bfd_elf32_swap_symbol_in'
p929
(L134681648L
L134681853L
tp930
sS'_bfd_final_link_relocate'
p931
(L134971760L
L134971950L
tp932
sS'htab_set_functions_ex'
p933
(L135050736L
L135050782L
tp934
sS'_bfd_elf_write_section_eh_frame_hdr'
p935
(L134854288L
L134855290L
tp936
sS'MY_bfd_copy_private_section_data'
p937
(L134861168L
L134861229L
tp938
sS'check_dynsym'
p939
(L134762240L
L134762327L
tp940
sS'memory_bread'
p941
(L134557168L
L134557330L
tp942
sS'bfd_alt_mach_code'
p943
(L134555648L
L134555762L
tp944
sS'bfd_get_sign_extend_vma'
p945
(L134554480L
L134554738L
tp946
sS'bfd_plugin_object_p'
p947
(L134963584L
L134963943L
tp948
sS'binary_object_p'
p949
(L134617984L
L134618148L
tp950
sS'resolve_section'
p951
(L134762464L
L134762650L
tp952
sS'pe_ILF_make_a_section'
p953
(L134896528L
L134896804L
tp954
sS'stab_link_includes_newfunc'
p955
(L134973648L
L134973738L
tp956
sS'_bfd_elf_swap_verneed_out'
p957
(L134698208L
L134698328L
tp958
sS'bfd_realloc'
p959
(L134577392L
L134577474L
tp960
sS'scan_unit_for_symbols'
p961
(L134635888L
L134637623L
tp962
sS'aout_32_slurp_symbol_table'
p963
(L134877104L
L134877335L
tp964
sS'aout_32_link_add_symbols'
p965
(L134884016L
L134884158L
tp966
sS'split_directories'
p967
(L135053680L
L135054053L
tp968
sS'd_exprlist'
p969
(L135031568L
L135033333L
tp970
sS'elf_strtab_hash_newfunc'
p971
(L134839584L
L134839690L
tp972
sS'_bfd_elf_make_section_from_phdr'
p973
(L134703440L
L134704296L
tp974
sS'xmalloc_set_program_name'
p975
(L135057024L
L135057077L
tp976
sS'bfd_hash_table_init_n'
p977
(L134594368L
L134594583L
tp978
sS'_bfd_elf_copy_private_header_data'
p979
(L134722304L
L134728737L
tp980
sS'bfd_elf_get_bfd_needed_list'
p981
(L134810976L
L134811353L
tp982
sS'_bfd_elf_setup_sections'
p983
(L134700576L
L134701148L
tp984
sS'bfd_0u'
p985
(L134576944L
L134576947L
tp986
sS'elf_i386_link_hash_table_free'
p987
(L134660736L
L134660801L
tp988
sS'_bfd_elf_copy_private_section_data'
p989
(L134721936L
L134722085L
tp990
sS'_bfd_elf_canonicalize_symtab'
p991
(L134729360L
L134729417L
tp992
sS'_bfd_dwarf2_find_nearest_line'
p993
(L134641424L
L134645164L
tp994
sS'bfd_0l'
p995
(L134576960L
L134576963L
tp996
sS'get_program_header_size'
p997
(L134694224L
L134694681L
tp998
sS'bfd_canonicalize_reloc'
p999
(L134553200L
L134553263L
tp1000
sS'_bfd_merge_sections_free'
p1001
(L134981280L
L134981329L
tp1002
sS'_bfd_elf_can_make_relative'
p1003
(L134855328L
L134855334L
tp1004
sS'bfd_bsd_truncate_arname'
p1005
(L134544336L
L134544456L
tp1006
sS'getpwd'
p1007
(L135049184L
L135049467L
tp1008
sS'coff_slurp_symbol_table'
p1009
(L134899776L
L134899805L
tp1010
sS'message'
p1011
(L134962928L
L134963017L
tp1012
sS'display_rel_file'
p1013
(L134524896L
L134526752L
tp1014
sS'_bfd_elf_slurp_version_tables'
p1015
(L134729920L
L134732169L
tp1016
sS'elfcore_write_s390_todcmp'
p1017
(L134752784L
L134752851L
tp1018
sS'bfd_section_hash_newfunc'
p1019
(L134586400L
L134586574L
tp1020
sS'_bfd_coff_debug_merge_hash_newfunc'
p1021
(L134941808L
L134941894L
tp1022
sS'info_hash_table_newfunc'
p1023
(L134628288L
L134628375L
tp1024
sS'bfd_malloc'
p1025
(L134577216L
L134577277L
tp1026
sS'bfd_elf_reloc_symbol_deleted_p'
p1027
(L134756880L
L134757163L
tp1028
sS'elf_sym_name_compare'
p1029
(L134757168L
L134757195L
tp1030
sS'_bfd_pei_swap_aouthdr_in'
p1031
(L134921280L
L134922128L
tp1032
sS'ihex_write_record'
p1033
(L134622880L
L134623253L
tp1034
sS'_bfd_get_gp_value'
p1035
(L134554944L
L134555018L
tp1036
sS'coff_canonicalize_reloc'
p1037
(L134899808L
L134900664L
tp1038
sS'elfcore_write_s390_system_call'
p1039
(L134753184L
L134753251L
tp1040
sS'bfd_emul_get_maxpagesize'
p1041
(L134555776L
L134555826L
tp1042
sS'_bfd_elf_link_hash_copy_indirect'
p1043
(L134810080L
L134810377L
tp1044
sS'_bfd_elf_strtab_emit'
p1045
(L134840768L
L134840994L
tp1046
sS'htab_traverse'
p1047
(L135052496L
L135052561L
tp1048
sS'htab_create_typed_alloc'
p1049
(L135050512L
L135050665L
tp1050
sS'_bfd_generic_mkarchive'
p1051
(L134536752L
L134536795L
tp1052
sS'elf_final_link_free'
p1053
(L134774064L
L134774309L
tp1054
sS'rsrc_sort_entries'
p1055
(L134915280L
L134918920L
tp1056
sS'endian_string'
p1057
(L134530480L
L134530592L
tp1058
sS'elf_vxworks_link_output_symbol_hook'
p1059
(L134680624L
L134680694L
tp1060
sS'elfcore_write_s390_ctrs'
p1061
(L134752944L
L134753011L
tp1062
sS'elf_link_check_versioned_symbol'
p1063
(L134763232L
L134764104L
tp1064
sS'init_reloc_cookie_for_section'
p1065
(L134783552L
L134783773L
tp1066
sS'bfd_stat'
p1067
(L134558144L
L134558216L
tp1068
sS'_bfd_elf_fix_symbol_flags'
p1069
(L134779552L
L134780317L
tp1070
sS'bfd_arch_get_compatible'
p1071
(L134551712L
L134551808L
tp1072
sS'elfcore_write_ppc_vsx'
p1073
(L134752624L
L134752691L
tp1074
sS'is_gnu_v3_mangled_ctor'
p1075
(L135040000L
L135040035L
tp1076
sS'coff_object_p'
p1077
(L134567648L
L134568112L
tp1078
sS'd_cv_qualifiers'
p1079
(L135006048L
L135006313L
tp1080
sS'make_relative_prefix_ignore_links'
p1081
(L135055376L
L135055401L
tp1082
sS'd_print_expr_op'
p1083
(L135026944L
L135027129L
tp1084
sS'bfd_emul_set_commonpagesize'
p1085
(L134556000L
L134556085L
tp1086
sS'_bfd_elf_section_from_bfd_section'
p1087
(L134707680L
L134707899L
tp1088
sS'htab_find'
p1089
(L135051648L
L135051688L
tp1090
sS'bfd_getb_signed_16'
p1091
(L134578144L
L134578169L
tp1092
sS'_bfd_dummy_target'
p1093
(L134577184L
L134577205L
tp1094
sS'coff_write_object_contents'
p1095
(L134902992L
L134907289L
tp1096
sS'd_print_subexpr'
p1097
(L135027136L
L135027461L
tp1098
sS'srec_write_object_contents'
p1099
(L134614416L
L134614427L
tp1100
sS'getvalue'
p1101
(L134618528L
L134618655L
tp1102
sS'bfd_core_file_failing_command'
p1103
(L134968112L
L134968162L
tp1104
sS'_bfd_coff_write_global_sym'
p1105
(L134944544L
L134945844L
tp1106
sS'gnu_special'
p1107
(L135002512L
L135004087L
tp1108
sS'tekhex_sizeof_headers'
p1109
(L134618992L
L134618995L
tp1110
sS'_bfd_generic_link_split_section'
p1111
(L134608384L
L134608387L
tp1112
sS'bfd_getb_signed_64'
p1113
(L134578720L
L134578862L
tp1114
sS'coff_new_section_hook'
p1115
(L134910512L
L134910742L
tp1116
sS'bfd_find_target'
p1117
(L134593648L
L134593794L
tp1118
sS'dummy_reloc16_estimate'
p1119
(L134892480L
L134892511L
tp1120
sS'bfd_generic_gc_sections'
p1121
(L134972656L
L134972662L
tp1122
sS'bfd_section_already_linked_table_traverse'
p1123
(L134608400L
L134608435L
tp1124
sS'_bfd_pei_write_codeview_record'
p1125
(L134927536L
L134927777L
tp1126
sS'string_prepend'
p1127
(L134982832L
L134982880L
tp1128
sS'cache_bread'
p1129
(L134967568L
L134968112L
tp1130
sS'bfd_set_reloc'
p1131
(L134552736L
L134552755L
tp1132
sS'verilog_mkobject'
p1133
(L134648144L
L134648247L
tp1134
sS'bfd_hash_traverse'
p1135
(L134596080L
L134596200L
tp1136
sS'_bfd_elf_rel_vtable_reloc_fn'
p1137
(L134736912L
L134736915L
tp1138
sS'_bfd_dwarf2_cleanup_debug_info'
p1139
(L134639296L
L134639791L
tp1140
sS'_bfd_elf_gc_mark_reloc'
p1141
(L134830032L
L134830152L
tp1142
sS'bfd_elf32_slurp_reloc_table'
p1143
(L134686544L
L134687105L
tp1144
sS'bfd_hash_lookup'
p1145
(L134595200L
L134595534L
tp1146
sS'_bfd_archive_bsd44_construct_extended_name_table'
p1147
(L134543488L
L134543702L
tp1148
sS'htab_create'
p1149
(L135050784L
L135050851L
tp1150
sS'aout_32_canonicalize_reloc'
p1151
(L134881296L
L134881491L
tp1152
sS'_bfd_elf_find_segment_containing_section'
p1153
(L134704528L
L134704619L
tp1154
sS'd_template_args'
p1155
(L135034816L
L135035090L
tp1156
sS'_bfd_elf_obj_attrs_arg_type'
p1157
(L134837024L
L134837135L
tp1158
sS'bsd_write_armap'
p1159
(L134547584L
L134548832L
tp1160
sS'bfd_get_unique_section_name'
p1161
(L134587152L
L134587410L
tp1162
sS'bfd_generic_get_relocated_section_contents'
p1163
(L134972752L
L134973633L
tp1164
sS'srec_mkobject'
p1165
(L134612144L
L134612271L
tp1166
sS'is_vma_in_section'
p1167
(L134910752L
L134910784L
tp1168
sS'aout_32_bfd_free_cached_info'
p1169
(L134883712L
L134883903L
tp1170
sS'bfd_plugin_get_symbol_info'
p1171
(L134962784L
L134962805L
tp1172
sS'real_fseek'
p1173
(L134557600L
L134557605L
tp1174
sS'bfd_set_error_handler'
p1175
(L134552656L
L134552672L
tp1176
sS'srec_canonicalize_symtab'
p1177
(L134610752L
L134610929L
tp1178
sS'bfd_default_compatible'
p1179
(L134551424L
L134551467L
tp1180
sS'bfd_elf_allocate_object'
p1181
(L134698752L
L134698930L
tp1182
sS'bfd_plugin_get_symtab_upper_bound'
p1183
(L134962496L
L134962560L
tp1184
sS'bfd_section_from_phdr'
p1185
(L134750144L
L134750650L
tp1186
sS'add_data_entry'
p1187
(L134911408L
L134911488L
tp1188
sS'numeric_forward'
p1189
(L134522720L
L134522942L
tp1190
sS'find_abstract_instance_name'
p1191
(L134635104L
L134635884L
tp1192
sS'coff_i386_reloc_type_lookup'
p1193
(L134896896L
L134897074L
tp1194
sS'print_version'
p1195
(L134534640L
L134534779L
tp1196
sS'bfd_section_from_elf_index'
p1197
(L134702800L
L134702835L
tp1198
sS'_bfd_free_cached_info'
p1199
(L134582736L
L134582840L
tp1200
sS'd_function_type'
p1201
(L135031472L
L135031554L
tp1202
sS'cplus_demangle_print'
p1203
(L135039520L
L135039771L
tp1204
sS'expandargv'
p1205
(L135041088L
L135041837L
tp1206
sS'bfd_get_section_contents'
p1207
(L134588768L
L134589105L
tp1208
sS'_bfd_elf_size_group_sections'
p1209
(L134799664L
L134799746L
tp1210
sS'elf_vxworks_add_symbol_hook'
p1211
(L134680352L
L134680426L
tp1212
sS'elf_vxworks_emit_relocs'
p1213
(L134680704L
L134681100L
tp1214
sS'coff_set_arch_mach_hook'
p1215
(L134895888L
L134895973L
tp1216
sS'set_cplus_marker_for_demangling'
p1217
(L134984176L
L134984186L
tp1218
sS'aout_32_make_sections'
p1219
(L134872144L
L134872292L
tp1220
sS'print_archive_filename_sysv'
p1221
(L134522000L
L134522002L
tp1222
sS'ihex_object_p'
p1223
(L134624592L
L134626990L
tp1224
sS'_bfd_delete_bfd'
p1225
(L134581088L
L134581167L
tp1226
sS'_bfd_elf_match_sections_by_type'
p1227
(L134811360L
L134811450L
tp1228
sS'bfd_make_readable'
p1229
(L134584272L
L134584535L
tp1230
sS'emit_stringtab'
p1231
(L134863376L
L134863501L
tp1232
sS'_bfd_default_error_handler'
p1233
(L134553392L
L134554414L
tp1234
sS'cplus_demangle_fill_name'
p1235
(L135027472L
L135027530L
tp1236
sS'_bfd_merged_section_offset'
p1237
(L134980768L
L134981278L
tp1238
sS'bfd_set_default_target'
p1239
(L134593568L
L134593644L
tp1240
sS'_bfd_elf_make_section_from_shdr_0'
p1241
(L134742400L
L134745766L
tp1242
sS'bfd_fdopenr'
p1243
(L134583232L
L134583403L
tp1244
sS'srec_print_symbol'
p1245
(L134612272L
L134612377L
tp1246
sS'_bfd_pe_bfd_copy_private_bfd_data_common'
p1247
(L134938048L
L134938603L
tp1248
sS'bfd_errmsg'
p1249
(L134552304L
L134552497L
tp1250
sS'bfd_plugin_set_plugin'
p1251
(L134964288L
L134964298L
tp1252
sS'binary_get_symtab_upper_bound'
p1253
(L134617552L
L134617558L
tp1254
sS'bfd_elf_bfd_from_remote_memory'
p1255
(L134755232L
L134755253L
tp1256
sS'elf_i386_finish_dynamic_symbol'
p1257
(L134652608L
L134654327L
tp1258
sS'_bfd_coff_link_hash_table_init'
p1259
(L134945952L
L134946102L
tp1260
sS'rsrc_write_entry'
p1261
(L134911568L
L134911918L
tp1262
sS'generic_add_output_symbol'
p1263
(L134597360L
L134597484L
tp1264
sS'_bfd_generic_final_link'
p1265
(L134607632L
L134608334L
tp1266
sS'obj_attr_size'
p1267
(L134835680L
L134835776L
tp1268
sS'bfd_get_arch_size'
p1269
(L134554416L
L134554476L
tp1270
sS'_bfd_elf_link_size_reloc_section'
p1271
(L134764112L
L134764223L
tp1272
sS'separate_alt_debug_file_exists'
p1273
(L134581392L
L134581470L
tp1274
sS'bfd_elf_get_needed_list'
p1275
(L134810864L
L134810884L
tp1276
sS'core_file_matches_executable_p'
p1277
(L134968304L
L134968374L
tp1278
sS'internal_srec_write_object_contents'
p1279
(L134613520L
L134614410L
tp1280
sS'd_substitution'
p1281
(L135007296L
L135007803L
tp1282
sS'bfd_sym_from_r_symndx'
p1283
(L134702448L
L134702790L
tp1284
sS'_bfd_elf_adjust_dynamic_symbol'
p1285
(L134780320L
L134780626L
tp1286
sS'elf_renumber_gnu_hash_syms'
p1287
(L134761168L
L134761436L
tp1288
sS'make_relative_prefix'
p1289
(L135055344L
L135055369L
tp1290
sS'add_line_info'
p1291
(L134628384L
L134629158L
tp1292
sS'bfd_create_gnu_debuglink_section'
p1293
(L134585696L
L134585852L
tp1294
sS'_bfd_generic_read_ar_hdr_mag'
p1295
(L134537248L
L134538342L
tp1296
sS'd_bare_function_type'
p1297
(L135031376L
L135031460L
tp1298
sS'objalloc_create'
p1299
(L135056144L
L135056240L
tp1300
sS'bfd_elf_sym_name'
p1301
(L134700448L
L134700575L
tp1302
sS'_bfd_relocate_contents'
p1303
(L134970912L
L134971759L
tp1304
sS'bfd_tell'
p1305
(L134558000L
L134558101L
tp1306
sS'cache_btell'
p1307
(L134967312L
L134967378L
tp1308
sS'_bfd_elf_gc_mark_hook'
p1309
(L134829104L
L134829332L
tp1310
sS'bfd_cache_close'
p1311
(L134965952L
L134965988L
tp1312
sS'_bfd_pe_print_private_bfd_data_common'
p1313
(L134929072L
L134938041L
tp1314
sS'elf32_i386_nacl_elf_object_p'
p1315
(L134661200L
L134661240L
tp1316
sS'sort_by_secaddr'
p1317
(L134891552L
L134891586L
tp1318
sS'htab_find_slot'
p1319
(L135052160L
L135052208L
tp1320
sS'eq_pointer'
p1321
(L135049472L
L135049487L
tp1322
sS'd_ref_qualifier'
p1323
(L135006320L
L135006399L
tp1324
sS'aout_32_set_arch_mach'
p1325
(L134873904L
L134874045L
tp1326
sS'elfcore_write_s390_prefix'
p1327
(L134753024L
L134753091L
tp1328
sS'bfd_getl_signed_16'
p1329
(L134578176L
L134578201L
tp1330
sS'srec_get_symbol_info'
p1331
(L134611536L
L134611557L
tp1332
sS'print_arelt_descr'
p1333
(L134533120L
L134533433L
tp1334
sS'list_supported_architectures'
p1335
(L134531440L
L134531653L
tp1336
sS'bfd_elf_perform_complex_relocation'
p1337
(L134811456L
L134812263L
tp1338
sS'_bfd_pe_get_symbol_info'
p1339
(L134938816L
L134938821L
tp1340
sS'hash_pointer'
p1341
(L135049488L
L135049613L
tp1342
sS'elf_gc_allocate_got_offsets'
p1343
(L134756768L
L134756878L
tp1344
sS'elf_merge_st_other'
p1345
(L134761056L
L134761155L
tp1346
sS'memory_btell'
p1347
(L134556688L
L134556699L
tp1348
sS'aout_32_adjust_sizes_and_vmas'
p1349
(L134874048L
L134875569L
tp1350
sS'bfd_log2'
p1351
(L134580064L
L134580099L
tp1352
sS'i386linux_write_object_contents'
p1353
(L134858800L
L134859537L
tp1354
sS'binary_get_section_contents'
p1355
(L134618432L
L134618518L
tp1356
sS'_bfd_elf_assign_file_position_for_section'
p1357
(L134704416L
L134704514L
tp1358
sS'_bfd_elf_link_omit_section_dynsym'
p1359
(L134782736L
L134782930L
tp1360
sS'cplus_demangle'
p1361
(L134985840L
L134986113L
tp1362
sS'_bfd_elf_get_symtab_upper_bound'
p1363
(L134729040L
L134729094L
tp1364
sS'_bfd_dwarf2_find_inliner_info'
p1365
(L134639216L
L134639292L
tp1366
sS'_bfd_elf_link_renumber_dynsyms'
p1367
(L134758288L
L134758569L
tp1368
sS'd_append_string'
p1369
(L135008128L
L135008271L
tp1370
sS'bfd_elf_gc_common_final_link'
p1371
(L134833312L
L134833370L
tp1372
sS'bfd_arch_bits_per_address'
p1373
(L134551872L
L134551883L
tp1374
sS'_bfd_ar_sizepad'
p1375
(L134536544L
L134536741L
tp1376
sS'_bfd_elf_find_line'
p1377
(L134735840L
L134735955L
tp1378
sS'string_append'
p1379
(L135042592L
L135042650L
tp1380
sS'bfd_false'
p1381
(L134576848L
L134576869L
tp1382
sS'_bfd_elf_make_empty_symbol'
p1383
(L134735104L
L134735139L
tp1384
sS'read_value'
p1385
(L134842512L
L134842673L
tp1386
sS'symbolsrec_write_object_contents'
p1387
(L134614432L
L134614446L
tp1388
sS'elf_i386_add_symbol_hook'
p1389
(L134661248L
L134661328L
tp1390
sS'bfd_init_section_decompress_status'
p1391
(L134647360L
L134647639L
tp1392
sS'squangle_mop_up'
p1393
(L134981648L
L134981831L
tp1394
sS'_bfd_archive_close_and_cleanup'
p1395
(L134550128L
L134550383L
tp1396
sS'elfcore_write_ppc_vmx'
p1397
(L134752544L
L134752611L
tp1398
sS'bfd_slurp_bsd_armap_f2'
p1399
(L134541152L
L134541751L
tp1400
sS'mark_entry'
p1401
(L134842048L
L134842173L
tp1402
sS'elf_i386_adjust_dynamic_symbol'
p1403
(L134659504L
L134660072L
tp1404
sS'bfd_perform_relocation'
p1405
(L134968896L
L134969970L
tp1406
sS'bfd_getb32'
p1407
(L134578272L
L134578307L
tp1408
sS'coff_sizeof_headers'
p1409
(L134573808L
L134573864L
tp1410
sS'_bfd_generic_get_section_contents'
p1411
(L134579552L
L134579899L
tp1412
sS'ihex_sizeof_headers'
p1413
(L134622720L
L134622723L
tp1414
sS'i386_aout_linux_object_p'
p1415
(L134859568L
L134859772L
tp1416
sS'bfd_make_writable'
p1417
(L134584128L
L134584268L
tp1418
sS'elfcore_write_aarch_hw_watch'
p1419
(L134753584L
L134753651L
tp1420
sS'get_count'
p1421
(L134981504L
L134981637L
tp1422
sS'report'
p1423
(L134530768L
L134530888L
tp1424
sS'bfd_fill_in_gnu_debuglink_section'
p1425
(L134585856L
L134586263L
tp1426
sS'is_gnu_v3_mangled_dtor'
p1427
(L135040048L
L135040083L
tp1428
sS'set_symbol_from_hash'
p1429
(L134597088L
L134597354L
tp1430
sS'elf_swap_ehdr_in'
p1431
(L134683952L
L134684227L
tp1432
sS'_bfd_elf_link_hash_table_create'
p1433
(L134810592L
L134810692L
tp1434
sS'bfd_plugin_bfd_copy_private_bfd_data'
p1435
(L134962752L
L134962784L
tp1436
sS'aout_32_link_hash_table_create'
p1437
(L134883920L
L134884012L
tp1438
sS'get_alt_debug_link_info_shim'
p1439
(L134585552L
L134585623L
tp1440
sS'_bfd_elf_gc_mark_extra_sections'
p1441
(L134830160L
L134830550L
tp1442
sS'print_object_filename_bsd'
p1443
(L134526848L
L134526907L
tp1444
sS'demangle_nested_args'
p1445
(L134998400L
L134998524L
tp1446
sS'bfd_openr_iovec'
p1447
(L134584848L
L134585019L
tp1448
sS'_bfd_write_archive_contents'
p1449
(L134545792L
L134547573L
tp1450
sS'bfd_elf_stack_segment_size'
p1451
(L134799760L
L134800221L
tp1452
sS'free_split_directories'
p1453
(L135053616L
L135053672L
tp1454
sS'find_debug_info'
p1455
(L134629408L
L134629542L
tp1456
sS'demangle_signature'
p1457
(L134999824L
L135002095L
tp1458
sS'bfd_elf32_swap_dyn_in'
p1459
(L134682144L
L134682195L
tp1460
sS'bfd_set_archive_head'
p1461
(L134536928L
L134536948L
tp1462
sS'linux_tally_symbols'
p1463
(L134861312L
L134862042L
tp1464
sS'bfd_elf_set_group_contents'
p1465
(L134694880L
L134695418L
tp1466
sS'move_section_contents'
p1467
(L134620768L
L134621025L
tp1468
sS'bfd_core_file_failing_signal'
p1469
(L134968176L
L134968230L
tp1470
sS'bfd_octets_per_byte'
p1471
(L134552128L
L134552193L
tp1472
sS'print_symbol_info_bsd'
p1473
(L134528832L
L134529264L
tp1474
sS'dlang_parse_real'
p1475
(L135043840L
L135044360L
tp1476
sS'opncls_bwrite'
p1477
(L134580848L
L134580859L
tp1478
sS'print_archive_member_bsd'
p1479
(L134527040L
L134527091L
tp1480
sS'srec_sizeof_headers'
p1481
(L134610720L
L134610723L
tp1482
sS'consume_count_with_underscores'
p1483
(L134981424L
L134981503L
tp1484
sS'bfd_plugin_sizeof_headers'
p1485
(L134962432L
L134962461L
tp1486
sS'dlang_call_convention'
p1487
(L135042656L
L135042812L
tp1488
sS'coff_classify_symbol'
p1489
(L134897216L
L134897467L
tp1490
sS'elf_i386_info_to_howto_rel'
p1491
(L134650912L
L134650943L
tp1492
sS'find_chunk'
p1493
(L134619008L
L134619146L
tp1494
sS'bfd_get_arch_info'
p1495
(L134551888L
L134551896L
tp1496
sS'bfd_true'
p1497
(L134576880L
L134576886L
tp1498
sS'coff_get_normalized_symtab'
p1499
(L134568384L
L134570042L
tp1500
sS'coff_swap_filehdr_in'
p1501
(L134891264L
L134891450L
tp1502
sS'elf_i386_grok_prstatus'
p1503
(L134649952L
L134650242L
tp1504
sS'bfd_emul_get_commonpagesize'
p1505
(L134555936L
L134555986L
tp1506
sS'make_tempdir'
p1507
(L134533504L
L134533528L
tp1508
sS'simple_dummy_multiple_definition'
p1509
(L134645248L
L134645254L
tp1510
sS'ihex_set_section_contents'
p1511
(L134624096L
L134624367L
tp1512
sS'_bfd_elf_get_lineno'
p1513
(L134735264L
L134735295L
tp1514
sS'copy_name'
p1515
(L134558864L
L134558960L
tp1516
sS'bfd_print_symbol_vandf'
p1517
(L134589328L
L134589692L
tp1518
sS'bfd_slurp_armap'
p1519
(L134539968L
L134541148L
tp1520
sS'_bfd_elf_find_nearest_line'
p1521
(L134735360L
L134735831L
tp1522
sS'elfcore_write_note'
p1523
(L134750656L
L134750961L
tp1524
sS'non_numeric_reverse'
p1525
(L134522976L
L134523005L
tp1526
sS'bfd_elf_lookup_section_flags'
p1527
(L134832496L
L134832886L
tp1528
sS'_bfd_elf_get_dynamic_symtab_upper_bound'
p1529
(L134729104L
L134729203L
tp1530
sS'template_in_dir'
p1531
(L134530352L
L134530466L
tp1532
sS'_bfd_generic_link_output_symbols'
p1533
(L134605056L
L134606242L
tp1534
sS'_bfd_compute_and_write_armap'
p1535
(L134544800L
L134545787L
tp1536
sS'tekhex_get_symbol_info'
p1537
(L134619264L
L134619285L
tp1538
sS'bfd_get_mtime'
p1539
(L134558624L
L134558696L
tp1540
sS'coff_set_section_contents'
p1541
(L134894128L
L134894410L
tp1542
sS'elf_sort_symbol'
p1543
(L134756432L
L134756513L
tp1544
sS'd_find_pack'
p1545
(L135008032L
L135008121L
tp1546
sS'bfd_elf_hash'
p1547
(L134698640L
L134698694L
tp1548
sS'bfd_elf32_swap_phdr_in'
p1549
(L134687120L
L134687319L
tp1550
sS'_bfd_generic_make_empty_symbol'
p1551
(L134589696L
L134589731L
tp1552
sS'bfd_plugin_core_file_pid'
p1553
(L134962560L
L134962589L
tp1554
sS'd_print_comp'
p1555
(L135021984L
L135022036L
tp1556
sS'hash_file_ptr'
p1557
(L134535168L
L134535175L
tp1558
sS'_bfd_write_stab_strings'
p1559
(L134977152L
L134977351L
tp1560
sS'bfd_realloc_or_free'
p1561
(L134577632L
L134577738L
tp1562
sS'_bfd_elf_set_section_contents'
p1563
(L134736176L
L134736321L
tp1564
sS'demangle_expression'
p1565
(L134987520L
L134987906L
tp1566
sS'bfd_elf32_swap_reloca_out'
p1567
(L134682064L
L134682144L
tp1568
sS'strrevcmp'
p1569
(L134839472L
L134839578L
tp1570
sS'aout_32_write_syms'
p1571
(L134877344L
L134878540L
tp1572
sS'd_name'
p1573
(L135035104L
L135036165L
tp1574
sS'_bfd_pe_bfd_copy_private_section_data'
p1575
(L134938608L
L134938814L
tp1576
sS'_bfd_generic_minisymbol_to_symbol'
p1577
(L134590496L
L134590503L
tp1578
sS'htab_collisions'
p1579
(L135052576L
L135052639L
tp1580
sS'aout_32_machine_type'
p1581
(L134873216L
L134873893L
tp1582
sS'frame_dummy'
p1583
(L134521952L
L134521997L
tp1584
sS'bfd_coff_get_comdat_section'
p1585
(L134574128L
L134574162L
tp1586
sS'read_attribute_value'
p1587
(L134630224L
L134631668L
tp1588
sS'tekhex_canonicalize_symtab'
p1589
(L134618768L
L134618823L
tp1590
sS'set_default_bfd_target'
p1591
(L134530976L
L134531064L
tp1592
sS'd_count_templates_scopes'
p1593
(L135006400L
L135006496L
tp1594
sS'_bfd_find_arch_match'
p1595
(L134593264L
L134593386L
tp1596
sS'dlang_function_args'
p1597
(L135048128L
L135048439L
tp1598
sS'bfd_hash_allocate'
p1599
(L134595840L
L134595955L
tp1600
sS'demangle_template_template_parm'
p1601
(L134997040L
L134997350L
tp1602
sS'rsrc_parse_entries'
p1603
(L134914224L
L134914849L
tp1604
sS'bfd_hash_table_free'
p1605
(L134594640L
L134594671L
tp1606
sS'vendor_obj_attr_size'
p1607
(L134836080L
L134836315L
tp1608
sS'bfd_write_bigendian_4byte_int'
p1609
(L134577968L
L134578078L
tp1610
sS'getsym'
p1611
(L134618656L
L134618762L
tp1612
sS'pass_over'
p1613
(L134622176L
L134622487L
tp1614
sS'_bfd_dwarf1_find_nearest_line'
p1615
(L134856592L
L134857157L
tp1616
sS'__do_global_dtors_aux'
p1617
(L134521920L
L134521950L
tp1618
sS'higher_prime_index'
p1619
(L135049616L
L135049751L
tp1620
sS'_bfd_look_for_bfd_in_cache'
p1621
(L134536960L
L134537028L
tp1622
sS'tekhex_object_p'
p1623
(L134622496L
L134622714L
tp1624
sS'elf_i386_always_size_sections'
p1625
(L134659232L
L134659490L
tp1626
sS'coff_compute_section_file_positions'
p1627
(L134892608L
L134894127L
tp1628
sS'print_symbol_info_posix'
p1629
(L134529264L
L134529425L
tp1630
sS'bfd_get_archive_filename'
p1631
(L134533904L
L134534152L
tp1632
sS'_bfd_elf_ifunc_get_synthetic_symtab'
p1633
(L134677824L
L134678745L
tp1634
sS'compare_link_order'
p1635
(L134762816L
L134762872L
tp1636
sS'MY_close_and_cleanup'
p1637
(L134858752L
L134858797L
tp1638
sS'bfd_follow_gnu_debugaltlink'
p1639
(L134585664L
L134585690L
tp1640
sS'bfd_openw'
p1641
(L134583520L
L134583624L
tp1642
sS'_bfd_elf_get_dynamic_reloc_section'
p1643
(L134835024L
L134835108L
tp1644
sS'_bfd_elf_attr_strdup'
p1645
(L134836960L
L134837018L
tp1646
sS'bfd_openr'
p1647
(L134583184L
L134583227L
tp1648
sS'htab_expand'
p1649
(L135049760L
L135050291L
tp1650
sS'__x86.get_pc_thunk.bx'
p1651
(L134521792L
L134521796L
tp1652
sS'bfd_putl64'
p1653
(L134579184L
L134579261L
tp1654
sS'tekhex_set_section_contents'
p1655
(L134621040L
L134621113L
tp1656
sS'_bfd_elf_tls_setup'
p1657
(L134785120L
L134785226L
tp1658
sS'bfd_check_format_matches'
p1659
(L134574592L
L134576605L
tp1660
sS'bfd_get_bits'
p1661
(L134579392L
L134579548L
tp1662
sS'elfcore_write_s390_todpreg'
p1663
(L134752864L
L134752931L
tp1664
sS'bfd_gnu_truncate_arname'
p1665
(L134544640L
L134544786L
tp1666
sS'bfd_elf_get_runpath_list'
p1667
(L134810896L
L134810919L
tp1668
sS'elf_link_input_bfd'
p1669
(L134812528L
L134818444L
tp1670
sS'forget_types'
p1671
(L134982304L
L134982388L
tp1672
sS'elf_i386_gc_sweep_hook'
p1673
(L134663232L
L134664010L
tp1674
sS'string_need'
p1675
(L134982576L
L134982676L
tp1676
sS'get_relocs'
p1677
(L134523568L
L134523725L
tp1678
sS'dlang_demangle'
p1679
(L135048832L
L135049034L
tp1680
sS'linux_finish_dynamic_link'
p1681
(L134857552L
L134858514L
tp1682
sS'd_expr_primary'
p1683
(L135037936L
L135038224L
tp1684
sS'd_print_mod_0'
p1685
(L135022048L
L135023931L
tp1686
sS'bfd_get_alt_debug_link_info'
p1687
(L134585248L
L134585537L
tp1688
sS'dlang_value'
p1689
(L135044368L
L135045448L
tp1690
sS'_bfd_default_assert_handler'
p1691
(L134552272L
L134552279L
tp1692
sS'elf_vxworks_create_dynamic_sections'
p1693
(L134680432L
L134680620L
tp1694
sS'swap_abort'
p1695
(L134965376L
L134965407L
tp1696
sS'_bfd_elf_sizeof_headers'
p1697
(L134736032L
L134736169L
tp1698
sS'aout_32_get_reloc_upper_bound'
p1699
(L134881504L
L134881651L
tp1700
sS'bfd_decode_symclass'
p1701
(L134589744L
L134590149L
tp1702
sS'bfd_fatal'
p1703
(L134530736L
L134530763L
tp1704
sS'_bfd_generic_verify_endian_match'
p1705
(L134580160L
L134580298L
tp1706
sS'tekhex_get_section_contents'
p1707
(L134621120L
L134621193L
tp1708
sS'srec_set_arch_mach'
p1709
(L134611488L
L134611525L
tp1710
sS'elf_i386_is_local_label_name'
p1711
(L134661104L
L134661148L
tp1712
sS'_bfd_elf_swap_versym_out'
p1713
(L134698608L
L134698639L
tp1714
sS'_bfd_elf_strtab_clear_all_refs'
p1715
(L134840416L
L134840458L
tp1716
sS'elf_link_adjust_relocs'
p1717
(L134519712L
L134520111L
tp1718
sS'_bfd_elfcore_make_pseudosection'
p1719
(L134736928L
L134737257L
tp1720
sS'i386linux_bfd_final_link'
p1721
(L134858528L
L134858576L
tp1722
sS'coff_bad_format_hook'
p1723
(L134891488L
L134891538L
tp1724
sS'bfd_plugin_bfd_copy_private_section_data'
p1725
(L134962720L
L134962752L
tp1726
sS'elf32_r_sym'
p1727
(L134691808L
L134691816L
tp1728
sS'_bfd_link_hash_table_init'
p1729
(L134598032L
L134598153L
tp1730
sS'bfd_i386linux_size_dynamic_sections'
p1731
(L134862736L
L134862959L
tp1732
sS'bfd_elf32_write_relocs'
p1733
(L134685376L
L134685892L
tp1734
sS'filename_ncmp'
p1735
(L135049056L
L135049061L
tp1736
sS'_bfd_elf_default_got_elt_size'
p1737
(L134834992L
L134835022L
tp1738
sS'_bfd_elf_swap_verneed_in'
p1739
(L134698096L
L134698194L
tp1740
sS'elf_i386_relocate_section'
p1741
(L134664016L
L134673881L
tp1742
sS'coff_write_symbol'
p1743
(L134558960L
L134560570L
tp1744
sS'bfd_nullvoidptr'
p1745
(L134576896L
L134576917L
tp1746
sS'cplus_demangle_name_to_style'
p1747
(L134984384L
L134984445L
tp1748
sS'dlang_attributes'
p1749
(L135042816L
L135042998L
tp1750
sS'comp_unit_maybe_decode_line_info'
p1751
(L134637632L
L134637747L
tp1752
sS'_bfd_elf_is_function_type'
p1753
(L134756224L
L134756241L
tp1754
sS'coff_renumber_symbols'
p1755
(L134561648L
L134562394L
tp1756
sS'_bfd_elf_strtab_offset'
p1757
(L134840608L
L134840768L
tp1758
sS'aout_32_canonicalize_symtab'
p1759
(L134878544L
L134878644L
tp1760
sS'_bfd_norelocs_get_reloc_upper_bound'
p1761
(L134577024L
L134577030L
tp1762
sS'_bfd_elf_post_process_headers'
p1763
(L134756160L
L134756211L
tp1764
sS'_bfd_elf_common_definition'
p1765
(L134834944L
L134834959L
tp1766
sS'bfd_is_local_label'
p1767
(L134589200L
L134589243L
tp1768
sS'opncls_bflush'
p1769
(L134580912L
L134580915L
tp1770
sS'htab_try_create'
p1771
(L135050864L
L135050931L
tp1772
sS'_bfd_elf_eh_frame_present'
p1773
(L134850016L
L134850102L
tp1774
sS'snarf_numeric_literal'
p1775
(L134983056L
L134983219L
tp1776
sS'bfd_make_section'
p1777
(L134588112L
L134588147L
tp1778
sS'_bfd_archive_bsd_update_armap_timestamp'
p1779
(L134548832L
L134549182L
tp1780
sS'list_supported_targets'
p1781
(L134531216L
L134531429L
tp1782
sS'_bfd_generic_link_write_global_symbol'
p1783
(L134597488L
L134597727L
tp1784
sS'bfd_generic_link_read_symbols_0'
p1785
(L134597728L
L134597824L
tp1786
sS'concat_length'
p1787
(L135041904L
L135041956L
tp1788
sS'_bfd_elf_print_private_bfd_data'
p1789
(L134732176L
L134735091L
tp1790
sS'bfd_get_debug_link_info'
p1791
(L134581168L
L134581385L
tp1792
sS'elf_generic_info_to_howto'
p1793
(L134962192L
L134962204L
tp1794
sS'aout_32_squirt_out_relocs'
p1795
(L134881024L
L134881284L
tp1796
sS'aout_link_input_section'
p1797
(L134866640L
L134871462L
tp1798
sS'demangle_qualified'
p1799
(L134989536L
L134990727L
tp1800
sS'bfd_plugin_bfd_print_private_bfd_data'
p1801
(L134962656L
L134962688L
tp1802
sS'bfd_check_format'
p1803
(L134576608L
L134576643L
tp1804
sS'coff_read_word'
p1805
(L134520493L
L134520579L
tp1806
sS'demangle_template_value_parm'
p1807
(L134986128L
L134987511L
tp1808
sS'_bfd_elf_canonicalize_dynamic_symtab'
p1809
(L134729424L
L134729481L
tp1810
sS'_bfd_elf_fixup_group_sections'
p1811
(L134722096L
L134722300L
tp1812
sS'bfd_core_file_pid'
p1813
(L134968240L
L134968294L
tp1814
sS'tekhex_write_object_contents'
p1815
(L134621440L
L134622165L
tp1816
sS'tekhex_make_empty_symbol'
p1817
(L134619152L
L134619194L
tp1818
sS'aout_get_external_symbols'
p1819
(L134862960L
L134863371L
tp1820
sS'read_address'
p1821
(L134629744L
L134629964L
tp1822
sS'bfd_flush'
p1823
(L134558112L
L134558131L
tp1824
sS'stash_maybe_update_info_hash_tables'
p1825
(L134638272L
L134638782L
tp1826
sS'_bfd_norelocs_canonicalize_reloc'
p1827
(L134577040L
L134577053L
tp1828
sS'bfd_arch_i386_long_nop_fill'
p1829
(L134964528L
L134964546L
tp1830
sS'_bfd_elf_maybe_function_sym'
p1831
(L134756256L
L134756320L
tp1832
sS'concat_copy'
p1833
(L135041968L
L135042045L
tp1834
sS'new_fixup'
p1835
(L134861232L
L134861308L
tp1836
sS'bfd_create'
p1837
(L134584048L
L134584124L
tp1838
sS'bfd_scan_arch'
p1839
(L134551488L
L134551561L
tp1840
sS'_bfd_elf_section_offset'
p1841
(L134755088L
L134755231L
tp1842
sS'remember_Btype'
p1843
(L134982240L
L134982303L
tp1844
sS'aout_32_get_symtab_upper_bound'
p1845
(L134881664L
L134881711L
tp1846
sS'bfd_nonfatal_message'
p1847
(L134534160L
L134534483L
tp1848
sS'bfd_realloc2'
p1849
(L134577488L
L134577618L
tp1850
sS'numeric_reverse'
p1851
(L134522944L
L134522973L
tp1852
sS'coff_set_alignment_hook'
p1853
(L134894944L
L134895601L
tp1854
sS'_bfd_elf_init_1_index_section'
p1855
(L134805904L
L134805983L
tp1856
sS'hex_init'
p1857
(L135053328L
L135053330L
tp1858
sS'cplus_demangle_mangled_name'
p1859
(L135037648L
L135037929L
tp1860
sS'trad_unix_core_file_failing_command'
p1861
(L134964688L
L134964717L
tp1862
sS'_bfd_elf_add_dynamic_entry'
p1863
(L134785232L
L134785433L
tp1864
sS'_bfd_pe_print_ce_compressed_pdata'
p1865
(L134927792L
L134929070L
tp1866
sS'read_section'
p1867
(L134627712L
L134628170L
tp1868
sS'_bfd_archive_coff_construct_extended_name_table'
p1869
(L134543440L
L134543479L
tp1870
sS'elfcore_write_arm_vfp'
p1871
(L134753344L
L134753411L
tp1872
sS'do_arg'
p1873
(L134997360L
L134997688L
tp1874
sS'elf_i386_mkobject'
p1875
(L134661152L
L134661187L
tp1876
sS'bfd_elf32_write_shdrs_and_ehdr'
p1877
(L134685008L
L134685367L
tp1878
sS'memory_bflush'
p1879
(L134556704L
L134556707L
tp1880
sS'elf_append_rela'
p1881
(L134835376L
L134835496L
tp1882
sS'cplus_demangle_type'
p1883
(L135027728L
L135029868L
tp1884
sS'_objalloc_alloc'
p1885
(L135056240L
L135056511L
tp1886
sS'aout_32_slurp_reloc_table'
p1887
(L134880512L
L134881024L
tp1888
sS'_bfd_construct_extended_name_table'
p1889
(L134542368L
L134543392L
tp1890
sS'bfd_set_error'
p1891
(L134553056L
L134553131L
tp1892
sS'_bfd_pei_final_link_postscript'
p1893
(L134938832L
L134941685L
tp1894
sS'_bfd_elf_common_section'
p1895
(L134834976L
L134834982L
tp1896
sS'bfd_set_file_flags'
p1897
(L134553264L
L134553386L
tp1898
sS'elf32_generic_link_add_symbols'
p1899
(L134962224L
L134962295L
tp1900
sS'print_symbol'
p1901
(L134523728L
L134524882L
tp1902
sS'bfd_set_gp_size'
p1903
(L134554864L
L134554942L
tp1904
sS'_bfd_elf_discard_section_eh_frame'
p1905
(L134848112L
L134849886L
tp1906
sS'binary_get_symbol_info'
p1907
(L134617584L
L134617605L
tp1908
sS'bfd_seek'
p1909
(L134558224L
L134558619L
tp1910
sS'simple_restore_output_info'
p1911
(L134645344L
L134645378L
tp1912
sS'd_append_char'
p1913
(L135006496L
L135006610L
tp1914
sS'print_archive_filename_posix'
p1915
(L134522016L
L134522018L
tp1916
sS'add_symbols'
p1917
(L134962864L
L134962927L
tp1918
sS'cplus_mangle_opname'
p1919
(L134984192L
L134984330L
tp1920
sS'_bfd_elf_merge_symbol'
p1921
(L134776176L
L134779537L
tp1922
sS'bfd_link_add_undef'
p1923
(L134600224L
L134600308L
tp1924
sS'bfd_set_assert_handler'
p1925
(L134552704L
L134552720L
tp1926
sS'bfd_plugin_bfd_copy_private_symbol_data'
p1927
(L134962688L
L134962720L
tp1928
sS'bfd_link_repair_undef_list'
p1929
(L134600320L
L134600398L
tp1930
sS'srec_write_record'
p1931
(L134611568L
L134612135L
tp1932
sS'deregister_tm_clones'
p1933
(L134521808L
L134521850L
tp1934
sS'delete_non_B_K_work_stuff'
p1935
(L134982400L
L134982566L
tp1936
sS'bfd_sprintf_vma'
p1937
(L134555536L
L134555587L
tp1938
sS'bfd_hash_newfunc'
p1939
(L134596032L
L134596065L
tp1940
sS'elfcore_write_linux_prpsinfo32'
p1941
(L134751264L
L134751650L
tp1942
sS'_bfd_set_gp_value'
p1943
(L134555024L
L134555139L
tp1944
sS'_bfd_elf_maybe_strip_eh_frame_hdr'
p1945
(L134850112L
L134850216L
tp1946
sS'bfd_getl16'
p1947
(L134578112L
L134578129L
tp1948
sS'bfd_get_error'
p1949
(L134552288L
L134552294L
tp1950
sS'remember_type'
p1951
(L134984032L
L134984165L
tp1952
sS'_bfd_elf_init_private_section_data'
p1953
(L134721536L
L134721936L
tp1954
sS'bfd_getl64'
p1955
(L134578592L
L134578717L
tp1956
sS'_bfd_elf_canonicalize_dynamic_reloc'
p1957
(L134729632L
L134729920L
tp1958
sS'bfd_getl_signed_64'
p1959
(L134578864L
L134579006L
tp1960
sS'elfcore_write_aarch_hw_break'
p1961
(L134753504L
L134753571L
tp1962
sS'simple_dummy_undefined_symbol'
p1963
(L134645184L
L134645190L
tp1964
sS'buildargv'
p1965
(L135040336L
L135040912L
tp1966
sS'bfd_openr_next_archived_file'
p1967
(L134539280L
L134539347L
tp1968
sS'code_for_qualifier'
p1969
(L134982096L
L134982142L
tp1970
sS'bfd_section_already_linked_table_insert'
p1971
(L134608496L
L134608567L
tp1972
sS'bfd_generic_is_local_label_name'
p1973
(L134580112L
L134580149L
tp1974
sS'elf_create_symbuf'
p1975
(L134520111L
L134520493L
tp1976
sS'coff_link_check_archive_element'
p1977
(L134944432L
L134944541L
tp1978
sS'_bfd_elf_gc_keep'
p1979
(L134830752L
L134830870L
tp1980
sS'pe_mkobject_hook'
p1981
(L134894720L
L134894937L
tp1982
sS'memory_bseek'
p1983
(L134556928L
L134557155L
tp1984
sS'_bfd_elf_close_and_cleanup'
p1985
(L134736800L
L134736901L
tp1986
sS'read_uleb128'
p1987
(L134841440L
L134841542L
tp1988
sS'_bfd_elf_strtab_restore_size'
p1989
(L134840464L
L134840582L
tp1990
sS'd_call_offset'
p1991
(L135007808L
L135007916L
tp1992
sS'_bfd_handle_already_linked'
p1993
(L134608656L
L134609315L
tp1994
sS'string_appends'
p1995
(L134983232L
L134983292L
tp1996
sS'elf_gc_smash_unused_vtentry_relocs'
p1997
(L134783776L
L134784078L
tp1998
sS'register_tm_clones'
p1999
(L134521856L
L134521911L
tp2000
sS'bfd_emul_set_maxpagesize'
p2001
(L134555840L
L134555925L
tp2002
sS'bfd_elf_gnu_hash'
p2003
(L134698704L
L134698750L
tp2004
sS'binary_mkobject'
p2005
(L134617536L
L134617542L
tp2006
sS'srec_object_p'
p2007
(L134616960L
L134617273L
tp2008
sS'elf_adjust_dynstr_offsets'
p2009
(L134764496L
L134764542L
tp2010
sS'string_appendn'
p2011
(L134982688L
L134982736L
tp2012
sS'cplus_demangle_fill_dtor'
p2013
(L135027664L
L135027724L
tp2014
sS'find_debug_info_0'
p2015
(L134629296L
L134629397L
tp2016
sS'bfd_get_elf_phdrs'
p2017
(L134754720L
L134754803L
tp2018
sS'_bfd_dwarf2_slurp_debug_info'
p2019
(L134639792L
L134641419L
tp2020
sS'_bfd_elf_make_dynamic_segment'
p2021
(L134704624L
L134704682L
tp2022
sS'close_one'
p2023
(L134965648L
L134965734L
tp2024
sS'mangle_name'
p2025
(L134617616L
L134617760L
tp2026
sS'srec_bad_byte'
p2027
(L134614448L
L134614666L
tp2028
sS'bfd_close_all_done'
p2029
(L134583872L
L134584044L
tp2030
sS'bfd_elf_get_obj_attr_int'
p2031
(L134836848L
L134836954L
tp2032
sS'iterate_demangle_function'
p2033
(L135002096L
L135002509L
tp2034
sS'_bfd_elf_allocate_ifunc_dyn_relocs'
p2035
(L134677136L
L134677822L
tp2036
sS'elf_gc_sweep_symbol'
p2037
(L134761600L
L134761698L
tp2038
sS'cplus_demangle_v3'
p2039
(L135039872L
L135039896L
tp2040
sS'xexit'
p2041
(L135056992L
L135057018L
tp2042
sS'elf_i386_check_relocs'
p2043
(L134673984L
L134676400L
tp2044
sS'in_reloc_p'
p2045
(L134891056L
L134891086L
tp2046
sS'elf_i386_get_synthetic_symtab'
p2047
(L134660080L
L134660169L
tp2048
sS'_bfd_elf_dynamic_symbol_p'
p2049
(L134784640L
L134784921L
tp2050
sS'_bfd_elf_strtab_finalize'
p2051
(L134841008L
L134841432L
tp2052
sS'bfd_printable_arch_mach'
p2053
(L134552064L
L134552113L
tp2054
sS'bfd_putb16'
p2055
(L134578208L
L134578227L
tp2056
sS'usage'
p2057
(L134522160L
L134522507L
tp2058
sS'_bfd_elf_notice_as_needed'
p2059
(L134785936L
L134786004L
tp2060
sS'mode_string'
p2061
(L134534784L
L134535156L
tp2062
sS'bfd_new_link_order'
p2063
(L134607008L
L134607084L
tp2064
sS'do_slurp_bsd_armap'
p2065
(L134535232L
L134535637L
tp2066
sS'trad_unix_core_file_p'
p2067
(L134964736L
L134965366L
tp2068
sS'srec_set_section_contents'
p2069
(L134610944L
L134611488L
tp2070
sS'bfd_elf_set_obj_attr_contents'
p2071
(L134836384L
L134836845L
tp2072
sS'elfcore_grok_nto_regs'
p2073
(L134695536L
L134695856L
tp2074
sS'elf_get_linked_section_vma'
p2075
(L134762656L
L134762809L
tp2076
sS'bfd_putl32'
p2077
(L134579056L
L134579089L
tp2078
sS'elfcore_write_register_note'
p2079
(L134753664L
L134754652L
tp2080
sS'bfd_elf_gc_sections'
p2081
(L134830880L
L134831919L
tp2082
sS'elf_i386_local_htab_hash'
p2083
(L134649344L
L134649378L
tp2084
sS'bfd_elf32_core_file_matches_executable_p'
p2085
(L134691920L
L134692047L
tp2086
sS'qualifier_string'
p2087
(L134982144L
L134982232L
tp2088
sS'xmalloc'
p2089
(L135057216L
L135057259L
tp2090
sS'elf_add_dt_needed_tag'
p2091
(L134785440L
L134785855L
tp2092
sS'bfd_elf_string_from_elf_section'
p2093
(L134699072L
L134699102L
tp2094
sS'_bfd_elf_gc_mark_rsec'
p2095
(L134829344L
L134829589L
tp2096
sS'_bfd_elf_relocs_compatible'
p2097
(L134785872L
L134785935L
tp2098
sS'bfd_generic_archive_p'
p2099
(L134539520L
L134539960L
tp2100
sS'bfd_nonfatal'
p2101
(L134530592L
L134530736L
tp2102
sS'aout_32_new_section_hook'
p2103
(L134875584L
L134875779L
tp2104
sS'_bfd_count_link_order_relocs'
p2105
(L134608336L
L134608374L
tp2106
sS'create_info_hash_table'
p2107
(L134628176L
L134628280L
tp2108
sS'elf_slurp_reloc_table_from_section'
p2109
(L134685904L
L134686543L
tp2110
sS'parse_die'
p2111
(L134855392L
L134855895L
tp2112
sS'_bfd_generic_init_private_section_data'
p2113
(L134580656L
L134580662L
tp2114
sS'demangle_function_name'
p2115
(L134998528L
L134999818L
tp2116
sS'_bfd_pei_swap_aux_out'
p2117
(L134920432L
L134921139L
tp2118
sS'bfd_get_arch'
p2119
(L134551824L
L134551835L
tp2120
sS'_bfd_elf_rel_local_sym'
p2121
(L134755008L
L134755080L
tp2122
sS'elf_i386_reloc_name_lookup'
p2123
(L134661008L
L134661089L
tp2124
sS'rsrc_parse_directory'
p2125
(L134914864L
L134915172L
tp2126
sS'_bfd_elf_get_reloc_upper_bound'
p2127
(L134729216L
L134729231L
tp2128
sS'string_append_template_idx'
p2129
(L134982944L
L134983045L
tp2130
sS'srec_get_byte'
p2131
(L134612384L
L134612458L
tp2132
sS'bfd_set_format'
p2133
(L134576656L
L134576779L
tp2134
sS'bfd_elf32_core_file_p'
p2135
(L134692048L
L134693205L
tp2136
sS'_bfd_generic_link_add_symbols_collect'
p2137
(L134604496L
L134604511L
tp2138
sS'coff_find_inliner_info'
p2139
(L134573744L
L134573800L
tp2140
sS'bfd_fopen'
p2141
(L134582848L
L134583180L
tp2142
sS'bfd_elf_obj_attr_size'
p2143
(L134836320L
L134836371L
tp2144
sS'string_append_0'
p2145
(L134982880L
L134982938L
tp2146
sS'bfd_init'
p2147
(L134576832L
L134576834L
tp2148
sS'rsrc_print_name'
p2149
(L134911488L
L134911565L
tp2150
sS'_bfd_link_hash_newfunc'
p2151
(L134597824L
L134597928L
tp2152
sS'bfd_set_section_flags'
p2153
(L134588160L
L134588177L
tp2154
sS'bfd_elf32_core_file_pid'
p2155
(L134691888L
L134691908L
tp2156
sS'_bfd_stab_section_offset'
p2157
(L134977360L
L134977445L
tp2158
sS'bfd_elf32_object_p'
p2159
(L134688448L
L134690410L
tp2160
sS'_bfd_elf_section_already_linked'
p2161
(L134834016L
L134834933L
tp2162
sS'htab_clear_slot'
p2163
(L135052336L
L135052410L
tp2164
sS'_bfd_elf_get_synthetic_symtab'
p2165
(L134755264L
L134756145L
tp2166
sS'_bfd_elf_swap_verdef_in'
p2167
(L134697664L
L134697794L
tp2168
sS'memory_bstat'
p2169
(L134556736L
L134556854L
tp2170
sS'bfd_elf_gc_record_vtinherit'
p2171
(L134831920L
L134832158L
tp2172
sS'bfd_elf32_swap_dyn_out'
p2173
(L134682208L
L134682269L
tp2174
sS'dlang_parse_symbol'
p2175
(L135046496L
L135046967L
tp2176
sS'bfd_get_next_mapent'
p2177
(L134536800L
L134536902L
tp2178
sS'insert_info_hash_table'
p2179
(L134638160L
L134638257L
tp2180
sS'java_demangle_v3_callback'
p2181
(L135039968L
L135039994L
tp2182
sS'elf_i386_fbsd_post_process_headers'
p2183
(L134649472L
L134649477L
tp2184
sS'bfd_plugin_make_empty_symbol'
p2185
(L134962816L
L134962851L
tp2186
sS'elf_i386_finish_dynamic_sections'
p2187
(L134651024L
L134652608L
tp2188
sS'_bfd_elf_eh_frame_address_size'
p2189
(L134855296L
L134855324L
tp2190
sS'size_forward2'
p2191
(L134526752L
L134526834L
tp2192
sS'dos_lbasename'
p2193
(L135053392L
L135053465L
tp2194
sS'bfd_simple_get_relocated_section_contents'
p2195
(L134645392L
L134646089L
tp2196
sS'size_forward1'
p2197
(L134523008L
L134523566L
tp2198
sS'internal_cplus_demangle'
p2199
(L135004096L
L135005842L
tp2200
sS'bfd_get_reloc_upper_bound'
p2201
(L134553136L
L134553189L
tp2202
sS'bfd_zmalloc2'
p2203
(L134577824L
L134577960L
tp2204
sS'bfd_make_section_anyway'
p2205
(L134587856L
L134587891L
tp2206
sS'_bfd_coff_write_task_globals'
p2207
(L134945856L
L134945949L
tp2208
sS'_bfd_get_elt_at_filepos'
p2209
(L134538512L
L134539214L
tp2210
sS'bfd_get_reloc_size'
p2211
(L134968528L
L134968676L
tp2212
sS'non_numeric_forward'
p2213
(L134522512L
L134522718L
tp2214
sS'_bfd_elf_link_hash_newfunc'
p2215
(L134758784L
L134759003L
tp2216
sS'bfd_generic_merge_sections'
p2217
(L134972736L
L134972742L
tp2218
sS'bfd_is_section_compressed'
p2219
(L134647136L
L134647348L
tp2220
sS'_bfd_slurp_extended_name_table'
p2221
(L134541760L
L134542363L
tp2222
sS'bfd_elf_match_symbols_in_sections'
p2223
(L134759072L
L134760947L
tp2224
sS'_bfd_generic_read_ar_hdr'
p2225
(L134538352L
L134538379L
tp2226
sS'generic_link_check_archive_element_collect'
p2227
(L134605024L
L134605049L
tp2228
sS'ihex_write_object_contents'
p2229
(L134623264L
L134624093L
tp2230
sS'_bfd_elf_strtab_refcount'
p2231
(L134840384L
L134840402L
tp2232
sS'init_reloc_cookie'
p2233
(L134757344L
L134757618L
tp2234
sS'aout_32_read_minisymbols'
p2235
(L134882144L
L134882271L
tp2236
sS'_bfd_elf_get_special_section'
p2237
(L134702848L
L134703060L
tp2238
sS'string_prependn'
p2239
(L134982736L
L134982823L
tp2240
sS'linux_link_hash_table_create'
p2241
(L134858576L
L134858668L
tp2242
sS'elf_gc_propagate_vtable_entries_used'
p2243
(L134756560L
L134756754L
tp2244
sS'd_discriminator'
p2245
(L135006960L
L135006995L
tp2246
sS'elf_i386_size_dynamic_sections'
p2247
(L134655744L
L134659221L
tp2248
sS'bfd_elf_print_symbol'
p2249
(L134701424L
L134702316L
tp2250
sS'cplus_demangle_set_style'
p2251
(L134984336L
L134984377L
tp2252
sS'_bfd_generic_new_section_hook'
p2253
(L134586576L
L134586663L
tp2254
sS'_bfd_elf_swap_vernaux_in'
p2255
(L134698336L
L134698434L
tp2256
sS'aout_32_final_link'
p2257
(L134884160L
L134891044L
tp2258
sS'_bfd_elf_copy_link_hash_symbol_type'
p2259
(L134835296L
L134835364L
tp2260
sS'coff_count_linenumbers'
p2261
(L134561360L
L134561597L
tp2262
sS'get_file_size'
p2263
(L134533632L
L134533900L
tp2264
sS'htab_remove_elt'
p2265
(L135052288L
L135052328L
tp2266
sS'bfd_get_section_by_name'
p2267
(L134586752L
L134586812L
tp2268
sS'bfd_elf_gc_mark_dynamic_ref_symbol'
p2269
(L134830560L
L134830744L
tp2270
sS'_bfd_elfcore_strndup'
p2271
(L134737264L
L134737361L
tp2272
sS'_bfd_coff_section_already_linked'
p2273
(L134574176L
L134574577L
tp2274
sS'bfd_record_phdr'
p2275
(L134555264L
L134555522L
tp2276
sS'elfcore_write_xstatereg'
p2277
(L134752464L
L134752531L
tp2278
sS'bfd_elf_is_group_section'
p2279
(L134701152L
L134701174L
tp2280
sS'_bfd_stringtab_add'
p2281
(L134596464L
L134596757L
tp2282
sS'generic_link_check_archive_element'
p2283
(L134604512L
L134604991L
tp2284
sS'i386_aout_linux_callback'
p2285
(L134859776L
L134861158L
tp2286
sS'eq_file_ptr'
p2287
(L134535184L
L134535211L
tp2288
sS'_bfd_elf_strtab_size'
p2289
(L134840592L
L134840608L
tp2290
sS'd_print_array_type'
p2291
(L135024880L
L135025519L
tp2292
sS'd_number_component'
p2293
(L135006720L
L135006787L
tp2294
sS'_bfd_elf_strtab_addref'
p2295
(L134840112L
L134840219L
tp2296
sS'bfd_search_for_target'
p2297
(L134594288L
L134594361L
tp2298
sS'bfd_section_init'
p2299
(L134586272L
L134586392L
tp2300
sS'countargv'
p2301
(L135041840L
L135041890L
tp2302
sS'elf_link_sort_cmp1'
p2303
(L134761440L
L134761527L
tp2304
sS'bfd_find_version_for_sym'
p2305
(L134610224L
L134610664L
tp2306
sS'_bfd_elf_link_hash_hide_symbol'
p2307
(L134810384L
L134810466L
tp2308
sS'elf_i386_link_hash_newfunc'
p2309
(L134660640L
L134660735L
tp2310
sS'bfd_open_file'
p2311
(L134966080L
L134966375L
tp2312
sS'cplus_demangle_fill_extended_operator'
p2313
(L135027536L
L135027596L
tp2314
sS'aout_32_sizeof_headers'
p2315
(L134883696L
L134883710L
tp2316
sS'_bfd_elf_strtab_init'
p2317
(L134839696L
L134839820L
tp2318
sS'bfd_hide_sym_by_version'
p2319
(L134610672L
L134610719L
tp2320
sS'_bfd_elf_common_section_index'
p2321
(L134834960L
L134834966L
tp2322
sS'bfd_void'
p2323
(L134577008L
L134577010L
tp2324
sS'aout_32_minisymbol_to_symbol'
p2325
(L134882272L
L134882529L
tp2326
sS'bfd_scan_vma'
p2327
(L134555152L
L134555157L
tp2328
sS'pe_ILF_make_a_symbol_reloc'
p2329
(L134907296L
L134907436L
tp2330
sS'_bfd_nearby_section'
p2331
(L134609536L
L134609845L
tp2332
sS'comp_unit_find_nearest_line'
p2333
(L134638784L
L134639207L
tp2334
sS'bfd_check_overflow'
p2335
(L134968688L
L134968890L
tp2336
sS'_bfd_elf_set_arch_mach'
p2337
(L134735296L
L134735356L
tp2338
sS'_bfd_generic_read_minisymbols'
p2339
(L134590288L
L134590490L
tp2340
sS'simple_dummy_reloc_dangerous'
p2341
(L134645216L
L134645222L
tp2342
sS'linux_add_one_symbol'
p2343
(L134862048L
L134862729L
tp2344
sS'bfd_zalloc'
p2345
(L134584784L
L134584843L
tp2346
sS'elf_i386_copy_indirect_symbol'
p2347
(L134650256L
L134650550L
tp2348
sS'bfd_hash_rename'
p2349
(L134595536L
L134595731L
tp2350
sS'bfd_wrapped_link_hash_lookup'
p2351
(L134598240L
L134598703L
tp2352
sS'_bfd_elf_no_info_to_howto'
p2353
(L134736336L
L134736367L
tp2354
sS'elf_sort_sections'
p2355
(L134693376L
L134693548L
tp2356
sS'opncls_bclose'
p2357
(L134580864L
L134580907L
tp2358
sS'htab_elements'
p2359
(L135050320L
L135050331L
tp2360
sS'verilog_set_arch_mach'
p2361
(L134648096L
L134648133L
tp2362
sS'bfd_make_section_anyway_with_flags'
p2363
(L134587680L
L134587854L
tp2364
sS'htab_create_alloc_ex'
p2365
(L135050336L
L135050509L
tp2366
sS'coff_find_nearest_line_with_names'
p2367
(L134572288L
L134573619L
tp2368
sS'xstrerror'
p2369
(L135057488L
L135057570L
tp2370
sS'bfd_plugin_core_file_failing_command'
p2371
(L134962624L
L134962653L
tp2372
sS'work_stuff_copy_to_from'
p2373
(L134983296L
L134984022L
tp2374
sS'_bfd_elf_write_section_eh_frame'
p2375
(L134850720L
L134854278L
tp2376
sS'_bfd_elf_write_corefile_contents'
p2377
(L134721312L
L134721317L
tp2378
sS'bfd_arch_list'
p2379
(L134551568L
L134551697L
tp2380
sS'bfd_elf_mkcorefile'
p2381
(L134698992L
L134699071L
tp2382
sS'coff_swap_scnhdr_in'
p2383
(L134895616L
L134895881L
tp2384
sS'rsrc_print_resource_entries'
p2385
(L134912416L
L134913432L
tp2386
sS'bfd_elf_link_mark_dynamic_symbol'
p2387
(L134756320L
L134756426L
tp2388
sS'_bfd_coff_read_string_table'
p2389
(L134565696L
L134566090L
tp2390
sS'_bfd_generic_link_hash_newfunc'
p2391
(L134597936L
L134598031L
tp2392
sS'dummy_reloc16_extra_cases'
p2393
(L134892512L
L134892543L
tp2394
sS'coff_print_symbol'
p2395
(L134570816L
L134572241L
tp2396
sS'elf_i386_grok_psinfo'
p2397
(L134649584L
L134649946L
tp2398
sS'skip_cfa_op'
p2399
(L134841648L
L134842048L
tp2400
sS'MY_final_link_callback'
p2401
(L134857232L
L134857538L
tp2402
sS'bfd_generic_link_read_symbols'
p2403
(L134600496L
L134600525L
tp2404
sS'_bfd_elf_link_hash_table_init'
p2405
(L134810480L
L134810590L
tp2406
sS'aout_32_reloc_name_lookup'
p2407
(L134871600L
L134871707L
tp2408
sS'd_lookup_template_argument'
p2409
(L135007920L
L135008030L
tp2410
sS'fini_reloc_cookie_for_section'
p2411
(L134757200L
L134757272L
tp2412
sS'binary_canonicalize_symtab'
p2413
(L134617760L
L134617975L
tp2414
sS'arange_add'
p2415
(L134629552L
L134629741L
tp2416
sS'coff_make_empty_symbol'
p2417
(L134570112L
L134570175L
tp2418
sS'coff_i386_reloc_name_lookup'
p2419
(L134895984L
L134896071L
tp2420
sS'elfcore_write_prxfpreg'
p2421
(L134752384L
L134752451L
tp2422
sS'unwrap_hash_lookup'
p2423
(L134599808L
L134600070L
tp2424
sS'get_dynamic_reloc_section_name'
p2425
(L134762336L
L134762460L
tp2426
sS'aout_32_swap_exec_header_in'
p2427
(L134871712L
L134871961L
tp2428
sS'_bfd_pei_swap_aux_in'
p2429
(L134919744L
L134920432L
tp2430
sS'elfcore_write_prfpreg'
p2431
(L134752304L
L134752371L
tp2432
sS'_bfd_elf_strtab_free'
p2433
(L134839824L
L134839864L
tp2434
sS'htab_delete'
p2435
(L135050944L
L135051063L
tp2436
sS'bfd_demangle'
p2437
(L134556096L
L134556681L
tp2438
sS'elfcore_write_s390_tdb'
p2439
(L134753264L
L134753331L
tp2440
sS'bfd_get_stab_name'
p2441
(L134977456L
L134977482L
tp2442
sS'size_of_output_cie_fde'
p2443
(L134841568L
L134841642L
tp2444
sS'_bfd_write_merged_section'
p2445
(L134980384L
L134980761L
tp2446
sS'comp_unit_find_line'
p2447
(L134637760L
L134638148L
tp2448
sS'cache_bflush'
p2449
(L134967120L
L134967208L
tp2450
sS'bfd_section_already_linked_table_lookup'
p2451
(L134608448L
L134608491L
tp2452
sS'bfd_elf_get_default_section_type'
p2453
(L134704384L
L134704411L
tp2454
sS'dlang_identifier'
p2455
(L135045456L
L135046494L
tp2456
sS'd_encoding'
p2457
(L135036176L
L135037635L
tp2458
sS'bfd_is_undefined_symclass'
p2459
(L134590160L
L134590187L
tp2460
sS'cie_eq'
p2461
(L134842176L
L134842439L
tp2462
sS'bfd_link_hash_traverse'
p2463
(L134600080L
L134600224L
tp2464
sS'tekhex_get_symtab_upper_bound'
p2465
(L134618832L
L134618847L
tp2466
sS'coff_link_add_object_symbols'
p2467
(L134941904L
L134944422L
tp2468
sS'_bfd_elf_merge_unknown_attribute_list'
p2469
(L134839184L
L134839463L
tp2470
sS'_bfd_stringtab_size'
p2471
(L134596768L
L134596776L
tp2472
sS'u16_mbtouc'
p2473
(L134915184L
L134915273L
tp2474
sS'_bfd_elf_check_kept_section'
p2475
(L134812352L
L134812514L
tp2476
sS'bfd_coff_set_symbol_class'
p2477
(L134573872L
L134574118L
tp2478
sS'_bfd_pei_only_swap_filehdr_out'
p2479
(L134923632L
L134924734L
tp2480
sS'print_archive_filename_bsd'
p2481
(L134526976L
L134527027L
tp2482
sS'_bfd_elf_encode_eh_address'
p2483
(L134855344L
L134855386L
tp2484
sS'_bfd_elf_compute_section_file_positions'
p2485
(L134707904L
L134720571L
tp2486
sS'bfd_arch_bits_per_byte'
p2487
(L134551856L
L134551867L
tp2488
sS'_bfd_stringtab_init'
p2489
(L134596256L
L134596372L
tp2490
sS'aout_32_link_hash_table_init'
p2491
(L134883904L
L134883909L
tp2492
sS'_bfd_elf_get_symbol_info'
p2493
(L134735152L
L134735173L
tp2494
sS'print_symbol_filename_sysv'
p2495
(L134527264L
L134527345L
tp2496
sS'bfd_elf32_checksum_contents'
p2497
(L134687680L
L134688437L
tp2498
sS'archive_close_worker'
p2499
(L134536336L
L134536365L
tp2500
sS'do_type'
p2501
(L134990736L
L134994005L
tp2502
sS'check_for_relocs'
p2503
(L134962304L
L134962410L
tp2504
sS'bfd_getl_signed_32'
p2505
(L134578416L
L134578453L
tp2506
sS'bfd_calc_gnu_debuglink_crc32'
p2507
(L134585184L
L134585237L
tp2508
sS'linux_link_hash_newfunc'
p2509
(L134858672L
L134858748L
tp2510
sS'generic_link_check_archive_element_no_collect'
p2511
(L134604992L
L134605017L
tp2512
sS'bfd_getb64'
p2513
(L134578464L
L134578589L
tp2514
sS'pe_print_debugdata'
p2515
(L134926000L
L134927339L
tp2516
sS'd_parmlist'
p2517
(L135030304L
L135030504L
tp2518
sS'_bfd_elf_archive_symbol_lookup'
p2519
(L134786016L
L134786336L
tp2520
sS'aout_32_some_aout_object_p'
p2521
(L134872304L
L134873094L
tp2522
sS'aout_link_free_symbols'
p2523
(L134864928L
L134864996L
tp2524
sS'print_object_filename_posix'
p2525
(L134526912L
L134526971L
tp2526
sS'_bfd_generic_get_section_contents_in_window'
p2527
(L134579904L
L134579935L
tp2528
sS'bfd_elf_link_record_dynamic_symbol'
p2529
(L134775952L
L134776174L
tp2530
sS'__divdi3'
p2531
(L135057584L
L135057954L
tp2532
sS'cie_hash'
p2533
(L134841552L
L134841560L
tp2534
sS'xmalloc_failed'
p2535
(L135057088L
L135057211L
tp2536
sS'bfd_elf_gc_record_vtentry'
p2537
(L134832160L
L134832490L
tp2538
sS'bfd_plugin_set_program_name'
p2539
(L134964272L
L134964282L
tp2540
sS'__libc_csu_init'
p2541
(L135058784L
L135058881L
tp2542
sS'_bfd_elf_adjust_dynamic_copy'
p2543
(L134784544L
L134784639L
tp2544
sS'_bfd_coff_generic_relocate_section'
p2545
(L134960832L
L134962182L
tp2546
sS'_bfd_elf_create_got_section'
p2547
(L134774576L
L134774896L
tp2548
sS'd_operator_name'
p2549
(L135029872L
L135030302L
tp2550
sS'bfd_set_arch_info'
p2551
(L134551808L
L134551820L
tp2552
sS'bfd_target_list'
p2553
(L134594144L
L134594274L
tp2554
sS'elf_vxworks_final_write_processing'
p2555
(L134681104L
L134681214L
tp2556
sS'elf_i386_rtype_to_howto'
p2557
(L134650736L
L134650902L
tp2558
sS'filename_hash'
p2559
(L135049072L
L135049133L
tp2560
sS'_bfd_generic_link_hash_table_create'
p2561
(L134600400L
L134600492L
tp2562
sS'bfd_mmap'
p2563
(L134558768L
L134558837L
tp2564
sS'read_signed_leb128'
p2565
(L134580576L
L134580645L
tp2566
sS'aout_32_set_section_contents'
p2567
(L134875792L
L134876195L
tp2568
sS'_bfd_stringtab_emit'
p2569
(L134596784L
L134596941L
tp2570
sS'demangle_args'
p2571
(L134997696L
L134998387L
tp2572
sS'_bfd_discard_section_stabs'
p2573
(L134975952L
L134976674L
tp2574
sS'pe_ILF_make_a_symbol'
p2575
(L134896112L
L134896513L
tp2576
sS'comp_unit_contains_address'
p2577
(L134629248L
L134629286L
tp2578
sS'objalloc_free'
p2579
(L135056512L
L135056566L
tp2580
sS'bfd_get_assert_handler'
p2581
(L134552720L
L134552726L
tp2582
sS'pe_ILF_save_relocs'
p2583
(L134897088L
L134897212L
tp2584
sS'elf_link_read_relocs_from_section'
p2585
(L134761712L
L134762232L
tp2586
sS'objalloc_free_block'
p2587
(L135056576L
L135056894L
tp2588
sS'_bfd_elf_link_create_dynamic_sections'
p2589
(L134774896L
L134775548L
tp2590
sS'bfd_arch_mach_octets_per_byte'
p2591
(L134552208L
L134552265L
tp2592
sS'aout_link_includes_newfunc'
p2593
(L134864832L
L134864922L
tp2594
sS'bfd_elf_set_dt_needed_name'
p2595
(L134810704L
L134810749L
tp2596
sS'verilog_write_object_contents'
p2597
(L134648256L
L134648752L
tp2598
sS'elf_i386_allocate_local_dynrelocs'
p2599
(L134673888L
L134673974L
tp2600
sS'bfd_get_linker_section'
p2601
(L134586896L
L134586990L
tp2602
sS'_bfd_generic_section_already_linked'
p2603
(L134609328L
L134609521L
tp2604
sS'_bfd_stringtab_free'
p2605
(L134596416L
L134596455L
tp2606
sS'_bfd_elf_eh_frame_section_offset'
p2607
(L134850224L
L134850716L
tp2608
sS'dlang_parse_integer'
p2609
(L135043168L
L135043830L
tp2610
sS'get_segment_type'
p2611
(L134693216L
L134693374L
tp2612
sS'bfd_getb_signed_32'
p2613
(L134578368L
L134578403L
tp2614
sS'_bfd_pei_swap_debugdir_in'
p2615
(L134925856L
L134925999L
tp2616
sS'bfd_make_section_with_flags'
p2617
(L134587904L
L134588102L
tp2618
sS'_bfd_abort'
p2619
(L134552848L
L134553044L
tp2620
sS'bfd_dont_truncate_arname'
p2621
(L134544464L
L134544634L
tp2622
sS'concat'
p2623
(L135042144L
L135042289L
tp2624
sS'bfd_elf_link_add_symbols'
p2625
(L134786336L
L134799596L
tp2626
sS'unlink_if_ordinary'
p2627
(L135056896L
L135056985L
tp2628
sS'xcalloc'
p2629
(L135057264L
L135057335L
tp2630
sS'consume_count'
p2631
(L134981344L
L134981424L
tp2632
sS'memory_bclose'
p2633
(L134556864L
L134556914L
tp2634
sS'_bfd_elf_gc_mark'
p2635
(L134829600L
L134830019L
tp2636
sS'bfd_get_mach'
p2637
(L134551840L
L134551851L
tp2638
sS'writesym'
p2639
(L134619648L
L134619767L
tp2640
sS'bfd_elf32_slurp_symbol_table'
p2641
(L134682464L
L134683943L
tp2642
sS'rsrc_compute_region_sizes'
p2643
(L134911232L
L134911401L
tp2644
sS'bfd_reloc_name_lookup'
p2645
(L134972368L
L134972383L
tp2646
sS'concat_copy2'
p2647
(L135042048L
L135042134L
tp2648
sS'coff_i386_rtype_to_howto'
p2649
(L134891680L
L134892056L
tp2650
sS'bfd_cache_lookup_worker'
p2651
(L134966384L
L134966693L
tp2652
sS'bfd_coff_get_auxent'
p2653
(L134570512L
L134570801L
tp2654
sS'remember_Ktype'
p2655
(L134981952L
L134982088L
tp2656
sS'elf_swap_shdr_out'
p2657
(L134684800L
L134684995L
tp2658
sS'bfd_cache_section_contents'
p2659
(L134647088L
L134647130L
tp2660
sS'bfd_elf_set_dyn_lib_class'
p2661
(L134810816L
L134810861L
tp2662
s.