(dp0
S'bfd_elf_get_elf_syms'
p1
(L134938656L
L134939513L
tp2
sS'display_debug_not_supported'
p3
(L134552480L
L134552549L
tp4
sS'_bfd_elf_swap_versym_in'
p5
(L134937648L
L134937679L
tp6
sS'opncls_bflush'
p7
(L134819952L
L134819955L
tp8
sS'elf_new_obj_attr'
p9
(L135075024L
L135075139L
tp10
sS'coff_write_alien_symbol'
p11
(L134801840L
L134802432L
tp12
sS'bfd_close'
p13
(L134822672L
L134822908L
tp14
sS'fix_syms'
p15
(L134848896L
L134849020L
tp16
sS'bfd_get_full_section_contents'
p17
(L134885408L
L134886148L
tp18
sS'lrealpath'
p19
(L135298128L
L135298223L
tp20
sS'cplus_demangle_opname'
p21
(L135235072L
L135236080L
tp22
sS'_bfd_elf_link_output_relocs'
p23
(L135023152L
L135023557L
tp24
sS'bfd_get_reloc_code_name'
p25
(L135211616L
L135211643L
tp26
sS'tekhex_set_arch_mach'
p27
(L134858240L
L134858295L
tp28
sS'ieee_class_static_method_variant'
p29
(L134708544L
L134708605L
tp30
sS'_bfd_generic_copy_link_hash_symbol_type'
p31
(L134839616L
L134839618L
tp32
sS'_bfd_pei_swap_debugdir_out'
p33
(L135166416L
L135166596L
tp34
sS'_bfd_elf_default_relocs_compatible'
p35
(L135024928L
L135024943L
tp36
sS'tg_start_source'
p37
(L134625856L
L134625900L
tp38
sS'debug_make_static_method_variant'
p39
(L134657648L
L134657806L
tp40
sS'd_print_mod_list'
p41
(L135262976L
L135263908L
tp42
sS'_bfd_generic_get_elt_at_index'
p43
(L134778256L
L134778308L
tp44
sS'stab_bad_demangle'
p45
(L134660192L
L134660260L
tp46
sS'ieee_function_type'
p47
(L134702400L
L134702988L
tp48
sS'_bfd_elf_link_read_relocs'
p49
(L135022016L
L135022612L
tp50
sS'ieee_end_class_type'
p51
(L134704432L
L134705124L
tp52
sS'_bfd_bsd44_write_ar_hdr'
p53
(L134782816L
L134783121L
tp54
sS'bfd_zmalloc'
p55
(L134816784L
L134816854L
tp56
sS'tg_struct_field'
p57
(L134627280L
L134627435L
tp58
sS'disassembler'
p59
(L134741920L
L134741955L
tp60
sS'aout_32_print_symbol'
p61
(L135120960L
L135121210L
tp62
sS'bfd_sym_from_r_symndx'
p63
(L134941520L
L134941862L
tp64
sS'decode_line_info'
p65
(L134871200L
L134874166L
tp66
sS'free_saved_stabs'
p67
(L134642896L
L134642958L
tp68
sS'_bfd_elf_find_inliner_info'
p69
(L134975040L
L134975099L
tp70
sS'consume_count'
p71
(L135220384L
L135220464L
tp72
sS'real_ftell'
p73
(L134796624L
L134796629L
tp74
sS'demangle_expression'
p75
(L135226560L
L135226946L
tp76
sS'ieee_add_bb11'
p77
(L134710560L
L134711313L
tp78
sS'OP_E_memory'
p79
(L134756992L
L134760604L
tp80
sS'_bfd_elf_reloc_type_class'
p81
(L134993888L
L134993891L
tp82
sS'elf_generic_info_to_howto_rel'
p83
(L135201280L
L135201292L
tp84
sS'd_print_array_type'
p85
(L135263920L
L135264559L
tp86
sS'compare_sequences'
p87
(L134868240L
L134868311L
tp88
sS'freeargv'
p89
(L135279312L
L135279374L
tp90
sS'OP_T'
p91
(L134749152L
L134749213L
tp92
sS'OP_R'
p93
(L134753456L
L134753496L
tp94
sS'OP_M'
p95
(L134768576L
L134768613L
tp96
sS'OP_I'
p97
(L134771248L
L134771587L
tp98
sS'OP_J'
p99
(L134772224L
L134772686L
tp100
sS'OP_D'
p101
(L134749376L
L134749526L
tp102
sS'OP_E'
p103
(L134760608L
L134760669L
tp104
sS'OP_G'
p105
(L134753504L
L134753890L
tp106
sS'debug_end_block'
p107
(L134654448L
L134654594L
tp108
sS'OP_C'
p109
(L134749008L
L134749146L
tp110
sS'binary_get_symtab_upper_bound'
p111
(L134856592L
L134856598L
tp112
sS'disassemble_section'
p113
(L134546272L
L134551480L
tp114
sS'bfd_put_bits'
p115
(L134818304L
L134818425L
tp116
sS'warn_stab'
p117
(L134660112L
L134660188L
tp118
sS'bfd_elf_set_obj_attr_contents'
p119
(L135075456L
L135075917L
tp120
sS'cmpindexentry'
p121
(L134828208L
L134828236L
tp122
sS'tg_float_constant'
p123
(L134625664L
L134625782L
tp124
sS'disassemble_init_for_target'
p125
(L134741984L
L134741986L
tp126
sS'get_DW_AT_name'
p127
(L135290704L
L135293543L
tp128
sS'rsrc_sort_entries'
p129
(L135154352L
L135157992L
tp130
sS'coff_i386_is_local_label_name'
p131
(L135135152L
L135135174L
tp132
sS'bfd_elf_record_link_assignment'
p133
(L135020720L
L135021295L
tp134
sS'elf_parse_notes'
p135
(L134976448L
L134981472L
tp136
sS'init_dwarf_regnames_aarch64'
p137
(L134624096L
L134624117L
tp138
sS'ieee_void_type'
p139
(L134687296L
L134687337L
tp140
sS'make_tempname'
p141
(L134734816L
L134734876L
tp142
sS'get_dynamic_reloc_section_name'
p143
(L135001408L
L135001532L
tp144
sS'show_line'
p145
(L134544944L
L134546265L
tp146
sS'simple_dummy_reloc_overflow'
p147
(L134884272L
L134884278L
tp148
sS'separate_debug_file_exists'
p149
(L134820512L
L134820711L
tp150
sS'cache_bclose'
p151
(L135204816L
L135204859L
tp152
sS'elf_i386_gc_mark_hook'
p153
(L134890016L
L134890094L
tp154
sS'_bfd_final_link_relocate'
p155
(L135210832L
L135211022L
tp156
sS'ieee_int_constant'
p157
(L134686208L
L134686214L
tp158
sS'warn'
p159
(L134738208L
L134738332L
tp160
sS'aout_32_swap_exec_header_out'
p161
(L135111040L
L135111215L
tp162
sS'bfd_get_error_handler'
p163
(L134791728L
L134791734L
tp164
sS'coff_set_arch_mach_hook'
p165
(L135134960L
L135135045L
tp166
sS'bfd_putb64'
p167
(L134818144L
L134818221L
tp168
sS'_bfd_norelocs_canonicalize_reloc'
p169
(L134816080L
L134816093L
tp170
sS'd_template_param'
p171
(L135245904L
L135245990L
tp172
sS'concat_length'
p173
(L135280944L
L135280996L
tp174
sS'bfd_openstreamr'
p175
(L134822448L
L134822556L
tp176
sS'd_ref_qualifier'
p177
(L135245360L
L135245439L
tp178
sS'bfd_elf_link_record_local_dynamic_symbol'
p179
(L135021296L
L135021732L
tp180
sS'elf_i386_finish_local_dynamic_symbol'
p181
(L134893408L
L134893452L
tp182
sS'bfd_elf32_swap_reloc_in'
p183
(L134920928L
L134920986L
tp184
sS'tg_variable'
p185
(L134626512L
L134626890L
tp186
sS'parse_die'
p187
(L135094464L
L135094967L
tp188
sS'elfcore_write_s390_timer'
p189
(L134991776L
L134991843L
tp190
sS'warn_deprecated'
p191
(L134819344L
L134819543L
tp192
sS'bfd_compress_section_contents'
p193
(L134885168L
L134885402L
tp194
sS'comp_addr_base'
p195
(L134552432L
L134552447L
tp196
sS'debug_type_samep'
p197
(L134646336L
L134648317L
tp198
sS'cplus_demangle_fill_name'
p199
(L135266512L
L135266570L
tp200
sS'_bfd_elf_default_action_discarded'
p201
(L135051344L
L135051420L
tp202
sS'bfd_elf_discard_info'
p203
(L135072448L
L135073082L
tp204
sS'string_append_template_idx'
p205
(L135221984L
L135222085L
tp206
sS'bfd_elf_gc_common_finalize_got_offsets'
p207
(L135071968L
L135072371L
tp208
sS'bfd_generic_gc_sections'
p209
(L135211728L
L135211734L
tp210
sS'pe_ILF_save_relocs'
p211
(L135136160L
L135136284L
tp212
sS'bfd_symbol_info'
p213
(L134829232L
L134829314L
tp214
sS'read_cie'
p215
(L134581664L
L134582678L
tp216
sS'd_make_comp'
p217
(L135244896L
L135245003L
tp218
sS'debug_get_parameter_types'
p219
(L134659248L
L134659342L
tp220
sS'debug_start_common_block'
p221
(L134654976L
L134655046L
tp222
sS'elfcore_maybe_make_sect'
p223
(L134934496L
L134934596L
tp224
sS'bfd_coff_set_long_section_names_allowed'
p225
(L135130528L
L135130554L
tp226
sS'bfd_generic_relax_section'
p227
(L135211648L
L135211720L
tp228
sS'tg_start_function'
p229
(L134631536L
L134631829L
tp230
sS'elf_i386_fake_sections'
p231
(L134888608L
L134888649L
tp232
sS'bfd_hash_set_default_size'
p233
(L134835248L
L134835286L
tp234
sS'bfd_install_relocation'
p235
(L135209056L
L135209978L
tp236
sS'debug_make_const_type'
p237
(L134656976L
L134657020L
tp238
sS'_bfd_elf_setup_sections'
p239
(L134939648L
L134940220L
tp240
sS'bfd_elf_final_link'
p241
(L135057520L
L135068171L
tp242
sS'elf_i386_reloc_type_class'
p243
(L134888512L
L134888539L
tp244
sS'elf_i386_readonly_dynrelocs'
p245
(L134889632L
L134889802L
tp246
sS'display_info'
p247
(L134733040L
L134734483L
tp248
sS'sub_807F1A0'
p249
(L134738336L
L134738493L
tp250
sS'ieee_start_source'
p251
(L134686192L
L134686198L
tp252
sS'_bfd_coff_reloc_link_order'
p253
(L135194368L
L135195099L
tp254
sS'_bfd_elf_find_nearest_line'
p255
(L134974432L
L134974903L
tp256
sS'find_target'
p257
(L134832432L
L134832599L
tp258
sS'bfd_arch_i386_onebyte_nop_fill'
p259
(L135203632L
L135203694L
tp260
sS'ieee_lineno'
p261
(L134697040L
L134698155L
tp262
sS'ihex_get_section_contents'
p263
(L134866032L
L134866749L
tp264
sS'elfcore_write_s390_todpreg'
p265
(L134991936L
L134992003L
tp266
sS'stab_demangle_type'
p267
(L134665552L
L134668164L
tp268
sS'bfd_plugin_canonicalize_symtab'
p269
(L135203024L
L135203329L
tp270
sS'_bfd_elf_write_object_contents'
p271
(L134959648L
L134960373L
tp272
sS'cplus_mangle_opname'
p273
(L135223232L
L135223370L
tp274
sS'bfd_follow_gnu_debuglink'
p275
(L134824672L
L134824698L
tp276
sS'coff_real_object_p'
p277
(L134805136L
L134806688L
tp278
sS'_bfd_nocore_core_file_failing_command'
p279
(L134816128L
L134816149L
tp280
sS'aout_32_translate_symbol_table'
p281
(L135115328L
L135116169L
tp282
sS'ieee_float_type'
p283
(L134688544L
L134688714L
tp284
sS'bfd_section_already_linked_table_free'
p285
(L134847664L
L134847683L
tp286
sS'already_linked_newfunc'
p287
(L134835984L
L134836022L
tp288
sS'save_stab'
p289
(L134642960L
L134643079L
tp290
sS'make_temp_file'
p291
(L135300512L
L135300748L
tp292
sS'ieee_array_type'
p293
(L134701648L
L134702058L
tp294
sS'bfd_plugin_make_empty_symbol'
p295
(L135201888L
L135201923L
tp296
sS'stab_record_variable'
p297
(L134660672L
L134660847L
tp298
sS'pr_class_start_method'
p299
(L134626896L
L134626962L
tp300
sS'srec_get_symtab_upper_bound'
p301
(L134849776L
L134849791L
tp302
sS'bfd_set_error_program_name'
p303
(L134791712L
L134791722L
tp304
sS'bfd_generic_discard_group'
p305
(L134828192L
L134828198L
tp306
sS'_bfd_elf_eh_frame_section_offset'
p307
(L135089296L
L135089788L
tp308
sS'tg_end_class_type'
p309
(L134627472L
L134627630L
tp310
sS'parse_number'
p311
(L134660512L
L134660657L
tp312
sS'_bfd_elf_link_hash_hide_symbol'
p313
(L135049456L
L135049538L
tp314
sS'bfd_perror'
p315
(L134791552L
L134791695L
tp316
sS'ieee_read_optional_number'
p317
(L134711872L
L134712144L
tp318
sS'simple_save_output_info'
p319
(L134884352L
L134884403L
tp320
sS'bfd_generic_lookup_section_flags'
p321
(L135211744L
L135211807L
tp322
sS'bfd_plugin_core_file_failing_signal'
p323
(L135201664L
L135201693L
tp324
sS'java_demangle_v3_callback'
p325
(L135279008L
L135279034L
tp326
sS'bfd_elf_get_dt_soname'
p327
(L135050000L
L135050041L
tp328
sS'debug_init'
p329
(L134652880L
L134652990L
tp330
sS'pe_mkobject'
p331
(L135133616L
L135133779L
tp332
sS'display_debug_macinfo'
p333
(L134564096L
L134564705L
tp334
sS'aout_32_swap_ext_reloc_out'
p335
(L135118160L
L135118498L
tp336
sS'OP_ESreg'
p337
(L134751280L
L134751403L
tp338
sS'display_debug_frames'
p339
(L134614208L
L134624024L
tp340
sS'decode_location_expression'
p341
(L134564720L
L134571052L
tp342
sS'pe_ILF_make_a_section'
p343
(L135135600L
L135135876L
tp344
sS'debug_get_type_name'
p345
(L134659056L
L134659102L
tp346
sS'bfd_hash_table_init_n'
p347
(L134833408L
L134833623L
tp348
sS'_bfd_elf_canonicalize_symtab'
p349
(L134968432L
L134968489L
tp350
sS'coff_sort_func_alent'
p351
(L135130672L
L135130724L
tp352
sS'OP_LWPCB_E'
p353
(L134751968L
L134752065L
tp354
sS'debug_make_method_variant'
p355
(L134657472L
L134657641L
tp356
sS'_bfd_elf_can_make_relative'
p357
(L135094400L
L135094406L
tp358
sS'htab_hash_string'
p359
(L135297248L
L135297286L
tp360
sS'coff_slurp_symbol_table'
p361
(L135138848L
L135138877L
tp362
sS'_bfd_elf_init_2_index_sections'
p363
(L135045056L
L135045241L
tp364
sS'pr_const_type'
p365
(L134628592L
L134628606L
tp366
sS'debug_make_static_member'
p367
(L134657280L
L134657430L
tp368
sS'elfcore_write_s390_system_call'
p369
(L134992256L
L134992323L
tp370
sS'pr_variable'
p371
(L134638160L
L134638449L
tp372
sS'bfd_cache_close'
p373
(L135205024L
L135205060L
tp374
sS'debug_record_parameter'
p375
(L134653760L
L134653971L
tp376
sS'process_section_p'
p377
(L134533216L
L134533307L
tp378
sS'remember_type'
p379
(L135223072L
L135223205L
tp380
sS'_bfd_dwarf2_cleanup_debug_info'
p381
(L134878368L
L134878863L
tp382
sS'parse_coff_symbol'
p383
(L134726800L
L134727279L
tp384
sS'_bfd_elf_find_segment_containing_section'
p385
(L134943600L
L134943691L
tp386
sS'bsd_write_armap'
p387
(L134786624L
L134787872L
tp388
sS'srec_mkobject'
p389
(L134851184L
L134851311L
tp390
sS'parse_stab_type'
p391
(L134671104L
L134681964L
tp392
sS'bfd_set_error_handler'
p393
(L134791696L
L134791712L
tp394
sS'ieee_typed_constant'
p395
(L134690656L
L134690679L
tp396
sS'cplus_demangle_type'
p397
(L135266768L
L135268908L
tp398
sS'add_data_entry'
p399
(L135150480L
L135150560L
tp400
sS'bfd_section_from_elf_index'
p401
(L134941872L
L134941907L
tp402
sS'd_function_type'
p403
(L135270512L
L135270594L
tp404
sS'_bfd_elf_size_group_sections'
p405
(L135038736L
L135038818L
tp406
sS'OP_Mask'
p407
(L134754416L
L134754533L
tp408
sS'_bfd_elf_get_reloc_upper_bound'
p409
(L134968288L
L134968303L
tp410
sS'bfd_set_format'
p411
(L134815696L
L134815819L
tp412
sS'ieee_read_expression'
p413
(L134712144L
L134712716L
tp414
sS'bfd_make_readable'
p415
(L134823312L
L134823575L
tp416
sS'srec_print_symbol'
p417
(L134851312L
L134851417L
tp418
sS'bfd_errmsg'
p419
(L134791344L
L134791537L
tp420
sS'bfd_elf_get_needed_list'
p421
(L135049936L
L135049956L
tp422
sS'separate_alt_debug_file_exists'
p423
(L134820432L
L134820510L
tp424
sS'elf_create_symbuf'
p425
(L134526425L
L134526807L
tp426
sS'pr_lineno'
p427
(L134638000L
L134638153L
tp428
sS'ieee_start_compilation_unit'
p429
(L134700016L
L134700553L
tp430
sS'bfd_elf_sym_name'
p431
(L134939520L
L134939647L
tp432
sS'_bfd_relocate_contents'
p433
(L135209984L
L135210831L
tp434
sS'bfd_dont_truncate_arname'
p435
(L134783504L
L134783674L
tp436
sS'elf32_i386_nacl_elf_object_p'
p437
(L134900272L
L134900312L
tp438
sS'bfd_getl_signed_16'
p439
(L134817216L
L134817241L
tp440
sS'display_debug_pubnames_worker'
p441
(L134605376L
L134606952L
tp442
sS'elf_gc_allocate_got_offsets'
p443
(L134995840L
L134995950L
tp444
sS'elf_merge_st_other'
p445
(L135000128L
L135000227L
tp446
sS'memory_btell'
p447
(L134795728L
L134795739L
tp448
sS'aout_32_adjust_sizes_and_vmas'
p449
(L135113120L
L135114641L
tp450
sS'bfd_log2'
p451
(L134819104L
L134819139L
tp452
sS'string_appendn_0'
p453
(L135282880L
L135282928L
tp454
sS'cplus_demangle'
p455
(L135224880L
L135225153L
tp456
sS'_bfd_elf_get_symtab_upper_bound'
p457
(L134968112L
L134968166L
tp458
sS'pr_start_source'
p459
(L134626976L
L134627069L
tp460
sS'pr_typed_constant'
p461
(L134640944L
L134641153L
tp462
sS'bfd_arch_bits_per_address'
p463
(L134790912L
L134790923L
tp464
sS'_bfd_elf_find_line'
p465
(L134974912L
L134975027L
tp466
sS'find_symbol_for_address'
p467
(L134529584L
L134530664L
tp468
sS'process_cu_tu_index'
p469
(L134559712L
L134562826L
tp470
sS'elf_i386_adjust_dynamic_symbol'
p471
(L134898576L
L134899144L
tp472
sS'bfd_getb32'
p473
(L134817312L
L134817347L
tp474
sS'bfd_make_writable'
p475
(L134823168L
L134823308L
tp476
sS'report'
p477
(L134732144L
L134732264L
tp478
sS'is_gnu_v3_mangled_dtor'
p479
(L135279088L
L135279123L
tp480
sS'BND_Fixup'
p481
(L134742560L
L134742587L
tp482
sS'bfd_openr_iovec'
p483
(L134823888L
L134824059L
tp484
sS'load_cu_tu_indexes'
p485
(L134562832L
L134562939L
tp486
sS'bfd_elf32_swap_dyn_in'
p487
(L134921216L
L134921267L
tp488
sS'bfd_rename_section'
p489
(L134827232L
L134827269L
tp490
sS'debug_get_return_type'
p491
(L134659184L
L134659238L
tp492
sS'bfd_elf_set_group_contents'
p493
(L134933952L
L134934490L
tp494
sS'print_vma'
p495
(L134625952L
L134625995L
tp496
sS'bfd_octets_per_byte'
p497
(L134791168L
L134791233L
tp498
sS'dlang_parse_real'
p499
(L135283600L
L135284120L
tp500
sS'coff_classify_symbol'
p501
(L135136288L
L135136539L
tp502
sS'coff_get_normalized_symtab'
p503
(L134807424L
L134809082L
tp504
sS'coff_swap_filehdr_in'
p505
(L135130336L
L135130522L
tp506
sS'_bfd_elf_obj_attrs_arg_type'
p507
(L135076096L
L135076207L
tp508
sS'_bfd_elf_get_lineno'
p509
(L134974336L
L134974367L
tp510
sS'd_demangle'
p511
(L135278448L
L135278558L
tp512
sS'bfd_slurp_armap'
p513
(L134779008L
L134780188L
tp514
sS'elfcore_write_ppc_vsx'
p515
(L134991696L
L134991763L
tp516
sS'get_FORM_name'
p517
(L134559280L
L134559395L
tp518
sS'CMP_Fixup'
p519
(L134755968L
L134756179L
tp520
sS'template_in_dir'
p521
(L134731728L
L134731842L
tp522
sS'tekhex_get_symbol_info'
p523
(L134858304L
L134858325L
tp524
sS'squangle_mop_up'
p525
(L135220688L
L135220871L
tp526
sS'debug_make_function_type'
p527
(L134656384L
L134656460L
tp528
sS'bfd_elf_hash'
p529
(L134937712L
L134937766L
tp530
sS'_bfd_generic_make_empty_symbol'
p531
(L134828736L
L134828771L
tp532
sS'd_print_comp'
p533
(L135261024L
L135261076L
tp534
sS'hash_file_ptr'
p535
(L134774208L
L134774215L
tp536
sS'bfd_realloc_or_free'
p537
(L134816672L
L134816778L
tp538
sS'bfd_elf_make_object'
p539
(L134938016L
L134938059L
tp540
sS'_bfd_pe_bfd_copy_private_section_data'
p541
(L135177680L
L135177886L
tp542
sS'aout_link_input_section'
p543
(L135105712L
L135110534L
tp544
sS'generic_print_address'
p545
(L134774064L
L134774173L
tp546
sS'_bfd_elf_notice_as_needed'
p547
(L135025008L
L135025076L
tp548
sS'_bfd_find_arch_match'
p549
(L134832304L
L134832426L
tp550
sS'demangle_template_template_parm'
p551
(L135236080L
L135236390L
tp552
sS'_bfd_look_for_bfd_in_cache'
p553
(L134776000L
L134776068L
tp554
sS'bfd_alt_mach_code'
p555
(L134794688L
L134794802L
tp556
sS'xmalloc'
p557
(L135301824L
L135301867L
tp558
sS'_bfd_elf_get_dynamic_reloc_section'
p559
(L135074096L
L135074180L
tp560
sS'elfcore_write_prxfpreg'
p561
(L134991456L
L134991523L
tp562
sS'bfd_check_format_matches'
p563
(L134813632L
L134815645L
tp564
sS'bfd_gnu_truncate_arname'
p565
(L134783680L
L134783826L
tp566
sS'elf_link_input_bfd'
p567
(L135051600L
L135057516L
tp568
sS'pr_tag'
p569
(L134626224L
L134626353L
tp570
sS'dlang_demangle'
p571
(L135288592L
L135288794L
tp572
sS'get_DW_ATE_name'
p573
(L135293584L
L135293607L
tp574
sS'bfd_decode_symclass'
p575
(L134828784L
L134829189L
tp576
sS'bfd_fatal'
p577
(L134732112L
L134732139L
tp578
sS'tekhex_get_section_contents'
p579
(L134860160L
L134860233L
tp580
sS'srec_set_arch_mach'
p581
(L134850528L
L134850565L
tp582
sS'init_disassemble_info'
p583
(L134742000L
L134742201L
tp584
sS'debug_make_bool_type'
p585
(L134655824L
L134655838L
tp586
sS'debug_tag_type'
p587
(L134658032L
L134658302L
tp588
sS'i386linux_bfd_final_link'
p589
(L135097600L
L135097648L
tp590
sS'coff_bad_format_hook'
p591
(L135130560L
L135130610L
tp592
sS'filename_ncmp'
p593
(L135293664L
L135293669L
tp594
sS'_bfd_elf_default_got_elt_size'
p595
(L135074064L
L135074094L
tp596
sS'coff_write_symbol'
p597
(L134798000L
L134799610L
tp598
sS'bfd_nullvoidptr'
p599
(L134815936L
L134815957L
tp600
sS'_bfd_elf_post_process_headers'
p601
(L134995232L
L134995283L
tp602
sS'_bfd_elf_common_definition'
p603
(L135074016L
L135074031L
tp604
sS'_bfd_archive_bsd_update_armap_timestamp'
p605
(L134787872L
L134788222L
tp606
sS'srec_set_section_contents'
p607
(L134849984L
L134850528L
tp608
sS'debug_make_array_type'
p609
(L134656592L
L134656697L
tp610
sS'bfd_generic_link_read_symbols_0'
p611
(L134836768L
L134836864L
tp612
sS'_bfd_elf_print_private_bfd_data'
p613
(L134971248L
L134974163L
tp614
sS'split_directories'
p615
(L135298288L
L135298661L
tp616
sS'bfd_plugin_bfd_print_private_bfd_data'
p617
(L135201728L
L135201760L
tp618
sS'coff_read_word'
p619
(L134526807L
L134526893L
tp620
sS'demangle_template_value_parm'
p621
(L135225168L
L135226551L
tp622
sS'_bfd_elf_canonicalize_dynamic_symtab'
p623
(L134968496L
L134968553L
tp624
sS'pr_tag_type'
p625
(L134634320L
L134634632L
tp626
sS'pr_start_function'
p627
(L134632784L
L134632972L
tp628
sS'_bfd_elf_maybe_function_sym'
p629
(L134995328L
L134995392L
tp630
sS'register_claim_file'
p631
(L135201488L
L135201500L
tp632
sS'pe_print_private_bfd_data'
p633
(L135141936L
L135141971L
tp634
sS'bfd_find_version_for_sym'
p635
(L134849264L
L134849704L
tp636
sS'sub_807EB20'
p637
(L134736672L
L134737189L
tp638
sS'_bfd_pei_swap_sym_in'
p639
(L135158000L
L135158648L
tp640
sS'bfd_elf32_write_shdrs_and_ehdr'
p641
(L134924080L
L134924439L
tp642
sS'memory_bflush'
p643
(L134795744L
L134795747L
tp644
sS'bfd_set_error'
p645
(L134792096L
L134792171L
tp646
sS'_bfd_elf_common_section'
p647
(L135074048L
L135074054L
tp648
sS'print_i386_disassembler_options'
p649
(L134773072L
L134773757L
tp650
sS'display_cu_index'
p651
(L134562944L
L134562958L
tp652
sS'bfd_elf32_swap_symbol_out'
p653
(L134921344L
L134921527L
tp654
sS'bfd_link_repair_undef_list'
p655
(L134839360L
L134839438L
tp656
sS'_bfd_ar_spacepad'
p657
(L134775408L
L134775571L
tp658
sS'bfd_hash_newfunc'
p659
(L134835072L
L134835105L
tp660
sS'elfcore_write_linux_prpsinfo32'
p661
(L134990336L
L134990722L
tp662
sS'_bfd_elf_rel_vtable_reloc_fn'
p663
(L134975984L
L134975987L
tp664
sS'_bfd_elf_canonicalize_dynamic_reloc'
p665
(L134968704L
L134968992L
tp666
sS'debug_make_void_type'
p667
(L134655760L
L134655772L
tp668
sS'elf_i386_finish_dynamic_symbol'
p669
(L134891680L
L134893399L
tp670
sS'd_call_offset'
p671
(L135246848L
L135246956L
tp672
sS'bfd_elf_gc_mark_dynamic_ref_symbol'
p673
(L135069632L
L135069816L
tp674
sS'ieee_volatile_type'
p675
(L134701136L
L134701379L
tp676
sS'dwarf_select_sections_all'
p677
(L134625296L
L134625467L
tp678
sS'elf_adjust_dynstr_offsets'
p679
(L135003568L
L135003614L
tp680
sS'make_qualified_name'
p681
(L134741488L
L134741916L
tp682
sS'find_debug_info_0'
p683
(L134868368L
L134868469L
tp684
sS'_bfd_elf_make_dynamic_segment'
p685
(L134943696L
L134943754L
tp686
sS'mangle_name'
p687
(L134856656L
L134856800L
tp688
sS'bfd_close_all_done'
p689
(L134822912L
L134823084L
tp690
sS'xexit'
p691
(L135301600L
L135301626L
tp692
sS'elf_i386_check_relocs'
p693
(L134913056L
L134915472L
tp694
sS'_bfd_elf_strtab_finalize'
p695
(L135080080L
L135080504L
tp696
sS'trad_unix_core_file_p'
p697
(L135203808L
L135204438L
tp698
sS'OP_XMM'
p699
(L134751552L
L134751784L
tp700
sS'elf_i386_local_htab_hash'
p701
(L134888416L
L134888450L
tp702
sS'qualifier_string'
p703
(L135221184L
L135221272L
tp704
sS'bfd_get_stab_name'
p705
(L134866752L
L134866778L
tp706
sS'bfd_nonfatal'
p707
(L134731968L
L134732112L
tp708
sS'tg_start_compilation_unit'
p709
(L134625904L
L134625948L
tp710
sS'create_info_hash_table'
p711
(L134867248L
L134867352L
tp712
sS'debug_make_method'
p713
(L134657440L
L134657472L
tp714
sS'pr_bool_type'
p715
(L134635840L
L134635942L
tp716
sS'elf_generic_info_to_howto'
p717
(L135201264L
L135201276L
tp718
sS'ieee_error'
p719
(L134686736L
L134686782L
tp720
sS'd_number'
p721
(L135245664L
L135245755L
tp722
sS'_bfd_coff_write_task_globals'
p723
(L135184928L
L135185021L
tp724
sS'_bfd_elf_strtab_addref'
p725
(L135079184L
L135079291L
tp726
sS'd_source_name'
p727
(L135246048L
L135246244L
tp728
sS'_bfd_elf_swap_vernaux_in'
p729
(L134937408L
L134937506L
tp730
sS'bfd_elf32_object_p'
p731
(L134927520L
L134929482L
tp732
sS'_bfd_elf_get_synthetic_symtab'
p733
(L134994336L
L134995217L
tp734
sS'pr_volatile_type'
p735
(L134628576L
L134628590L
tp736
sS'bfd_get_next_mapent'
p737
(L134775840L
L134775942L
tp738
sS'elf_i386_finish_dynamic_sections'
p739
(L134890096L
L134891680L
tp740
sS'_bfd_pei_swap_debugdir_in'
p741
(L135164928L
L135165071L
tp742
sS'bfd_simple_get_relocated_section_contents'
p743
(L134884464L
L134885161L
tp744
sS'tg_function_parameter'
p745
(L134633568L
L134633762L
tp746
sS'bfd_get_reloc_upper_bound'
p747
(L134792176L
L134792229L
tp748
sS'bfd_make_section_anyway'
p749
(L134826896L
L134826931L
tp750
sS'_bfd_merged_section_offset'
p751
(L135219808L
L135220318L
tp752
sS'_bfd_get_elt_at_filepos'
p753
(L134777552L
L134778254L
tp754
sS'_bfd_elf_link_hash_newfunc'
p755
(L134997856L
L134998075L
tp756
sS'rsrc_parse_directory'
p757
(L135153936L
L135154244L
tp758
sS'bfd_is_section_compressed'
p759
(L134886208L
L134886420L
tp760
sS'choose_tmpdir'
p761
(L135300016L
L135300504L
tp762
sS'cache_bmmap'
p763
(L135205776L
L135206079L
tp764
sS'bfd_elf_print_symbol'
p765
(L134940496L
L134941388L
tp766
sS'bfd_elf_string_from_elf_section_0'
p767
(L134938176L
L134938642L
tp768
sS'NOP_Fixup2'
p769
(L134752976L
L134753037L
tp770
sS'coff_count_linenumbers'
p771
(L134800400L
L134800637L
tp772
sS'get_file_size'
p773
(L134735008L
L134735276L
tp774
sS'NOP_Fixup1'
p775
(L134755168L
L134755237L
tp776
sS'_bfd_coff_section_already_linked'
p777
(L134813216L
L134813617L
tp778
sS'parse_vma'
p779
(L134734912L
L134735006L
tp780
sS'd_number_component'
p781
(L135245760L
L135245827L
tp782
sS'countargv'
p783
(L135280880L
L135280930L
tp784
sS'OP_Vex_2src_1'
p785
(L134769296L
L134769399L
tp786
sS'OP_Vex_2src_2'
p787
(L134769216L
L134769288L
tp788
sS'get_DW_SECT_short_name'
p789
(L134558544L
L134558753L
tp790
sS'aout_32_minisymbol_to_symbol'
p791
(L135121344L
L135121601L
tp792
sS'bfd_scan_vma'
p793
(L134794192L
L134794197L
tp794
sS'pe_ILF_make_a_symbol_reloc'
p795
(L135146368L
L135146508L
tp796
sS'srec_get_section_contents'
p797
(L134851504L
L134852547L
tp798
sS'read_and_display_attr_value'
p799
(L134582688L
L134592901L
tp800
sS'_bfd_elf_set_arch_mach'
p801
(L134974368L
L134974428L
tp802
sS'_bfd_generic_read_minisymbols'
p803
(L134829328L
L134829530L
tp804
sS'ieee_pop_type_used'
p805
(L134690176L
L134690623L
tp806
sS'elf_i386_copy_indirect_symbol'
p807
(L134889328L
L134889622L
tp808
sS'bfd_arch_list'
p809
(L134790608L
L134790737L
tp810
sS'bfd_elf_mkcorefile'
p811
(L134938064L
L134938143L
tp812
sS'bfd_elf_link_mark_dynamic_symbol'
p813
(L134995392L
L134995498L
tp814
sS'print_dwarf_vma'
p815
(L134555264L
L134555309L
tp816
sS'OP_EX_VexW'
p817
(L134771072L
L134771234L
tp818
sS'bfd_generic_link_read_symbols'
p819
(L134839536L
L134839565L
tp820
sS'd_lookup_template_argument'
p821
(L135246960L
L135247070L
tp822
sS'OP_DSreg'
p823
(L134751408L
L134751542L
tp824
sS'fini_reloc_cookie_for_section'
p825
(L134996272L
L134996344L
tp826
sS'bfd_elf_gc_sections'
p827
(L135069952L
L135070991L
tp828
sS'coff_i386_reloc_name_lookup'
p829
(L135135056L
L135135143L
tp830
sS'display_debug_abbrev'
p831
(L134563648L
L134564084L
tp832
sS'comp_unit_find_line'
p833
(L134876832L
L134877220L
tp834
sS'_bfd_elf_strtab_add'
p835
(L135078944L
L135079177L
tp836
sS'tekhex_get_symtab_upper_bound'
p837
(L134857872L
L134857887L
tp838
sS'_bfd_pei_only_swap_filehdr_out'
p839
(L135162704L
L135163806L
tp840
sS'aout_32_set_section_contents'
p841
(L135114864L
L135115267L
tp842
sS'archive_close_worker'
p843
(L134775376L
L134775405L
tp844
sS'bfd_calc_gnu_debuglink_crc32'
p845
(L134824224L
L134824277L
tp846
sS'sub_807F590'
p847
(L134739344L
L134739474L
tp848
sS'cie_hash'
p849
(L135080624L
L135080632L
tp850
sS'_bfd_elf_create_got_section'
p851
(L135013648L
L135013968L
tp852
sS'bfd_target_list'
p853
(L134833184L
L134833314L
tp854
sS'OP_EMC'
p855
(L134769872L
L134770050L
tp856
sS'read_signed_leb128'
p857
(L134819616L
L134819685L
tp858
sS'OP_Skip_MODRM'
p859
(L134742592L
L134742617L
tp860
sS'insert_info_hash_table'
p861
(L134877232L
L134877329L
tp862
sS'pe_ILF_make_a_symbol'
p863
(L135135184L
L135135585L
tp864
sS'rsrc_print_name'
p865
(L135150560L
L135150637L
tp866
sS'elf_link_read_relocs_from_section'
p867
(L135000784L
L135001304L
tp868
sS'objalloc_free_block'
p869
(L135301184L
L135301502L
tp870
sS'_bfd_generic_section_already_linked'
p871
(L134848368L
L134848561L
tp872
sS'get_segment_type'
p873
(L134932288L
L134932446L
tp874
sS'bfd_make_section_with_flags'
p875
(L134826944L
L134827142L
tp876
sS'xcalloc'
p877
(L135301872L
L135301943L
tp878
sS'memory_bclose'
p879
(L134795904L
L134795954L
tp880
sS'pr_class_end_method'
p881
(L134625472L
L134625492L
tp882
sS'bfd_plugin_core_file_failing_command'
p883
(L135201696L
L135201725L
tp884
sS'elf_link_output_extsym'
p885
(L135004304L
L135007817L
tp886
sS'is_ctor_or_dtor'
p887
(L135277264L
L135277525L
tp888
sS'find_separate_debug_file'
p889
(L134820720L
L134821455L
tp890
sS'regname'
p891
(L134557632L
L134557785L
tp892
sS'bfd_default_set_arch_mach'
p893
(L134791024L
L134791098L
tp894
sS'stab_context'
p895
(L134643088L
L134643559L
tp896
sS'pe_bfd_object_p'
p897
(L135146512L
L135149583L
tp898
sS'get32s'
p899
(L134748208L
L134748288L
tp900
sS'ihex_mkobject'
p901
(L134861776L
L134861847L
tp902
sS'rsrc_print_resource_directory'
p903
(L135152512L
L135153284L
tp904
sS'aout_32_swap_std_reloc_out'
p905
(L135117728L
L135118160L
tp906
sS'bfd_elf_add_obj_attr_int'
p907
(L135076208L
L135076303L
tp908
sS'bfd_arch_i386_short_nop_fill'
p909
(L135203584L
L135203599L
tp910
sS'write_obj_attribute'
p911
(L135074848L
L135075009L
tp912
sS'generic_core_file_matches_executable_p'
p913
(L135207456L
L135207586L
tp914
sS'_bfd_archive_bsd_construct_extended_name_table'
p915
(L134782432L
L134782471L
tp916
sS'_bfd_elf_export_symbol'
p917
(L135020592L
L135020712L
tp918
sS'd_unqualified_name'
p919
(L135269552L
L135270414L
tp920
sS'coff_canonicalize_symtab'
p921
(L134799760L
L134799866L
tp922
sS'coff_swap_reloc_out'
p923
(L135130240L
L135130324L
tp924
sS'elf_i386_reloc_type_lookup'
p925
(L134887824L
L134888406L
tp926
sS'read_unsigned_leb128'
p927
(L134819552L
L134819603L
tp928
sS'objalloc_free'
p929
(L135301120L
L135301174L
tp930
sS'nacl_modify_program_headers'
p931
(L134918672L
L134918978L
tp932
sS'debug_get_field_bitpos'
p933
(L134659552L
L134659580L
tp934
sS'coff_find_nearest_line'
p935
(L134812672L
L134812775L
tp936
sS'coff_get_reloc_upper_bound'
p937
(L134809088L
L134809147L
tp938
sS'try_load_plugin'
p939
(L135202096L
L135202644L
tp940
sS'dump_section'
p941
(L134534912L
L134536185L
tp942
sS'_bfd_pei_swap_sym_out'
p943
(L135158656L
L135158814L
tp944
sS'consume_count_with_underscores'
p945
(L135220464L
L135220543L
tp946
sS'tg_tag_type'
p947
(L134636144L
L134636347L
tp948
sS'bfd_getb16'
p949
(L134817120L
L134817137L
tp950
sS'elf32_r_info'
p951
(L134930864L
L134930879L
tp952
sS'bfd_hash_replace'
p953
(L134834784L
L134834879L
tp954
sS'bfd_plugin_print_symbol'
p955
(L135201536L
L135201557L
tp956
sS'bfd_zalloc2'
p957
(L134824064L
L134824181L
tp958
sS'demangle_arm_hp_template'
p959
(L135233056L
L135234951L
tp960
sS'_bfd_coff_link_hash_table_create'
p961
(L135185184L
L135185276L
tp962
sS'bfd_elf32_swap_reloc_out'
p963
(L134921072L
L134921133L
tp964
sS'_bfd_elf_validate_reloc'
p965
(L134975440L
L134975860L
tp966
sS'stab_demangle_get_count'
p967
(L134659968L
L134660101L
tp968
sS'pr_int_constant'
p969
(L134640576L
L134640750L
tp970
sS'_bfd_add_bfd_to_archive_cache'
p971
(L134776080L
L134776276L
tp972
sS'aout_32_get_symbol_info'
p973
(L135120800L
L135120951L
tp974
sS'bfd_default_scan'
p975
(L134789424L
L134790392L
tp976
sS'bfd_elf_get_dyn_lib_class'
p977
(L135049824L
L135049873L
tp978
sS'get_encoded_value'
p979
(L134552928L
L134553167L
tp980
sS'string_need_1'
p981
(L135282240L
L135282340L
tp982
sS'trad_unix_core_file_failing_signal'
p983
(L135203792L
L135203798L
tp984
sS'ieee_class_end_method'
p985
(L134700848L
L134700928L
tp986
sS'bfd_fprintf_vma'
p987
(L134794640L
L134794683L
tp988
sS'bfd_get_target_info'
p989
(L134832848L
L134833177L
tp990
sS'sec_merge_hash_newfunc'
p991
(L135216768L
L135216882L
tp992
sS'd_append_string'
p993
(L135247168L
L135247311L
tp994
sS'stab_demangle_remember_type'
p995
(L134660352L
L134660440L
tp996
sS'd_cv_qualifiers'
p997
(L135245088L
L135245353L
tp998
sS'debug_record_typed_const'
p999
(L134655264L
L134655354L
tp1000
sS'_bfd_n1'
p1001
(L134816016L
L134816040L
tp1002
sS'bfd_elf32_core_file_failing_command'
p1003
(L134930896L
L134930916L
tp1004
sS'd_print_function_type'
p1005
(L135264560L
L135265343L
tp1006
sS'bfd_set_section_flags'
p1007
(L134827200L
L134827217L
tp1008
sS'_bfd_elf_new_section_hook'
p1009
(L134942304L
L134942511L
tp1010
sS'aout_link_free_symbols'
p1011
(L135104000L
L135104068L
tp1012
sS'aout_32_reloc_type_lookup'
p1013
(L135110544L
L135110668L
tp1014
sS'bfd_section_list_clear'
p1015
(L134825712L
L134825786L
tp1016
sS'pr_end_class_type'
p1017
(L134627824L
L134627829L
tp1018
sS'elf_i386_allocate_dynrelocs'
p1019
(L134893456L
L134894808L
tp1020
sS'frame_need_space'
p1021
(L134552560L
L134552831L
tp1022
sS'd_make_name'
p1023
(L135245008L
L135245074L
tp1024
sS'real_fopen'
p1025
(L134796656L
L134796756L
tp1026
sS'coff_symbol_from'
p1027
(L134800640L
L134800680L
tp1028
sS'_bfd_append_relative_path'
p1029
(L134777424L
L134777540L
tp1030
sS'bfd_elf32_swap_phdr_out'
p1031
(L134926400L
L134926594L
tp1032
sS'tekhex_init'
p1033
(L134860368L
L134860474L
tp1034
sS'bfd_get_gp_size'
p1035
(L134793824L
L134793890L
tp1036
sS'bfd_set_start_address'
p1037
(L134793792L
L134793809L
tp1038
sS'htab_create_alloc'
p1039
(L135295280L
L135295343L
tp1040
sS'_bfd_elf_create_ifunc_sections'
p1041
(L134915792L
L134916197L
tp1042
sS'opncls_btell'
p1043
(L134819712L
L134819726L
tp1044
sS'elf_collect_hash_codes'
p1045
(L134997648L
L134997853L
tp1046
sS'_bfd_elf_canonicalize_reloc'
p1047
(L134968304L
L134968425L
tp1048
sS'dlang_attributes'
p1049
(L135282576L
L135282758L
tp1050
sS'aout_32_get_lineno'
p1051
(L135120784L
L135120787L
tp1052
sS'bfd_search_for_target'
p1053
(L134833328L
L134833401L
tp1054
sS'bfd_release'
p1055
(L134824192L
L134824211L
tp1056
sS'lbasename'
p1057
(L135298080L
L135298114L
tp1058
sS'_bfd_coff_link_input_bfd'
p1059
(L135185360L
L135194359L
tp1060
sS'load_debug_info'
p1061
(L134598736L
L134598956L
tp1062
sS'perror_memory'
p1063
(L134773888L
L134774061L
tp1064
sS'bfd_open_file'
p1065
(L135205152L
L135205447L
tp1066
sS'ieee_set_type'
p1067
(L134691824L
L134691971L
tp1068
sS'ihex_set_arch_mach'
p1069
(L134861856L
L134861911L
tp1070
sS'_bfd_elf_get_dynamic_reloc_upper_bound'
p1071
(L134968560L
L134968700L
tp1072
sS'ieee_variable'
p1073
(L134706032L
L134707019L
tp1074
sS'_bfd_elf_is_local_label_name'
p1075
(L134974256L
L134974334L
tp1076
sS'ieee_error_0'
p1077
(L134686784L
L134686868L
tp1078
sS'_bfd_elf_gc_mark_hook'
p1079
(L135068176L
L135068404L
tp1080
sS'coff_swap_scnhdr_in'
p1081
(L135134688L
L135134953L
tp1082
sS'coff_set_arch_mach'
p1083
(L135141856L
L135141936L
tp1084
sS'is_gnu_v3_mangled_ctor'
p1085
(L135279040L
L135279075L
tp1086
sS'_bfd_generic_link_add_archive_symbols'
p1087
(L134839632L
L134840424L
tp1088
sS'read_section_stabs'
p1089
(L134531296L
L134531559L
tp1090
sS'_bfd_elf_swap_verdaux_out'
p1091
(L134937104L
L134937165L
tp1092
sS'opncls_bread'
p1093
(L134819808L
L134819884L
tp1094
sS'get_vex_imm8'
p1095
(L134748288L
L134748711L
tp1096
sS'print_version'
p1097
(L134736016L
L134736155L
tp1098
sS'pr_enum_type'
p1099
(L134639808L
L134640198L
tp1100
sS'bfd_bread'
p1101
(L134796768L
L134796928L
tp1102
sS'ieee_real_write_byte'
p1103
(L134689008L
L134689124L
tp1104
sS'aout_32_make_empty_symbol'
p1105
(L135115280L
L135115315L
tp1106
sS'elf_i386_get_local_sym_hash'
p1107
(L134900400L
L134900719L
tp1108
sS'_bfd_elf_stringtab_init'
p1109
(L134941392L
L134941508L
tp1110
sS'bfd_assert'
p1111
(L134791808L
L134791880L
tp1112
sS'_bfd_write_section_stabs'
p1113
(L135215760L
L135216211L
tp1114
sS'_bfd_elf_copy_private_bfd_data'
p1115
(L134940336L
L134940486L
tp1116
sS'elfcore_write_s390_last_break'
p1117
(L134992176L
L134992243L
tp1118
sS'd_compact_number'
p1119
(L135245840L
L135245895L
tp1120
sS'iterative_hash'
p1121
(L135297296L
L135297936L
tp1122
sS'debug_write_block'
p1123
(L134652416L
L134652741L
tp1124
sS'prepend_type'
p1125
(L134627840L
L134628004L
tp1126
sS'_bfd_new_bfd'
p1127
(L134821456L
L134821656L
tp1128
sS'main'
p1129
(L134526896L
L134529288L
tp1130
sS'elf_i386_tls_transition'
p1131
(L134900720L
L134902292L
tp1132
sS'elfcore_write_arm_vfp'
p1133
(L134992416L
L134992483L
tp1134
sS'PCLMUL_Fixup'
p1135
(L134756704L
L134756984L
tp1136
sS'debug_get_fields'
p1137
(L134659424L
L134659478L
tp1138
sS'bfd_elf_add_obj_attr_string'
p1139
(L135076304L
L135076415L
tp1140
sS'_bfd_elf_map_sections_to_segments'
p1141
(L134943760L
L134946738L
tp1142
sS'debug_make_range_type'
p1143
(L134656512L
L134656588L
tp1144
sS'bfd_section_from_shdr'
p1145
(L134984896L
L134989201L
tp1146
sS'bfd_generic_define_common_symbol'
p1147
(L134849072L
L134849260L
tp1148
sS'VEXI4_Fixup'
p1149
(L134749744L
L134749816L
tp1150
sS'bfd_elf_size_dynsym_hash_dynstr'
p1151
(L135045248L
L135048933L
tp1152
sS'push_type'
p1153
(L134634128L
L134634313L
tp1154
sS'pr_start_struct_type'
p1155
(L134635376L
L134635829L
tp1156
sS'pr_float_type'
p1157
(L134637216L
L134637364L
tp1158
sS'debug_add_to_current_namespace'
p1159
(L134652752L
L134652873L
tp1160
sS'bfd_elf_is_group_section'
p1161
(L134940224L
L134940246L
tp1162
sS'sym_is_global'
p1163
(L134933760L
L134933835L
tp1164
sS'_bfd_stab_section_find_nearest_line'
p1165
(L134829552L
L134832304L
tp1166
sS'remember_Btype'
p1167
(L135221280L
L135221343L
tp1168
sS'init_dwarf_regnames'
p1169
(L134624128L
L134624250L
tp1170
sS'bfd_generic_is_group_section'
p1171
(L134828176L
L134828179L
tp1172
sS'_bfd_add_merge_section'
p1173
(L135217472L
L135218120L
tp1174
sS'_bfd_elf_get_sec_type_attr'
p1175
(L134942144L
L134942292L
tp1176
sS'bfd_elf_generic_reloc'
p1177
(L134940256L
L134940329L
tp1178
sS'bfd_hash_traverse'
p1179
(L134835120L
L134835240L
tp1180
sS'd_print_mod_0'
p1181
(L135261088L
L135262971L
tp1182
sS'memory_bread'
p1183
(L134796208L
L134796370L
tp1184
sS'binary_object_p'
p1185
(L134857024L
L134857188L
tp1186
sS'read_debug_line_header'
p1187
(L134553168L
L134554533L
tp1188
sS'stab_link_includes_newfunc'
p1189
(L135212720L
L135212810L
tp1190
sS'bfd_core_file_failing_signal'
p1191
(L135207248L
L135207302L
tp1192
sS'work_stuff_copy_to_from'
p1193
(L135222336L
L135223062L
tp1194
sS'parse_stab'
p1195
(L134682336L
L134686188L
tp1196
sS'display_debug_aranges'
p1197
(L134607008L
L134608669L
tp1198
sS'_bfd_elf_copy_private_header_data'
p1199
(L134961376L
L134967809L
tp1200
sS'_bfd_dwarf2_find_nearest_line'
p1201
(L134880496L
L134884236L
tp1202
sS'savestring_1'
p1203
(L134660448L
L134660500L
tp1204
sS'pr_method_type'
p1205
(L134629440L
L134630108L
tp1206
sS'tg_start_struct_type'
p1207
(L134636704L
L134636918L
tp1208
sS'cplus_demangle_name_to_style'
p1209
(L135223424L
L135223485L
tp1210
sS'message'
p1211
(L135202000L
L135202089L
tp1212
sS'info_hash_table_newfunc'
p1213
(L134867360L
L134867447L
tp1214
sS'_bfd_pei_swap_aouthdr_in'
p1215
(L135160352L
L135161200L
tp1216
sS'resolve_section'
p1217
(L135001536L
L135001722L
tp1218
sS'bfd_emul_get_maxpagesize'
p1219
(L134794816L
L134794866L
tp1220
sS'_bfd_elf_strtab_emit'
p1221
(L135079840L
L135080066L
tp1222
sS'htab_find'
p1223
(L135296256L
L135296296L
tp1224
sS'endian_string'
p1225
(L134731856L
L134731968L
tp1226
sS'd_expr_primary'
p1227
(L135276976L
L135277264L
tp1228
sS'elfcore_write_s390_ctrs'
p1229
(L134992016L
L134992083L
tp1230
sS'ieee_typdef'
p1231
(L134694688L
L134696211L
tp1232
sS'debug_start_block'
p1233
(L134654144L
L134654438L
tp1234
sS'bfd_arch_get_compatible'
p1235
(L134790752L
L134790848L
tp1236
sS'display_debug_gnu_pubnames'
p1237
(L134606960L
L134606978L
tp1238
sS'expandargv'
p1239
(L135280128L
L135280877L
tp1240
sS'_bfd_elf_section_from_bfd_section'
p1241
(L134946752L
L134946971L
tp1242
sS'd_print_subexpr'
p1243
(L135266176L
L135266501L
tp1244
sS'stab_demangle_arg'
p1245
(L134670336L
L134670514L
tp1246
sS'bfd_getb_signed_64'
p1247
(L134817760L
L134817902L
tp1248
sS'bfd_find_target'
p1249
(L134832688L
L134832834L
tp1250
sS'dummy_reloc16_estimate'
p1251
(L135131552L
L135131583L
tp1252
sS'bfd_section_already_linked_table_traverse'
p1253
(L134847440L
L134847475L
tp1254
sS'OP_sI'
p1255
(L134771920L
L134772211L
tp1256
sS'ignore_section_sym'
p1257
(L134933840L
L134933947L
tp1258
sS'ieee_vis_to_flags'
p1259
(L134686592L
L134686638L
tp1260
sS'objdump_print_addr'
p1261
(L134537312L
L134537509L
tp1262
sS'dump_section_header'
p1263
(L134533312L
L134534901L
tp1264
sS'binary_get_section_contents'
p1265
(L134857472L
L134857558L
tp1266
sS'bfd_generic_get_relocated_section_contents'
p1267
(L135211824L
L135212705L
tp1268
sS'ieee_class_method_var'
p1269
(L134708080L
L134708540L
tp1270
sS'is_vma_in_section'
p1271
(L135149824L
L135149856L
tp1272
sS'debug_make_object_type'
p1273
(L134656016L
L134656228L
tp1274
sS'_bfd_default_link_order'
p1275
(L134846128L
L134846668L
tp1276
sS'find_abstract_instance_name'
p1277
(L134874176L
L134874956L
tp1278
sS'bfd_getl64'
p1279
(L134817632L
L134817757L
tp1280
sS'bfd_get_section_contents'
p1281
(L134827808L
L134828145L
tp1282
sS'get_sib'
p1283
(L134755248L
L134755389L
tp1284
sS'ieee_define_named_type'
p1285
(L134691072L
L134691823L
tp1286
sS'_bfd_stab_section_offset'
p1287
(L135216432L
L135216517L
tp1288
sS'print_insn'
p1289
(L134761312L
L134768575L
tp1290
sS'_bfd_elf_make_section_from_shdr_0'
p1291
(L134981472L
L134984838L
tp1292
sS'bfd_plugin_set_plugin'
p1293
(L135203360L
L135203370L
tp1294
sS'bfd_elf_bfd_from_remote_memory'
p1295
(L134994304L
L134994325L
tp1296
sS'rsrc_write_entry'
p1297
(L135150640L
L135150990L
tp1298
sS'generic_add_output_symbol'
p1299
(L134836400L
L134836524L
tp1300
sS'_bfd_generic_final_link'
p1301
(L134846672L
L134847374L
tp1302
sS'internal_srec_write_object_contents'
p1303
(L134852560L
L134853450L
tp1304
sS'bfd_plugin_set_program_name'
p1305
(L135203344L
L135203354L
tp1306
sS'make_relative_prefix'
p1307
(L135299952L
L135299977L
tp1308
sS'bfd_tell'
p1309
(L134797040L
L134797141L
tp1310
sS'srec_get_symbol_info'
p1311
(L134850576L
L134850597L
tp1312
sS'unix_lbasename'
p1313
(L135297952L
L135297986L
tp1314
sS'pr_function_parameter'
p1315
(L134638656L
L134638948L
tp1316
sS'_bfd_nocore_core_file_matches_executable_p'
p1317
(L134816096L
L134816117L
tp1318
sS'i386linux_write_object_contents'
p1319
(L135097872L
L135098609L
tp1320
sS'_bfd_elf_parse_eh_frame'
p1321
(L135081888L
L135087010L
tp1322
sS'_bfd_elf_assign_file_position_for_section'
p1323
(L134943488L
L134943586L
tp1324
sS'tg_class_static_method_variant'
p1325
(L134631840L
L134632286L
tp1326
sS'_bfd_dwarf2_find_inliner_info'
p1327
(L134878288L
L134878364L
tp1328
sS'oappend_maybe_intel'
p1329
(L134748720L
L134748758L
tp1330
sS'ieee_method_type'
p1331
(L134702992L
L134703044L
tp1332
sS'tg_typed_constant'
p1333
(L134641168L
L134641385L
tp1334
sS'read_value'
p1335
(L135081584L
L135081745L
tp1336
sS'bfd_slurp_bsd_armap_f2'
p1337
(L134780192L
L134780791L
tp1338
sS'i386_aout_linux_mkobject'
p1339
(L135098624L
L135098629L
tp1340
sS'pe_bfd_copy_private_bfd_data'
p1341
(L135141984L
L135142057L
tp1342
sS'_bfd_write_archive_contents'
p1343
(L134784832L
L134786613L
tp1344
sS'OP_0f07'
p1345
(L134770128L
L134770173L
tp1346
sS'bfd_set_archive_head'
p1347
(L134775968L
L134775988L
tp1348
sS'_bfd_elf_swap_verneed_out'
p1349
(L134937280L
L134937400L
tp1350
sS'OP_Rounding'
p1351
(L134754544L
L134754675L
tp1352
sS'elf_i386_info_to_howto_rel'
p1353
(L134889984L
L134890015L
tp1354
sS'print_insn_i386_att'
p1355
(L134772976L
L134772996L
tp1356
sS'bfd_get_arch_info'
p1357
(L134790928L
L134790936L
tp1358
sS'elf_i386_grok_prstatus'
p1359
(L134889024L
L134889314L
tp1360
sS'ieee_write_2bytes'
p1361
(L134689136L
L134689268L
tp1362
sS'bfd_plugin_sizeof_headers'
p1363
(L135201504L
L135201533L
tp1364
sS'd_demangle_callback'
p1365
(L135277872L
L135278433L
tp1366
sS'bfd_get_mtime'
p1367
(L134797664L
L134797736L
tp1368
sS'ieee_class_static_member'
p1369
(L134708672L
L134708928L
tp1370
sS'strrevcmp'
p1371
(L135078544L
L135078650L
tp1372
sS'bfd_get_reloc_size'
p1373
(L135207600L
L135207748L
tp1374
sS'htab_collisions'
p1375
(L135297184L
L135297247L
tp1376
sS'debug_make_method_type'
p1377
(L134656880L
L134656964L
tp1378
sS'set_default_bfd_target'
p1379
(L134732352L
L134732440L
tp1380
sS'bfd_hash_table_free'
p1381
(L134833680L
L134833711L
tp1382
sS'list_supported_targets'
p1383
(L134732592L
L134732805L
tp1384
sS'debug_make_float_type'
p1385
(L134655808L
L134655822L
tp1386
sS'pass_over'
p1387
(L134861216L
L134861527L
tp1388
sS'bfd_elf32_write_out_phdrs'
p1389
(L134926608L
L134926740L
tp1390
sS'compare_link_order'
p1391
(L135001888L
L135001944L
tp1392
sS'bfd_openw'
p1393
(L134822560L
L134822664L
tp1394
sS'pr_float_constant'
p1395
(L134625552L
L134625663L
tp1396
sS'bfd_openr'
p1397
(L134822224L
L134822267L
tp1398
sS'register_tm_clones'
p1399
(L134529392L
L134529447L
tp1400
sS'bfd_get_bits'
p1401
(L134818432L
L134818588L
tp1402
sS'simple_dummy_multiple_definition'
p1403
(L134884320L
L134884326L
tp1404
sS'demangle_class_name'
p1405
(L135234960L
L135235060L
tp1406
sS'coff_link_check_archive_element'
p1407
(L135183504L
L135183613L
tp1408
sS'elf_i386_gc_sweep_hook'
p1409
(L134902304L
L134903082L
tp1410
sS'd_count_templates_scopes'
p1411
(L135245440L
L135245536L
tp1412
sS'elf_i386_reloc_name_lookup'
p1413
(L134900080L
L134900161L
tp1414
sS'tg_start_class_type'
p1415
(L134636352L
L134636702L
tp1416
sS'process_archive_index_and_symbols'
p1417
(L134737200L
L134738196L
tp1418
sS'display_gdb_index'
p1419
(L134555552L
L134557621L
tp1420
sS'elf_i386_link_hash_newfunc'
p1421
(L134899712L
L134899807L
tp1422
sS'aout_link_check_archive_element'
p1423
(L135104080L
L135104887L
tp1424
sS'_bfd_elf_strtab_clear_all_refs'
p1425
(L135079488L
L135079530L
tp1426
sS'tg_end_struct_type_0'
p1427
(L134520208L
L134520247L
tp1428
sS'elf_i386_relocate_section'
p1429
(L134903088L
L134912953L
tp1430
sS'coff_renumber_symbols'
p1431
(L134800688L
L134801434L
tp1432
sS'bfd_is_local_label'
p1433
(L134828240L
L134828283L
tp1434
sS'_bfd_elf_merge_sections'
p1435
(L135048944L
L135049152L
tp1436
sS'_bfd_elf_eh_frame_present'
p1437
(L135089088L
L135089174L
tp1438
sS'bfd_make_section'
p1439
(L134827152L
L134827187L
tp1440
sS'_bfd_stringtab_add'
p1441
(L134835504L
L134835797L
tp1442
sS'_bfd_generic_link_write_global_symbol'
p1443
(L134836528L
L134836767L
tp1444
sS'aout_32_squirt_out_relocs'
p1445
(L135120096L
L135120356L
tp1446
sS'demangle_qualified'
p1447
(L135228576L
L135229767L
tp1448
sS'bfd_check_format'
p1449
(L134815648L
L134815683L
tp1450
sS'tekhex_make_empty_symbol'
p1451
(L134858192L
L134858234L
tp1452
sS'bfd_flush'
p1453
(L134797152L
L134797171L
tp1454
sS'append_type'
p1455
(L134628016L
L134628166L
tp1456
sS'bfd_arch_i386_long_nop_fill'
p1457
(L135203600L
L135203618L
tp1458
sS'read_address'
p1459
(L134868816L
L134869036L
tp1460
sS'bfd_scan_arch'
p1461
(L134790528L
L134790601L
tp1462
sS'bfd_nonfatal_message'
p1463
(L134735536L
L134735859L
tp1464
sS'bfd_realloc2'
p1465
(L134816528L
L134816658L
tp1466
sS'_bfd_elf_init_1_index_section'
p1467
(L135044976L
L135045055L
tp1468
sS'cplus_demangle_mangled_name'
p1469
(L135276688L
L135276969L
tp1470
sS'OP_3DNowSuffix'
p1471
(L134754096L
L134754234L
tp1472
sS'filename_eq'
p1473
(L135293744L
L135293779L
tp1474
sS'_objalloc_alloc'
p1475
(L135300848L
L135301119L
tp1476
sS'_bfd_construct_extended_name_table'
p1477
(L134781408L
L134782432L
tp1478
sS'debug_make_set_type'
p1479
(L134656704L
L134656772L
tp1480
sS'bfd_set_file_flags'
p1481
(L134792304L
L134792426L
tp1482
sS'bfd_seek'
p1483
(L134797264L
L134797659L
tp1484
sS'ieee_eof'
p1485
(L134711552L
L134711600L
tp1486
sS'ieee_struct_field'
p1487
(L134708928L
L134710005L
tp1488
sS'elf_append_rel'
p1489
(L135074576L
L135074696L
tp1490
sS'srec_write_record'
p1491
(L134850608L
L134851175L
tp1492
sS'deregister_tm_clones'
p1493
(L134529344L
L134529386L
tp1494
sS'bfd_sprintf_vma'
p1495
(L134794576L
L134794627L
tp1496
sS'bfd_getl16'
p1497
(L134817152L
L134817169L
tp1498
sS'bfd_get_error'
p1499
(L134791328L
L134791334L
tp1500
sS'_bfd_elf_init_private_section_data'
p1501
(L134960608L
L134961008L
tp1502
sS'CMPXCHG8B_Fixup'
p1503
(L134768928L
L134769061L
tp1504
sS'elfcore_write_aarch_hw_break'
p1505
(L134992576L
L134992643L
tp1506
sS'code_for_qualifier'
p1507
(L135221136L
L135221182L
tp1508
sS'bfd_section_already_linked_table_insert'
p1509
(L134847536L
L134847607L
tp1510
sS'tg_int_constant'
p1511
(L134640752L
L134640933L
tp1512
sS'_bfd_elf_gc_keep'
p1513
(L135069824L
L135069942L
tp1514
sS'memory_bseek'
p1515
(L134795968L
L134796195L
tp1516
sS'read_uleb128'
p1517
(L135080512L
L135080614L
tp1518
sS'_bfd_elf_strtab_restore_size'
p1519
(L135079536L
L135079654L
tp1520
sS'elf_gc_smash_unused_vtentry_relocs'
p1521
(L135022848L
L135023150L
tp1522
sS'ieee_offset_type'
p1523
(L134688912L
L134688947L
tp1524
sS'_bfd_elf_link_hash_table_create'
p1525
(L135049664L
L135049764L
tp1526
sS'srec_object_p'
p1527
(L134856000L
L134856313L
tp1528
sS'pr_fix_visibility'
p1529
(L134630192L
L134630482L
tp1530
sS'debug_get_field_physname'
p1531
(L134659648L
L134659675L
tp1532
sS'bfd_get_elf_phdrs'
p1533
(L134993792L
L134993875L
tp1534
sS'debug_record_int_const'
p1535
(L134655136L
L134655190L
tp1536
sS'tg_class_baseclass'
p1537
(L134636928L
L134637210L
tp1538
sS'srec_bad_byte'
p1539
(L134853488L
L134853706L
tp1540
sS'vendor_obj_attr_size'
p1541
(L135075152L
L135075387L
tp1542
sS'HLE_Fixup1'
p1543
(L134760912L
L134760994L
tp1544
sS'HLE_Fixup2'
p1545
(L134760832L
L134760910L
tp1546
sS'elf_gc_sweep_symbol'
p1547
(L135000672L
L135000770L
tp1548
sS'binary_mkobject'
p1549
(L134856576L
L134856582L
tp1550
sS'_bfd_elf_dynamic_symbol_p'
p1551
(L135023712L
L135023993L
tp1552
sS'bfd_printable_arch_mach'
p1553
(L134791104L
L134791153L
tp1554
sS'elf_vxworks_finish_dynamic_entry'
p1555
(L134920512L
L134920708L
tp1556
sS'bad_stab'
p1557
(L134660272L
L134660340L
tp1558
sS'do_slurp_bsd_armap'
p1559
(L134774272L
L134774677L
tp1560
sS'init_dwarf_regnames_i386'
p1561
(L134624032L
L134624053L
tp1562
sS'elf_get_linked_section_vma'
p1563
(L135001728L
L135001881L
tp1564
sS'pr_end_struct_type'
p1565
(L134627632L
L134627822L
tp1566
sS'bfd_elf_string_from_elf_section'
p1567
(L134938144L
L134938174L
tp1568
sS'i386_aout_linux_set_sizes'
p1569
(L135096240L
L135096302L
tp1570
sS'fetch_data'
p1571
(L134747920L
L134748061L
tp1572
sS'bfd_generic_archive_p'
p1573
(L134778560L
L134779000L
tp1574
sS'pr_void_type'
p1575
(L134636080L
L134636097L
tp1576
sS'ieee_write_id'
p1577
(L134689280L
L134689736L
tp1578
sS'_bfd_elf_init_reloc_shdr'
p1579
(L134934928L
L134935362L
tp1580
sS'_bfd_generic_init_private_section_data'
p1581
(L134819696L
L134819702L
tp1582
sS'bfd_get_arch'
p1583
(L134790864L
L134790875L
tp1584
sS'debug_add_to_namespace'
p1585
(L134646096L
L134646281L
tp1586
sS'rsrc_parse_entries'
p1587
(L135153296L
L135153921L
tp1588
sS'coff_find_inliner_info'
p1589
(L134812784L
L134812840L
tp1590
sS'htab_remove_elt_with_hash'
p1591
(L135296816L
L135296893L
tp1592
sS'bfd_init'
p1593
(L134815872L
L134815874L
tp1594
sS'skip_cfa_op'
p1595
(L135080720L
L135081120L
tp1596
sS'print_addr_index'
p1597
(L134559408L
L134559499L
tp1598
sS'aout_32_set_arch_mach'
p1599
(L135112976L
L135113117L
tp1600
sS'debug_get_field_name'
p1601
(L134659520L
L134659539L
tp1602
sS'aout_32_get_symtab_upper_bound'
p1603
(L135120736L
L135120783L
tp1604
sS'bfd_section_already_linked_table_init'
p1605
(L134847616L
L134847659L
tp1606
sS'debug_make_complex_type'
p1607
(L134655840L
L134655854L
tp1608
sS'dump_bfd'
p1609
(L134539104L
L134543137L
tp1610
sS'bfd_get_elf_phdr_upper_bound'
p1611
(L134993728L
L134993779L
tp1612
sS'_bfd_slurp_extended_name_table'
p1613
(L134780800L
L134781403L
tp1614
sS'bfd_elf_match_symbols_in_sections'
p1615
(L134998144L
L135000019L
tp1616
sS'generic_link_check_archive_element_collect'
p1617
(L134844064L
L134844089L
tp1618
sS'ihex_write_object_contents'
p1619
(L134862304L
L134863133L
tp1620
sS'_bfd_elf_get_special_section'
p1621
(L134941920L
L134942132L
tp1622
sS'linux_link_hash_table_create'
p1623
(L135097648L
L135097740L
tp1624
sS'bfd_elf_get_runpath_list'
p1625
(L135049968L
L135049991L
tp1626
sS'cplus_demangle_set_style'
p1627
(L135223376L
L135223417L
tp1628
sS'_bfd_generic_new_section_hook'
p1629
(L134825616L
L134825703L
tp1630
sS'bfd_record_phdr'
p1631
(L134794304L
L134794562L
tp1632
sS'i386_aout_linux_callback'
p1633
(L135098848L
L135100230L
tp1634
sS'eq_file_ptr'
p1635
(L134774224L
L134774251L
tp1636
sS'pr_range_type'
p1637
(L134639104L
L134639411L
tp1638
sS'debug_make_int_type'
p1639
(L134655776L
L134655808L
tp1640
sS'dlang_function_type'
p1641
(L135288208L
L135288592L
tp1642
sS'aout_32_sizeof_headers'
p1643
(L135122768L
L135122782L
tp1644
sS'cplus_demangle_fill_extended_operator'
p1645
(L135266576L
L135266636L
tp1646
sS'debug_make_offset_type'
p1647
(L134656784L
L134656865L
tp1648
sS'_bfd_elf_common_section_index'
p1649
(L135074032L
L135074038L
tp1650
sS'debug_get_real_type'
p1651
(L134645632L
L134645894L
tp1652
sS'_bfd_nearby_section'
p1653
(L134848576L
L134848885L
tp1654
sS'buildargv'
p1655
(L135279376L
L135279952L
tp1656
sS'bfd_wrapped_link_hash_lookup'
p1657
(L134837280L
L134837743L
tp1658
sS'_bfd_elf_define_linkage_sym'
p1659
(L135013392L
L135013641L
tp1660
sS'opncls_bclose'
p1661
(L134819904L
L134819947L
tp1662
sS'pe_print_debugdata'
p1663
(L135165072L
L135166411L
tp1664
sS'bfd_make_section_anyway_with_flags'
p1665
(L134826720L
L134826894L
tp1666
sS'debug_get_field_type'
p1667
(L134659488L
L134659507L
tp1668
sS'_bfd_abort'
p1669
(L134791888L
L134792084L
tp1670
sS'coff_i386_rtype_to_howto'
p1671
(L135130752L
L135131128L
tp1672
sS'_bfd_coff_read_string_table'
p1673
(L134804736L
L134805130L
tp1674
sS'htab_try_create'
p1675
(L135295472L
L135295539L
tp1676
sS'ieee_read_optional_id'
p1677
(L134711600L
L134711863L
tp1678
sS'binary_canonicalize_symtab'
p1679
(L134856800L
L134857015L
tp1680
sS'stab_demangle_args'
p1681
(L134670528L
L134670956L
tp1682
sS'coff_make_empty_symbol'
p1683
(L134809152L
L134809215L
tp1684
sS'unwrap_hash_lookup'
p1685
(L134838848L
L134839110L
tp1686
sS'aout_32_mkobject'
p1687
(L135112176L
L135112287L
tp1688
sS'bfd_demangle'
p1689
(L134795136L
L134795721L
tp1690
sS'pr_typedef_type'
p1691
(L134634640L
L134634656L
tp1692
sS'size_of_output_cie_fde'
p1693
(L135080640L
L135080714L
tp1694
sS'_bfd_write_merged_section'
p1695
(L135219424L
L135219801L
tp1696
sS'bfd_elf_get_default_section_type'
p1697
(L134943456L
L134943483L
tp1698
sS'ieee_function_parameter'
p1699
(L134690688L
L134691063L
tp1700
sS'_bfd_elf_encode_eh_address'
p1701
(L135094416L
L135094458L
tp1702
sS'aout_32_link_hash_table_init'
p1703
(L135122976L
L135122981L
tp1704
sS'elf_sort_elf_symbol'
p1705
(L134995600L
L134995619L
tp1706
sS'do_type'
p1707
(L135229776L
L135233045L
tp1708
sS'pr_start_class_type'
p1709
(L134634656L
L134635365L
tp1710
sS'bfd_getb64'
p1711
(L134817504L
L134817629L
tp1712
sS'iterate_demangle_function'
p1713
(L135241136L
L135241549L
tp1714
sS'bfd_elf_link_record_dynamic_symbol'
p1715
(L135015024L
L135015246L
tp1716
sS'print_displacement'
p1717
(L134755392L
L134755766L
tp1718
sS'_bfd_elf_adjust_dynamic_copy'
p1719
(L135023616L
L135023711L
tp1720
sS'bfd_reloc_name_lookup'
p1721
(L135211440L
L135211455L
tp1722
sS'bfd_set_arch_info'
p1723
(L134790848L
L134790860L
tp1724
sS'elf_vxworks_final_write_processing'
p1725
(L134920176L
L134920286L
tp1726
sS'elf_i386_rtype_to_howto'
p1727
(L134889808L
L134889974L
tp1728
sS'filename_hash'
p1729
(L135293680L
L135293741L
tp1730
sS'OP_VEX'
p1731
(L134754816L
L134755158L
tp1732
sS'objdump_print_address'
p1733
(L134537520L
L134537545L
tp1734
sS'debug_make_type'
p1735
(L134646288L
L134646334L
tp1736
sS'verilog_write_object_contents'
p1737
(L134887328L
L134887824L
tp1738
sS'bfd_get_linker_section'
p1739
(L134825936L
L134826030L
tp1740
sS'parse_coff'
p1741
(L134729888L
L134731726L
tp1742
sS'rsrc_print_resource_entries'
p1743
(L135151488L
L135152504L
tp1744
sS'concat'
p1745
(L135281184L
L135281329L
tp1746
sS'unlink_if_ordinary'
p1747
(L135301504L
L135301593L
tp1748
sS'coff_link_add_object_symbols'
p1749
(L135180976L
L135183494L
tp1750
sS'bfd_elf32_slurp_symbol_table'
p1751
(L134921536L
L134923015L
tp1752
sS'htab_traverse'
p1753
(L135297104L
L135297169L
tp1754
sS'release_archive'
p1755
(L134740528L
L134740605L
tp1756
sS'OP_XMM_VexW'
p1757
(L134751792L
L134751804L
tp1758
sS'cplus_demangle_print_callback'
p1759
(L135277536L
L135277857L
tp1760
sS'print_debugging_info'
p1761
(L134642608L
L134642881L
tp1762
sS'_bfd_pe_print_ce_compressed_pdata'
p1763
(L135166864L
L135168142L
tp1764
sS'aout_32_canonicalize_symtab'
p1765
(L135117616L
L135117716L
tp1766
sS'_bfd_generic_link_hash_table_free'
p1767
(L134836032L
L134836124L
tp1768
sS'elf_fake_sections'
p1769
(L134935376L
L134936736L
tp1770
sS'bfd_set_section_contents'
p1771
(L134827536L
L134827795L
tp1772
sS'pr_array_type'
p1773
(L134641392L
L134641894L
tp1774
sS'_bfd_xcoff_stringtab_init'
p1775
(L134835424L
L134835447L
tp1776
sS'binary_sizeof_headers'
p1777
(L134856608L
L134856611L
tp1778
sS'make_mapping'
p1779
(L134932624L
L134932741L
tp1780
sS'htab_traverse_noresize'
p1781
(L135297024L
L135297089L
tp1782
sS'_bfd_pei_swap_aouthdr_out'
p1783
(L135161200L
L135162690L
tp1784
sS'bfd_generic_stat_arch_elt'
p1785
(L134783136L
L134783362L
tp1786
sS'_bfd_pei_write_codeview_record'
p1787
(L135166608L
L135166849L
tp1788
sS'pr_end_function'
p1789
(L134625504L
L134625510L
tp1790
sS'elf_link_renumber_hash_table_dynsyms'
p1791
(L135000032L
L135000068L
tp1792
sS'bfd_arch_default_fill'
p1793
(L134790400L
L134790451L
tp1794
sS'cmalloc'
p1795
(L134624416L
L134624460L
tp1796
sS'_bfd_generic_reloc_link_order'
p1797
(L134845296L
L134846043L
tp1798
sS'ieee_start_function'
p1799
(L134705136L
L134706022L
tp1800
sS'filename_cmp'
p1801
(L135293648L
L135293653L
tp1802
sS'get_DW_CFA_name'
p1803
(L135293616L
L135293639L
tp1804
sS'd_expression_1'
p1805
(L135272384L
L135273854L
tp1806
sS'ieee_class_start_method'
p1807
(L134700928L
L134701008L
tp1808
sS'pr_pointer_type'
p1809
(L134633184L
L134633300L
tp1810
sS'_bfd_elf_discard_section_eh_frame_hdr'
p1811
(L135088960L
L135089087L
tp1812
sS'bfd_alloc'
p1813
(L134823584L
L134823728L
tp1814
sS'getvalue'
p1815
(L134857568L
L134857695L
tp1816
sS'objdump_print_addr_with_sym'
p1817
(L134536896L
L134537301L
tp1818
sS'elfcore_write_note'
p1819
(L134989728L
L134990033L
tp1820
sS'srec_scan'
p1821
(L134853712L
L134856000L
tp1822
sS'tekhex_print_symbol'
p1823
(L134860240L
L134860358L
tp1824
sS'bfd_malloc_and_get_section'
p1825
(L134828160L
L134828175L
tp1826
sS'tekhex_mkobject'
p1827
(L134858816L
L134858895L
tp1828
sS'_bfd_calloc_wrapper'
p1829
(L134774256L
L134774261L
tp1830
sS'print_insn_i386_intel'
p1831
(L134773008L
L134773028L
tp1832
sS'aout_32_swap_ext_reloc_in'
p1833
(L135118512L
L135118972L
tp1834
sS'stab_demangle_function_name'
p1835
(L134670960L
L134671095L
tp1836
sS'dwarf1_unit_find_nearest_line'
p1837
(L135094976L
L135095663L
tp1838
sS'aout_32_canonicalize_reloc'
p1839
(L135120368L
L135120563L
tp1840
sS'default_indirect_link_order'
p1841
(L134837744L
L134838833L
tp1842
sS'stab_demangle_template'
p1843
(L134668176L
L134669446L
tp1844
sS'aout_32_get_reloc_upper_bound'
p1845
(L135120576L
L135120723L
tp1846
sS'bfd_get_relocated_section_contents'
p1847
(L134794208L
L134794297L
tp1848
sS'cplus_demangle_fill_ctor'
p1849
(L135266640L
L135266700L
tp1850
sS'adjust_relative_path_1'
p1851
(L134739488L
L134739712L
tp1852
sS'cache_bwrite'
p1853
(L135206464L
L135206626L
tp1854
sS'bfd_cache_max_open'
p1855
(L135204480L
L135204593L
tp1856
sS'do_arg'
p1857
(L135236400L
L135236728L
tp1858
sS'_bfd_generic_minisymbol_to_symbol'
p1859
(L134829536L
L134829543L
tp1860
sS'OP_E_register'
p1861
(L134753040L
L134753444L
tp1862
sS'undefined_reference'
p1863
(L134996352L
L134996416L
tp1864
sS'coff_slurp_symbol_table_0'
p1865
(L135136544L
L135138844L
tp1866
sS'memory_bwrite'
p1867
(L134796384L
L134796623L
tp1868
sS'bfd_alloc2'
p1869
(L134823728L
L134823820L
tp1870
sS'bfd_elf_add_obj_attr_int_string'
p1871
(L135076416L
L135076535L
tp1872
sS'dump_symbols'
p1873
(L134536192L
L134536747L
tp1874
sS'elfcore_write_linux_prpsinfo64'
p1875
(L134990736L
L134991130L
tp1876
sS'ieee_enum_type'
p1877
(L134692640L
L134693707L
tp1878
sS'_start'
p1879
(L134529288L
L134529322L
tp1880
sS'elf_i386_create_dynamic_sections'
p1881
(L134915472L
L134915779L
tp1882
sS'bfd_elf32_swap_reloca_in'
p1883
(L134920992L
L134921058L
tp1884
sS'dump_dwarf_section'
p1885
(L134552080L
L134552330L
tp1886
sS'bfd_lookup_arch'
p1887
(L134790944L
L134791013L
tp1888
sS'verilog_set_section_contents'
p1889
(L134886896L
L134887157L
tp1890
sS'_bfd_elf_create_dynamic_sections'
p1891
(L135014624L
L135015015L
tp1892
sS'get_DW_FORM_name'
p1893
(L135290256L
L135290694L
tp1894
sS'free_abbrevs'
p1895
(L134552832L
L134552924L
tp1896
sS'aout_32_bfd_free_cached_info'
p1897
(L135122784L
L135122975L
tp1898
sS'_bfd_elf_symbol_from_bfd_symbol'
p1899
(L134960400L
L134960602L
tp1900
sS'writevalue'
p1901
(L134857888L
L134858029L
tp1902
sS'debug_start_source'
p1903
(L134653184L
L134653401L
tp1904
sS'display_file'
p1905
(L134551488L
L134551586L
tp1906
sS'dlang_type'
p1907
(L135286736L
L135287877L
tp1908
sS'register_Btype'
p1909
(L135220880L
L135220989L
tp1910
sS'ieee_empty_type'
p1911
(L134687344L
L134687382L
tp1912
sS'bfd_elf_gc_record_vtentry'
p1913
(L135071232L
L135071562L
tp1914
sS'opncls_bseek'
p1915
(L134819728L
L134819803L
tp1916
sS'tg_fix_visibility'
p1917
(L134627168L
L134627271L
tp1918
sS'make_relative_prefix_1'
p1919
(L135298672L
L135299943L
tp1920
sS'cache_bstat'
p1921
(L135206080L
L135206191L
tp1922
sS'ieee_end_function'
p1923
(L134703056L
L134703638L
tp1924
sS'bfd_get_size'
p1925
(L134797744L
L134797800L
tp1926
sS'elf_collect_gnu_hash_codes'
p1927
(L135003296L
L135003553L
tp1928
sS'merge_sections_remove_hook'
p1929
(L134996704L
L134996757L
tp1930
sS'_bfd_elf_make_section_from_phdr'
p1931
(L134942512L
L134943368L
tp1932
sS'ada_demangle'
p1933
(L135223488L
L135224866L
tp1934
sS'tg_tag'
p1935
(L134626368L
L134626408L
tp1936
sS'display_debug_types'
p1937
(L134608704L
L134608736L
tp1938
sS'dwarf_select_sections_by_names'
p1939
(L134624736L
L134624967L
tp1940
sS'debug_make_indirect_type'
p1941
(L134655696L
L134655753L
tp1942
sS'strtab_hash_newfunc'
p1943
(L134835008L
L134835070L
tp1944
sS'mark_entry'
p1945
(L135081120L
L135081245L
tp1946
sS'read_rangelist'
p1947
(L134869040L
L134869285L
tp1948
sS'coff_write_linenumbers'
p1949
(L134804112L
L134804540L
tp1950
sS'ieee_write_number'
p1951
(L134689744L
L134690165L
tp1952
sS'debug_write_type'
p1953
(L134648608L
L134651743L
tp1954
sS'aout_32_swap_exec_header_in'
p1955
(L135110784L
L135111033L
tp1956
sS'_bfd_create_empty_archive_element_shell'
p1957
(L134775952L
L134775957L
tp1958
sS'list_matching_formats'
p1959
(L134732448L
L134732589L
tp1960
sS'bfd_set_symtab'
p1961
(L134828288L
L134828362L
tp1962
sS'ieee_require_asn'
p1963
(L134712720L
L134712858L
tp1964
sS'indent_type'
p1965
(L134630112L
L134630177L
tp1966
sS'linux_add_one_symbol'
p1967
(L135101120L
L135101801L
tp1968
sS'bfd_set_assert_handler'
p1969
(L134791744L
L134791760L
tp1970
sS'non_fatal'
p1971
(L134732320L
L134732347L
tp1972
sS'_bfd_generic_link_add_symbols'
p1973
(L134843520L
L134843532L
tp1974
sS'bfd_elf_gc_record_vtinherit'
p1975
(L135070992L
L135071230L
tp1976
sS'bfd_getl32'
p1977
(L134817360L
L134817397L
tp1978
sS'ieee_write_asn'
p1979
(L134696960L
L134697026L
tp1980
sS'_bfd_generic_write_ar_hdr'
p1981
(L134782752L
L134782801L
tp1982
sS'pr_reference_type'
p1983
(L134633120L
L134633183L
tp1984
sS'_bfd_merge_sections'
p1985
(L135218128L
L135219424L
tp1986
sS'generic_symbol_is_valid'
p1987
(L134774192L
L134774198L
tp1988
sS'symbolsrec_write_object_contents'
p1989
(L134853472L
L134853486L
tp1990
sS'debug_record_float_const'
p1991
(L134655200L
L134655264L
tp1992
sS'bfd_map_over_sections'
p1993
(L134827280L
L134827370L
tp1994
sS'elf_i386_size_dynamic_sections'
p1995
(L134894816L
L134898293L
tp1996
sS'ieee_write_atn65'
p1997
(L134703648L
L134703741L
tp1998
sS'get_AT_name'
p1999
(L134559152L
L134559279L
tp2000
sS'_bfd_elf_swap_verdaux_in'
p2001
(L134937040L
L134937091L
tp2002
sS'__umoddi3'
p2003
(L135303344L
L135303687L
tp2004
sS'bfd_coff_set_symbol_class'
p2005
(L134812912L
L134813158L
tp2006
sS'bfd_elf32_checksum_contents'
p2007
(L134926752L
L134927509L
tp2008
sS'bfd_i386_compatible'
p2009
(L135203696L
L135203748L
tp2010
sS'htab_find_slot_with_hash'
p2011
(L135296304L
L135296764L
tp2012
sS'stab_demangle_v3_arg'
p2013
(L134662880L
L134664925L
tp2014
sS'_bfd_elf_copy_private_symbol_data'
p2015
(L134967824L
L134968103L
tp2016
sS'is_default_attr'
p2017
(L135074704L
L135074750L
tp2018
sS'_bfd_pei_swap_scnhdr_out'
p2019
(L135164000L
L135164928L
tp2020
sS'_bfd_elf_link_hash_table_free'
p2021
(L134998080L
L134998135L
tp2022
sS'generic_link_add_object_symbols'
p2023
(L134842928L
L134843419L
tp2024
sS'bfd_format_string'
p2025
(L134815824L
L134815860L
tp2026
sS'__libc_csu_fini'
p2027
(L135303808L
L135303810L
tp2028
sS'get_TAG_name'
p2029
(L134559040L
L134559146L
tp2030
sS'aout_32_find_nearest_line'
p2031
(L135121616L
L135122767L
tp2032
sS'bfd_elf32_swap_symbol_in'
p2033
(L134920720L
L134920925L
tp2034
sS'MY_bfd_copy_private_section_data'
p2035
(L135100240L
L135100301L
tp2036
sS'check_dynsym'
p2037
(L135001312L
L135001399L
tp2038
sS'bfd_realloc'
p2039
(L134816432L
L134816514L
tp2040
sS'scan_unit_for_symbols'
p2041
(L134874960L
L134876695L
tp2042
sS'coff_pe_i386_relocate_section'
p2043
(L135131616L
L135131668L
tp2044
sS'aout_32_link_add_symbols'
p2045
(L135123088L
L135123230L
tp2046
sS'd_exprlist'
p2047
(L135270608L
L135272373L
tp2048
sS'elf_strtab_hash_newfunc'
p2049
(L135078656L
L135078762L
tp2050
sS'range_entry_compar'
p2051
(L134552448L
L134552478L
tp2052
sS'get16'
p2053
(L134748144L
L134748205L
tp2054
sS'bfd_elf_get_bfd_needed_list'
p2055
(L135050048L
L135050425L
tp2056
sS'elf_i386_link_hash_table_free'
p2057
(L134899808L
L134899873L
tp2058
sS'_bfd_elf_copy_private_section_data'
p2059
(L134961008L
L134961157L
tp2060
sS'tg_class_static_member'
p2061
(L134629120L
L134629434L
tp2062
sS'_bfd_elf_slurp_version_tables'
p2063
(L134968992L
L134971241L
tp2064
sS'bfd_section_hash_newfunc'
p2065
(L134825440L
L134825614L
tp2066
sS'OP_Monitor'
p2067
(L134747632L
L134747906L
tp2068
sS'bfd_malloc'
p2069
(L134816256L
L134816317L
tp2070
sS'bfd_elf_reloc_symbol_deleted_p'
p2071
(L134995952L
L134996235L
tp2072
sS'd_bare_function_type'
p2073
(L135270416L
L135270500L
tp2074
sS'_bfd_elf_link_hash_copy_indirect'
p2075
(L135049152L
L135049449L
tp2076
sS'htab_create_typed_alloc'
p2077
(L135295120L
L135295273L
tp2078
sS'_bfd_generic_mkarchive'
p2079
(L134775792L
L134775835L
tp2080
sS'bfd_stat'
p2081
(L134797184L
L134797256L
tp2082
sS'_bfd_elf_fix_symbol_flags'
p2083
(L135018624L
L135019389L
tp2084
sS'srec_write_object_contents'
p2085
(L134853456L
L134853467L
tp2086
sS'bfd_core_file_failing_command'
p2087
(L135207184L
L135207234L
tp2088
sS'_bfd_coff_write_global_sym'
p2089
(L135183616L
L135184916L
tp2090
sS'elfcore_write_ppc_vmx'
p2091
(L134991616L
L134991683L
tp2092
sS'display_debug_str_offsets'
p2093
(L134558768L
L134558847L
tp2094
sS'coff_new_section_hook'
p2095
(L135149584L
L135149814L
tp2096
sS'd_print_cast'
p2097
(L135265344L
L135265979L
tp2098
sS'OP_EX_VexReg'
p2099
(L134770656L
L134770840L
tp2100
sS'string_prepend'
p2101
(L135221872L
L135221920L
tp2102
sS'verilog_mkobject'
p2103
(L134887216L
L134887319L
tp2104
sS'_bfd_elf_get_dynamic_symtab_upper_bound'
p2105
(L134968176L
L134968275L
tp2106
sS'OP_LWP_E'
p2107
(L134749824L
L134749881L
tp2108
sS'bfd_elf32_slurp_reloc_table'
p2109
(L134925616L
L134926177L
tp2110
sS'bfd_hash_lookup'
p2111
(L134834240L
L134834574L
tp2112
sS'_bfd_archive_bsd44_construct_extended_name_table'
p2113
(L134782528L
L134782742L
tp2114
sS'bfd_get_unique_section_name'
p2115
(L134826192L
L134826450L
tp2116
sS'java_demangle_v3'
p2117
(L135278976L
L135279001L
tp2118
sS'elf_i386_mkobject'
p2119
(L134900224L
L134900259L
tp2120
sS'bfd_default_compatible'
p2121
(L134790464L
L134790507L
tp2122
sS'_bfd_elf_discard_section_eh_frame'
p2123
(L135087184L
L135088958L
tp2124
sS'bfd_section_from_phdr'
p2125
(L134989216L
L134989722L
tp2126
sS'remember_Ktype'
p2127
(L135220992L
L135221128L
tp2128
sS'coff_i386_reloc_type_lookup'
p2129
(L135135968L
L135136146L
tp2130
sS'cplus_demangle_v3_components'
p2131
(L135281904L
L135282231L
tp2132
sS'pr_typdef'
p2133
(L134632976L
L134633118L
tp2134
sS'ieee_complex_type'
p2135
(L134693712L
L134694074L
tp2136
sS'aout_32_make_sections'
p2137
(L135111216L
L135111364L
tp2138
sS'_bfd_delete_bfd'
p2139
(L134820128L
L134820207L
tp2140
sS'bfd_set_default_target'
p2141
(L134832608L
L134832684L
tp2142
sS'bfd_fdopenr'
p2143
(L134822272L
L134822443L
tp2144
sS'OP_ST'
p2145
(L134748832L
L134748839L
tp2146
sS'pr_start_block'
p2147
(L134638464L
L134638648L
tp2148
sS'cplus_demangle_fill_operator'
p2149
(L135281744L
L135281890L
tp2150
sS'bfd_get_arch_size'
p2151
(L134793456L
L134793516L
tp2152
sS'_bfd_elf_adjust_dynamic_symbol'
p2153
(L135019392L
L135019698L
tp2154
sS'bfd_create_gnu_debuglink_section'
p2155
(L134824736L
L134824892L
tp2156
sS'_bfd_generic_read_ar_hdr_mag'
p2157
(L134776288L
L134777382L
tp2158
sS'get_archive_member_name'
p2159
(L134740976L
L134741480L
tp2160
sS'bfd_reloc_type_lookup'
p2161
(L135211424L
L135211439L
tp2162
sS'debug_write_linenos'
p2163
(L134645904L
L134646085L
tp2164
sS'OP_SEG'
p2165
(L134760672L
L134760760L
tp2166
sS'print_arelt_descr'
p2167
(L134734496L
L134734809L
tp2168
sS'_bfd_pe_get_symbol_info'
p2169
(L135177888L
L135177893L
tp2170
sS'aout_link_write_other_symbol'
p2171
(L135104896L
L135105700L
tp2172
sS'debug_find_named_type'
p2173
(L134658560L
L134658836L
tp2174
sS'pr_struct_field'
p2175
(L134639424L
L134639796L
tp2176
sS'_bfd_elf_link_renumber_dynsyms'
p2177
(L134997360L
L134997641L
tp2178
sS'_bfd_ar_sizepad'
p2179
(L134775584L
L134775781L
tp2180
sS'bfd_false'
p2181
(L134815888L
L134815909L
tp2182
sS'_bfd_elf_make_empty_symbol'
p2183
(L134974176L
L134974211L
tp2184
sS'elf_i386_add_symbol_hook'
p2185
(L134900320L
L134900400L
tp2186
sS'bfd_init_section_decompress_status'
p2187
(L134886432L
L134886711L
tp2188
sS'_bfd_archive_close_and_cleanup'
p2189
(L134789168L
L134789423L
tp2190
sS'bfd_perform_relocation'
p2191
(L135207968L
L135209042L
tp2192
sS'ihex_sizeof_headers'
p2193
(L134861760L
L134861763L
tp2194
sS'i386_aout_linux_object_p'
p2195
(L135098640L
L135098844L
tp2196
sS'elfcore_write_aarch_hw_watch'
p2197
(L134992656L
L134992723L
tp2198
sS'set_symbol_from_hash'
p2199
(L134836128L
L134836394L
tp2200
sS'_bfd_link_section_stabs'
p2201
(L135212816L
L135215019L
tp2202
sS'get_alt_debug_link_info_shim'
p2203
(L134824592L
L134824663L
tp2204
sS'demangle_nested_args'
p2205
(L135237440L
L135237564L
tp2206
sS'ieee_end_struct_type'
p2207
(L134692176L
L134692639L
tp2208
sS'_bfd_elf32_bfd_from_remote_memory'
p2209
(L134929488L
L134930862L
tp2210
sS'bfd_elf_stack_segment_size'
p2211
(L135038832L
L135039293L
tp2212
sS'demangle_signature'
p2213
(L135238864L
L135241135L
tp2214
sS'tg_typdef'
p2215
(L134626416L
L134626505L
tp2216
sS'ieee_get_modified_info'
p2217
(L134701008L
L134701134L
tp2218
sS'opncls_bwrite'
p2219
(L134819888L
L134819899L
tp2220
sS'_bfd_coff_debug_merge_hash_newfunc'
p2221
(L135180880L
L135180966L
tp2222
sS'srec_sizeof_headers'
p2223
(L134849760L
L134849763L
tp2224
sS'bfd_true'
p2225
(L134815920L
L134815926L
tp2226
sS'display_any_bfd'
p2227
(L134543152L
L134543588L
tp2228
sS'cplus_demangle_print'
p2229
(L135278560L
L135278811L
tp2230
sS'elf_vxworks_add_symbol_hook'
p2231
(L134919424L
L134919498L
tp2232
sS'bfd_print_symbol_vandf'
p2233
(L134828368L
L134828732L
tp2234
sS'display_debug_info'
p2235
(L134608736L
L134608768L
tp2236
sS'_bfd_generic_link_output_symbols'
p2237
(L134844096L
L134845282L
tp2238
sS'_bfd_compute_and_write_armap'
p2239
(L134783840L
L134784827L
tp2240
sS'elf_sort_symbol'
p2241
(L134995504L
L134995585L
tp2242
sS'bfd_elf32_swap_reloca_out'
p2243
(L134921136L
L134921216L
tp2244
sS'aout_32_write_syms'
p2245
(L135116416L
L135117612L
tp2246
sS'bfd_coff_get_comdat_section'
p2247
(L134813168L
L134813202L
tp2248
sS'bfd_hash_allocate'
p2249
(L134834880L
L134834995L
tp2250
sS'start_stab'
p2251
(L134681968L
L134682145L
tp2252
sS'_bfd_write_stab_strings'
p2253
(L135216224L
L135216423L
tp2254
sS'print_operand_value'
p2255
(L134755776L
L134755963L
tp2256
sS'OP_indirE'
p2257
(L134770064L
L134770114L
tp2258
sS'elf_link_flush_output_syms'
p2259
(L135003616L
L135003774L
tp2260
sS'elf_i386_always_size_sections'
p2261
(L134898304L
L134898562L
tp2262
sS'_bfd_elf_ifunc_get_synthetic_symtab'
p2263
(L134916896L
L134917817L
tp2264
sS'MY_close_and_cleanup'
p2265
(L135097824L
L135097869L
tp2266
sS'elf_find_function'
p2267
(L134932752L
L134933285L
tp2268
sS'init_dwarf_regnames_x86_64'
p2269
(L134624064L
L134624085L
tp2270
sS'bfd_create'
p2271
(L134823088L
L134823164L
tp2272
sS'HLE_Fixup3'
p2273
(L134760768L
L134760832L
tp2274
sS'_bfd_elf_tls_setup'
p2275
(L135024192L
L135024298L
tp2276
sS'in_reloc_p'
p2277
(L135130128L
L135130158L
tp2278
sS'string_prepend_0'
p2279
(L135282768L
L135282876L
tp2280
sS'tg_class_method_variant'
p2281
(L134632288L
L134632784L
tp2282
sS'ieee_require_atn65'
p2283
(L134520247L
L134520477L
tp2284
sS'OP_EX_VexImmW'
p2285
(L134770848L
L134771069L
tp2286
sS'debug_write_name'
p2287
(L134651744L
L134652402L
tp2288
sS'bfd_get_alt_debug_link_info'
p2289
(L134824288L
L134824577L
tp2290
sS'swap_abort'
p2291
(L135204448L
L135204479L
tp2292
sS'_bfd_elf_sizeof_headers'
p2293
(L134975104L
L134975241L
tp2294
sS'_bfd_generic_verify_endian_match'
p2295
(L134819200L
L134819338L
tp2296
sS'ieee_tag_type'
p2297
(L134687392L
L134688331L
tp2298
sS'read_leb128'
p2299
(L134562960L
L134563215L
tp2300
sS'pr_class_baseclass'
p2301
(L134641904L
L134642599L
tp2302
sS'_bfd_elf_no_info_to_howto'
p2303
(L134975408L
L134975439L
tp2304
sS'display_trace_info'
p2305
(L134608672L
L134608704L
tp2306
sS'debug_record_type_size'
p2307
(L134658448L
L134658549L
tp2308
sS'bfd_elf32_write_relocs'
p2309
(L134924448L
L134924964L
tp2310
sS'bfd_cache_init'
p2311
(L135204864L
L135205017L
tp2312
sS'objdump_print_value'
p2313
(L134531568L
L134531694L
tp2314
sS'htab_find_with_hash'
p2315
(L135295920L
L135296245L
tp2316
sS'_bfd_norelocs_get_reloc_upper_bound'
p2317
(L134816064L
L134816070L
tp2318
sS'dump_stabs_section'
p2319
(L134531216L
L134531286L
tp2320
sS'bfd_make_section_old_way'
p2321
(L134826464L
L134826715L
tp2322
sS'visibility_name'
p2323
(L134625792L
L134625854L
tp2324
sS'VCMP_Fixup'
p2325
(L134756480L
L134756691L
tp2326
sS'bfd_get_debug_link_info'
p2327
(L134820208L
L134820425L
tp2328
sS'error'
p2329
(L134736544L
L134736668L
tp2330
sS'htab_size'
p2331
(L135294912L
L135294920L
tp2332
sS'intel_operand_size'
p2333
(L134749888L
L134751276L
tp2334
sS'aout_get_external_symbols'
p2335
(L135102032L
L135102443L
tp2336
sS'_bfd_elf_allocate_ifunc_dyn_relocs'
p2337
(L134916208L
L134916894L
tp2338
sS'concat_copy'
p2339
(L135281008L
L135281085L
tp2340
sS'new_fixup'
p2341
(L135100304L
L135100380L
tp2342
sS'coff_set_alignment_hook'
p2343
(L135134016L
L135134673L
tp2344
sS'tg_lineno'
p2345
(L134625520L
L134625526L
tp2346
sS'_bfd_elf_add_dynamic_entry'
p2347
(L135024304L
L135024505L
tp2348
sS'parse_coff_struct_type'
p2349
(L134729184L
L134729876L
tp2350
sS'display_debug_addr'
p2351
(L134598960L
L134599732L
tp2352
sS'ieee_const_type'
p2353
(L134701392L
L134701635L
tp2354
sS'process_abbrev_section'
p2355
(L134563216L
L134563636L
tp2356
sS'ihex_bad_byte'
p2357
(L134863408L
L134863626L
tp2358
sS'append_seg'
p2359
(L134748848L
L134749002L
tp2360
sS'_bfd_elf_link_assign_sym_version'
p2361
(L135019712L
L135020585L
tp2362
sS'add_symbols'
p2363
(L135201936L
L135201999L
tp2364
sS'_bfd_elf_merge_symbol'
p2365
(L135015248L
L135018609L
tp2366
sS'bfd_link_add_undef'
p2367
(L134839264L
L134839348L
tp2368
sS'display_debug_str'
p2369
(L134554544L
L134554982L
tp2370
sS'ieee_start_class_type'
p2371
(L134710016L
L134710545L
tp2372
sS'simple_dummy_undefined_symbol'
p2373
(L134884256L
L134884262L
tp2374
sS'bfd_openr_next_archived_file'
p2375
(L134778320L
L134778387L
tp2376
sS'bfd_generic_is_local_label_name'
p2377
(L134819152L
L134819189L
tp2378
sS'elf32_r_sym'
p2379
(L134930880L
L134930888L
tp2380
sS'cache_btell'
p2381
(L135206384L
L135206450L
tp2382
sS'_bfd_pe_print_private_bfd_data_common'
p2383
(L135168144L
L135177113L
tp2384
sS'_bfd_elf_close_and_cleanup'
p2385
(L134975872L
L134975973L
tp2386
sS'debug_write'
p2387
(L134659680L
L134659957L
tp2388
sS'_bfd_handle_already_linked'
p2389
(L134847696L
L134848355L
tp2390
sS'bfd_emul_set_maxpagesize'
p2391
(L134794880L
L134794965L
tp2392
sS'dwarf_vmatoa_1'
p2393
(L134554992L
L134555256L
tp2394
sS'tg_end_struct_type'
p2395
(L134627440L
L134627468L
tp2396
sS'eq_pointer'
p2397
(L135294080L
L135294095L
tp2398
sS'close_one'
p2399
(L135204720L
L135204806L
tp2400
sS'OP_DIR'
p2401
(L134753904L
L134754086L
tp2402
sS'bfd_elf_get_obj_attr_int'
p2403
(L135075920L
L135076026L
tp2404
sS'dump_dwarf'
p2405
(L134532912L
L134533168L
tp2406
sS'parse_ieee'
p2407
(L134714240L
L134725099L
tp2408
sS'elf_i386_get_synthetic_symtab'
p2409
(L134899152L
L134899241L
tp2410
sS'bfd_putb16'
p2411
(L134817248L
L134817267L
tp2412
sS'pr_class_static_method_variant'
p2413
(L134630496L
L134630869L
tp2414
sS'mode_string'
p2415
(L134736160L
L134736532L
tp2416
sS'elfcore_grok_nto_regs'
p2417
(L134934608L
L134934928L
tp2418
sS'bfd_putl32'
p2419
(L134818096L
L134818129L
tp2420
sS'd_append_char'
p2421
(L135245536L
L135245650L
tp2422
sS'bfd_elf32_core_file_matches_executable_p'
p2423
(L134930992L
L134931119L
tp2424
sS'aout_32_new_section_hook'
p2425
(L135114656L
L135114851L
tp2426
sS'_bfd_count_link_order_relocs'
p2427
(L134847376L
L134847414L
tp2428
sS'debug_make_enum_type'
p2429
(L134656240L
L134656297L
tp2430
sS'_bfd_pei_swap_aux_out'
p2431
(L135159504L
L135160211L
tp2432
sS'_bfd_elf_rel_local_sym'
p2433
(L134994080L
L134994152L
tp2434
sS'srec_get_byte'
p2435
(L134851424L
L134851498L
tp2436
sS'bfd_elf32_core_file_p'
p2437
(L134931120L
L134932277L
tp2438
sS'bfd_fopen'
p2439
(L134821888L
L134822220L
tp2440
sS'string_append_0'
p2441
(L135221920L
L135221978L
tp2442
sS'_bfd_link_hash_newfunc'
p2443
(L134836864L
L134836968L
tp2444
sS'setup_nested_archive'
p2445
(L134740608L
L134740731L
tp2446
sS'memory_bstat'
p2447
(L134795776L
L134795894L
tp2448
sS'bfd_elf32_swap_dyn_out'
p2449
(L134921280L
L134921341L
tp2450
sS'OP_I64'
p2451
(L134771600L
L134771907L
tp2452
sS'ieee_tag_0'
p2453
(L134690624L
L134690650L
tp2454
sS'elf_i386_fbsd_post_process_headers'
p2455
(L134888544L
L134888549L
tp2456
sS'internal_cplus_demangle'
p2457
(L135243136L
L135244882L
tp2458
sS'_bfd_elf_maybe_strip_eh_frame_hdr'
p2459
(L135089184L
L135089288L
tp2460
sS'xmalloc_failed'
p2461
(L135301696L
L135301819L
tp2462
sS'debug_make_volatile_type'
p2463
(L134657024L
L134657068L
tp2464
sS'elf_i386_get_plt_sym_val'
p2465
(L134899248L
L134899702L
tp2466
sS'_bfd_elf_strtab_refcount'
p2467
(L135079456L
L135079474L
tp2468
sS'init_reloc_cookie'
p2469
(L134996416L
L134996690L
tp2470
sS'aout_32_read_minisymbols'
p2471
(L135121216L
L135121343L
tp2472
sS'string_prependn'
p2473
(L135221776L
L135221863L
tp2474
sS'd_discriminator'
p2475
(L135246000L
L135246035L
tp2476
sS'aout_32_final_link'
p2477
(L135123232L
L135130116L
tp2478
sS'ptr_reg'
p2479
(L134749216L
L134749367L
tp2480
sS'_bfd_elfcore_strndup'
p2481
(L134976336L
L134976433L
tp2482
sS'elf_link_sort_cmp2'
p2483
(L135000608L
L135000671L
tp2484
sS'elf_i386_link_hash_table_create'
p2485
(L134899888L
L134900080L
tp2486
sS'elf_link_sort_cmp1'
p2487
(L135000512L
L135000599L
tp2488
sS'_bfd_clear_contents'
p2489
(L135211024L
L135211419L
tp2490
sS'htab_delete'
p2491
(L135295552L
L135295671L
tp2492
sS'bfd_hide_sym_by_version'
p2493
(L134849712L
L134849759L
tp2494
sS'buy_and_read'
p2495
(L135133488L
L135133601L
tp2496
sS'free_debug_memory'
p2497
(L134624560L
L134624734L
tp2498
sS'comp_unit_find_nearest_line'
p2499
(L134877856L
L134878279L
tp2500
sS'bfd_check_overflow'
p2501
(L135207760L
L135207962L
tp2502
sS'OP_OFF64'
p2503
(L134772688L
L134772962L
tp2504
sS'bfd_zalloc'
p2505
(L134823824L
L134823883L
tp2506
sS'coff_write_armap'
p2507
(L134788224L
L134789164L
tp2508
sS'bfd_hash_rename'
p2509
(L134834576L
L134834771L
tp2510
sS'pr_int_type'
p2511
(L134635952L
L134636077L
tp2512
sS'htab_create_alloc_ex'
p2513
(L135294944L
L135295117L
tp2514
sS'xstrerror'
p2515
(L135302096L
L135302178L
tp2516
sS'OP_MMX'
p2517
(L134749536L
L134749625L
tp2518
sS'_bfd_elf_write_corefile_contents'
p2519
(L134960384L
L134960389L
tp2520
sS'u16_mbtouc'
p2521
(L135154256L
L135154345L
tp2522
sS'_bfd_generic_link_hash_newfunc'
p2523
(L134836976L
L134837071L
tp2524
sS'coff_print_symbol'
p2525
(L134809856L
L134811281L
tp2526
sS'pr_function_type'
p2527
(L134628608L
L134629108L
tp2528
sS'debug_get_field_bitsize'
p2529
(L134659584L
L134659612L
tp2530
sS'pr_offset_type'
p2531
(L134633312L
L134633434L
tp2532
sS'elfcore_write_prfpreg'
p2533
(L134991376L
L134991443L
tp2534
sS'_bfd_elf_strtab_free'
p2535
(L135078896L
L135078936L
tp2536
sS'simple_dummy_reloc_dangerous'
p2537
(L134884288L
L134884294L
tp2538
sS'adjust_addresses'
p2539
(L134533168L
L134533202L
tp2540
sS'string_append'
p2541
(L135282352L
L135282410L
tp2542
sS'bfd_section_already_linked_table_lookup'
p2543
(L134847488L
L134847531L
tp2544
sS'dlang_identifier'
p2545
(L135285216L
L135286254L
tp2546
sS'pr_start_compilation_unit'
p2547
(L134627072L
L134627165L
tp2548
sS'd_encoding'
p2549
(L135275216L
L135276675L
tp2550
sS'bfd_is_undefined_symclass'
p2551
(L134829200L
L134829227L
tp2552
sS'bfd_link_hash_traverse'
p2553
(L134839120L
L134839264L
tp2554
sS'ieee_push_type'
p2555
(L134687104L
L134687289L
tp2556
sS'_bfd_coff_link_hash_newfunc'
p2557
(L135180768L
L135180878L
tp2558
sS'ihex_set_section_contents'
p2559
(L134863136L
L134863407L
tp2560
sS'aout_32_link_hash_table_create'
p2561
(L135122992L
L135123084L
tp2562
sS'bfd_arch_bits_per_byte'
p2563
(L134790896L
L134790907L
tp2564
sS'ieee_pointer_type'
p2565
(L134702064L
L134702340L
tp2566
sS'elf_vxworks_create_dynamic_sections'
p2567
(L134919504L
L134919692L
tp2568
sS'linux_link_hash_newfunc'
p2569
(L135097744L
L135097820L
tp2570
sS'generic_link_check_archive_element_no_collect'
p2571
(L134844032L
L134844057L
tp2572
sS'display_debug_pubnames'
p2573
(L134606992L
L134607007L
tp2574
sS'find_address_in_section'
p2575
(L134626000L
L134626133L
tp2576
sS'get32'
p2577
(L134748064L
L134748144L
tp2578
sS'_bfd_elf_archive_symbol_lookup'
p2579
(L135025088L
L135025408L
tp2580
sS'_bfd_generic_get_section_contents_in_window'
p2581
(L134818944L
L134818975L
tp2582
sS'd_operator_name'
p2583
(L135268912L
L135269342L
tp2584
sS'find_stabs_section'
p2585
(L134543600L
L134544563L
tp2586
sS'ieee_add_bb11_blocks'
p2587
(L134711328L
L134711538L
tp2588
sS'_bfd_generic_link_hash_table_create'
p2589
(L134839440L
L134839532L
tp2590
sS'xstrdup'
p2591
(L135302032L
L135302082L
tp2592
sS'_bfd_stringtab_emit'
p2593
(L134835824L
L134835981L
tp2594
sS'comp_unit_contains_address'
p2595
(L134868320L
L134868358L
tp2596
sS'aout_link_includes_newfunc'
p2597
(L135103904L
L135103994L
tp2598
sS'bfd_elf_set_dt_needed_name'
p2599
(L135049776L
L135049821L
tp2600
sS'elf_i386_allocate_local_dynrelocs'
p2601
(L134912960L
L134913046L
tp2602
sS'fetch_indirect_string'
p2603
(L134558848L
L134559033L
tp2604
sS'_bfd_stringtab_free'
p2605
(L134835456L
L134835495L
tp2606
sS'coff_find_nearest_line_with_names'
p2607
(L134811328L
L134812659L
tp2608
sS'_bfd_elf_write_section_eh_frame'
p2609
(L135089792L
L135093350L
tp2610
sS'bfd_elf_link_add_symbols'
p2611
(L135025408L
L135038668L
tp2612
sS'sub_807F500'
p2613
(L134739200L
L134739341L
tp2614
sS'debug_record_label'
p2615
(L134655360L
L134655430L
tp2616
sS'_bfd_elf_gc_mark'
p2617
(L135068672L
L135069091L
tp2618
sS'getpwd'
p2619
(L135293792L
L135294075L
tp2620
sS'ieee_bool_type'
p2621
(L134688960L
L134688995L
tp2622
sS'aout_32_some_aout_object_p'
p2623
(L135111376L
L135112166L
tp2624
sS'XMM_Fixup'
p2625
(L134751872L
L134751957L
tp2626
sS'ieee_float_constant'
p2627
(L134686224L
L134686230L
tp2628
sS'demangle_args'
p2629
(L135236736L
L135237427L
tp2630
sS'elf_swap_shdr_out'
p2631
(L134923872L
L134924067L
tp2632
sS'bfd_elf_set_dyn_lib_class'
p2633
(L135049888L
L135049933L
tp2634
sS'xcmalloc'
p2635
(L134624464L
L134624508L
tp2636
sS'elf_i386_local_htab_eq'
p2637
(L134888464L
L134888502L
tp2638
sS'_bfd_elf_rela_local_sym'
p2639
(L134993904L
L134994068L
tp2640
sS'generic_link_add_symbols'
p2641
(L134843424L
L134843513L
tp2642
sS'strrevcmp_align'
p2643
(L135216640L
L135216767L
tp2644
sS'aout_link_add_symbols'
p2645
(L135102688L
L135103900L
tp2646
sS'_bfd_elf_copy_obj_attributes'
p2647
(L135076544L
L135076911L
tp2648
sS'bfd_hash_insert'
p2649
(L134833712L
L134834230L
tp2650
sS'bfd_zmalloc2'
p2651
(L134816864L
L134817000L
tp2652
sS'_bfd_elf_strtab_delref'
p2653
(L135079296L
L135079452L
tp2654
sS'symbolsrec_object_p'
p2655
(L134856320L
L134856564L
tp2656
sS'coff_get_lineno'
p2657
(L134804544L
L134804552L
tp2658
sS'bfd_init_section_compress_status'
p2659
(L134886720L
L134886894L
tp2660
sS'coff_write_symbols'
p2661
(L134802432L
L134804101L
tp2662
sS'simple_dummy_warning'
p2663
(L134884240L
L134884246L
tp2664
sS'd_growable_string_callback_adapter'
p2665
(L135247312L
L135247505L
tp2666
sS'nacl_modify_segment_map'
p2667
(L134917824L
L134918657L
tp2668
sS'fatal'
p2669
(L134732272L
L134732307L
tp2670
sS'_bfd_elf_link_hash_fixup_symbol'
p2671
(L135023568L
L135023611L
tp2672
sS'VZERO_Fixup'
p2673
(L134754688L
L134754809L
tp2674
sS'xmalloc_set_program_name'
p2675
(L135301632L
L135301685L
tp2676
sS'generic_symbol_at_address'
p2677
(L134774176L
L134774182L
tp2678
sS'strrevcmp_1'
p2679
(L135216528L
L135216634L
tp2680
sS'first_phase'
p2681
(L134858896L
L134859794L
tp2682
sS'pr_complex_type'
p2683
(L134637376L
L134637433L
tp2684
sS'write_value'
p2685
(L135081760L
L135081881L
tp2686
sS'coff_mangle_symbols'
p2687
(L134801440L
L134801825L
tp2688
sS'dump_reloc_set'
p2689
(L134537552L
L134539094L
tp2690
sS'_bfd_elf_make_section_from_shdr'
p2691
(L134984848L
L134984890L
tp2692
sS'styp_to_sec_flags'
p2693
(L135139744L
L135141856L
tp2694
sS'elf_vxworks_add_dynamic_entries'
p2695
(L134920288L
L134920511L
tp2696
sS'compare_relocs'
p2697
(L134529536L
L134529583L
tp2698
sS'rsrc_write_directory'
p2699
(L135150992L
L135151478L
tp2700
sS'_bfd_coff_final_link'
p2701
(L135195104L
L135199889L
tp2702
sS'bfd_elf32_core_file_pid'
p2703
(L134930960L
L134930980L
tp2704
sS'_bfd_generic_link_split_section'
p2705
(L134847424L
L134847427L
tp2706
sS'elf_link_renumber_local_hash_table_dynsyms'
p2707
(L135000080L
L135000116L
tp2708
sS'_bfd_elf_hash_symbol'
p2709
(L135038672L
L135038728L
tp2710
sS'OP_Mwait'
p2711
(L134747504L
L134747626L
tp2712
sS'debug_make_undefined_tagged_type'
p2713
(L134658304L
L134658437L
tp2714
sS'OP_REG'
p2715
(L134752080L
L134752440L
tp2716
sS'ieee_finish_compilation_unit'
p2717
(L134698160L
L134700010L
tp2718
sS'compar'
p2719
(L134552336L
L134552426L
tp2720
sS'_bfd_coff_free_symbols'
p2721
(L134807312L
L134807415L
tp2722
sS'add_line_info'
p2723
(L134867456L
L134868230L
tp2724
sS'_bfd_elf_swap_verdef_out'
p2725
(L134936880L
L134937040L
tp2726
sS'aout_32_swap_std_reloc_in'
p2727
(L135118976L
L135119573L
tp2728
sS'pr_class_method_variant'
p2729
(L134630880L
L134631533L
tp2730
sS'elf_i386_hash_symbol'
p2731
(L134888560L
L134888595L
tp2732
sS'get_count'
p2733
(L135220544L
L135220677L
tp2734
sS'dlang_call_convention'
p2735
(L135282416L
L135282572L
tp2736
sS'is_valid_archive_path'
p2737
(L134735872L
L134736004L
tp2738
sS'make_tempdir'
p2739
(L134734880L
L134734904L
tp2740
sS'bfd_elf_lookup_section_flags'
p2741
(L135071568L
L135071958L
tp2742
sS'bfd_core_file_pid'
p2743
(L135207312L
L135207366L
tp2744
sS'd_find_pack'
p2745
(L135247072L
L135247161L
tp2746
sS'_bfd_elf_link_sec_merge_syms'
p2747
(L135004192L
L135004296L
tp2748
sS'bfd_get_section_by_name_if'
p2749
(L134826032L
L134826180L
tp2750
sS'higher_prime_index'
p2751
(L135294224L
L135294359L
tp2752
sS'concat_filename'
p2753
(L134870752L
L134871191L
tp2754
sS'dummy_reloc16_extra_cases'
p2755
(L135131584L
L135131615L
tp2756
sS'ieee_read_type_index'
p2757
(L134714080L
L134714235L
tp2758
sS'bfd_generic_openr_next_archived_file'
p2759
(L134778400L
L134778553L
tp2760
sS'frame_display_row'
p2761
(L134557792L
L134558542L
tp2762
sS'cplus_demangle_fill_builtin_type'
p2763
(L135281600L
L135281738L
tp2764
sS'_bfd_coff_internal_syment_name'
p2765
(L134807152L
L134807300L
tp2766
sS'_bfd_new_bfd_contained_in'
p2767
(L134821664L
L134821764L
tp2768
sS'bfd_getl_signed_64'
p2769
(L134817904L
L134818046L
tp2770
sS'_bfd_elf_gc_mark_fdes'
p2771
(L135087024L
L135087173L
tp2772
sS'd_abi_tags'
p2773
(L135246256L
L135246329L
tp2774
sS'coff_bfd_make_debug_symbol'
p2775
(L134809216L
L134809324L
tp2776
sS'_bfd_coff_get_external_symbols'
p2777
(L134804560L
L134804727L
tp2778
sS'_bfd_dwarf1_find_nearest_line'
p2779
(L135095664L
L135096229L
tp2780
sS'pr_class_static_member'
p2781
(L134633952L
L134634117L
tp2782
sS'bfd_set_section_size'
p2783
(L134827472L
L134827530L
tp2784
sS'bfd_get_next_section_by_name'
p2785
(L134825856L
L134825929L
tp2786
sS'dos_lbasename'
p2787
(L135298000L
L135298073L
tp2788
sS'try_print_file_open'
p2789
(L134532384L
L134532910L
tp2790
sS'coff_swap_reloc_in'
p2791
(L135130160L
L135130227L
tp2792
sS'sec_merge_add'
p2793
(L135217376L
L135217468L
tp2794
sS'bfd_elf_gc_common_final_link'
p2795
(L135072384L
L135072442L
tp2796
sS'demangle_template'
p2797
(L135226960L
L135228561L
tp2798
sS'sub_807F240'
p2799
(L134738496L
L134738661L
tp2800
sS'OP_EX_Vex'
p2801
(L134770592L
L134770655L
tp2802
sS'coff_get_symtab_upper_bound'
p2803
(L134799696L
L134799751L
tp2804
sS'find_cu_tu_set'
p2805
(L134624256L
L134624413L
tp2806
sS'debug_make_struct_type'
p2807
(L134655856L
L134656014L
tp2808
sS'bfd_elf_size_dynamic_sections'
p2809
(L135039296L
L135044967L
tp2810
sS'tekhex_canonicalize_symtab'
p2811
(L134857808L
L134857863L
tp2812
sS'VPCMP_Fixup'
p2813
(L134756192L
L134756466L
tp2814
sS'writesym'
p2815
(L134858688L
L134858807L
tp2816
sS'_bfd_elf_parse_attributes'
p2817
(L135076912L
L135077609L
tp2818
sS'_bfd_nocore_core_file_pid'
p2819
(L134816192L
L134816213L
tp2820
sS'FXSAVE_Fixup'
p2821
(L134768864L
L134768924L
tp2822
sS'REP_Fixup'
p2823
(L134752848L
L134752973L
tp2824
sS'htab_empty'
p2825
(L135295680L
L135295915L
tp2826
sS'debug_set_filename'
p2827
(L134652992L
L134653174L
tp2828
sS'compute_bucket_count'
p2829
(L134996768L
L134997359L
tp2830
sS'ieee_typedef_type'
p2831
(L134688336L
L134688541L
tp2832
sS'_bfd_coff_read_internal_relocs'
p2833
(L134799872L
L134800400L
tp2834
sS'resolve_symbol'
p2835
(L135007824L
L135008155L
tp2836
sS'pr_empty_type'
p2837
(L134636112L
L134636129L
tp2838
sS'ieee_add_range'
p2839
(L134686880L
L134687094L
tp2840
sS'_bfd_elf_single_rel_hdr'
p2841
(L134943376L
L134943448L
tp2842
sS'elfcore_write_prstatus'
p2843
(L134991136L
L134991364L
tp2844
sS'debug_get_type_kind'
p2845
(L134659008L
L134659046L
tp2846
sS'_bfd_pei_swap_lineno_out'
p2847
(L135160288L
L135160352L
tp2848
sS'd_print_comp_inner'
p2849
(L135247520L
L135261009L
tp2850
sS'_bfd_coff_link_add_symbols'
p2851
(L135185280L
L135185360L
tp2852
sS'bfd_link_hash_lookup'
p2853
(L134837200L
L134837275L
tp2854
sS'bfd_elf32_core_file_failing_signal'
p2855
(L134930928L
L134930947L
tp2856
sS'_bfd_elf_symbol_refs_local_p'
p2857
(L135024000L
L135024179L
tp2858
sS'simple_dummy_einfo'
p2859
(L134884336L
L134884338L
tp2860
sS'_bfd_elf_strtab_offset'
p2861
(L135079680L
L135079840L
tp2862
sS'bfd_printable_name'
p2863
(L134790512L
L134790523L
tp2864
sS'aout_32_link_hash_newfunc'
p2865
(L135102576L
L135102674L
tp2866
sS'ieee_write_undefined_tag'
p2867
(L134694080L
L134694681L
tp2868
sS'debug_end_function'
p2869
(L134653984L
L134654138L
tp2870
sS'dupargv'
p2871
(L135279136L
L135279306L
tp2872
sS'_bfd_elf_make_dynamic_reloc_section'
p2873
(L135074192L
L135074354L
tp2874
sS'_bfd_pe_only_swap_filehdr_out'
p2875
(L135163808L
L135163992L
tp2876
sS'elf_link_output_sym'
p2877
(L135003776L
L135004188L
tp2878
sS'display_debug_loc'
p2879
(L134601344L
L134605368L
tp2880
sS'opncls_bmmap'
p2881
(L134819968L
L134819974L
tp2882
sS'bfd_sections_find_if'
p2883
(L134827376L
L134827460L
tp2884
sS'_bfd_coff_is_local_label_name'
p2885
(L134811296L
L134811322L
tp2886
sS'bfd_arch_i386_fill'
p2887
(L135203376L
L135203569L
tp2888
sS'process_debug_info'
p2889
(L134592912L
L134598723L
tp2890
sS'pr_end_block'
p2891
(L134638960L
L134639100L
tp2892
sS'vma_compare'
p2893
(L135081520L
L135081575L
tp2894
sS'setup_archive'
p2895
(L134739712L
L134740514L
tp2896
sS'elfcore_write_s390_prefix'
p2897
(L134992096L
L134992163L
tp2898
sS'debug_record_line'
p2899
(L134654608L
L134654965L
tp2900
sS'BadOp'
p2901
(L134749696L
L134749738L
tp2902
sS'objdump_print_symname'
p2903
(L134536752L
L134536894L
tp2904
sS'debug_make_reference_type'
p2905
(L134656464L
L134656508L
tp2906
sS'xrealloc'
p2907
(L135301952L
L135302018L
tp2908
sS'linux_tally_symbols'
p2909
(L135100384L
L135101114L
tp2910
sS'null_error_handler'
p2911
(L134797888L
L134797890L
tp2912
sS'_bfd_generic_link_just_syms'
p2913
(L134839568L
L134839602L
tp2914
sS'opncls_bstat'
p2915
(L134819984L
L134820118L
tp2916
sS'_bfd_elf_attr_strdup'
p2917
(L135076032L
L135076090L
tp2918
sS'_bfd_nocore_core_file_failing_signal'
p2919
(L134816160L
L134816181L
tp2920
sS'eval_symbol'
p2921
(L135008160L
L135013123L
tp2922
sS'binary_get_symbol_info'
p2923
(L134856624L
L134856645L
tp2924
sS'objdump_sprintf'
p2925
(L134532272L
L134532382L
tp2926
sS'bfd_hash_table_init'
p2927
(L134833632L
L134833676L
tp2928
sS'reconcat'
p2929
(L135281344L
L135281509L
tp2930
sS'elf_vxworks_gott_symbol_p'
p2931
(L134919344L
L134919424L
tp2932
sS'debug_end_common_block'
p2933
(L134655056L
L134655126L
tp2934
sS'coff_section_from_bfd_index'
p2935
(L134799616L
L134799694L
tp2936
sS'coff_get_symbol_info'
p2937
(L134809328L
L134809397L
tp2938
sS'bfd_0'
p2939
(L134815968L
L134815971L
tp2940
sS'_bfd_elf_link_lookup_local_dynindx'
p2941
(L135021744L
L135021806L
tp2942
sS'bfd_generic_merge_sections'
p2943
(L135211808L
L135211814L
tp2944
sS'bfd_malloc2'
p2945
(L134816320L
L134816431L
tp2946
sS'_bfd_generic_set_section_contents'
p2947
(L134818976L
L134819092L
tp2948
sS'elfcore_write_prpsinfo'
p2949
(L134990048L
L134990331L
tp2950
sS'cache_bread'
p2951
(L135206640L
L135207184L
tp2952
sS'_bfd_pei_swap_lineno_in'
p2953
(L135160224L
L135160275L
tp2954
sS'elf_swap_ehdr_out'
p2955
(L134923312L
L134923648L
tp2956
sS'debug_get_target_type'
p2957
(L134659344L
L134659419L
tp2958
sS'__divdi3'
p2959
(L135302192L
L135302562L
tp2960
sS'out'
p2961
(L134858336L
L134858683L
tp2962
sS'_bfd_generic_link_add_one_symbol'
p2963
(L134840432L
L134842914L
tp2964
sS'bfd_coff_get_auxent'
p2965
(L134809552L
L134809841L
tp2966
sS'nacl_final_write_processing'
p2967
(L134918992L
L134919331L
tp2968
sS'_bfd_elf_swap_vernaux_out'
p2969
(L134937520L
L134937640L
tp2970
sS'disassembler_usage'
p2971
(L134741968L
L134741973L
tp2972
sS'bfd_putl16'
p2973
(L134817280L
L134817297L
tp2974
sS'binary_set_section_contents'
p2975
(L134857200L
L134857464L
tp2976
sS'memory_bmmap'
p2977
(L134795760L
L134795766L
tp2978
sS'OP_STi'
p2979
(L134748768L
L134748826L
tp2980
sS'sub_807F2F0'
p2981
(L134738672L
L134739189L
tp2982
sS'_bfd_elf_write_section_eh_frame_hdr'
p2983
(L135093360L
L135094362L
tp2984
sS'bfd_bwrite'
p2985
(L134796928L
L134797040L
tp2986
sS'bfd_get_sign_extend_vma'
p2987
(L134793520L
L134793778L
tp2988
sS'bfd_plugin_object_p'
p2989
(L135202656L
L135203015L
tp2990
sS'coff_write_object_contents'
p2991
(L135142064L
L135146361L
tp2992
sS'OP_XS'
p2993
(L134770560L
L134770581L
tp2994
sS'bfd_0u'
p2995
(L134815984L
L134815987L
tp2996
sS'bfd_0l'
p2997
(L134816000L
L134816003L
tp2998
sS'get_program_header_size'
p2999
(L134933296L
L134933753L
tp3000
sS'debug_make_pointer_type'
p3001
(L134656304L
L134656372L
tp3002
sS'elfcore_write_s390_todcmp'
p3003
(L134991856L
L134991923L
tp3004
sS'd_template_args'
p3005
(L135273856L
L135274130L
tp3006
sS'elf_sym_name_compare'
p3007
(L134996240L
L134996267L
tp3008
sS'ihex_write_record'
p3009
(L134861920L
L134862293L
tp3010
sS'_bfd_get_gp_value'
p3011
(L134793984L
L134794058L
tp3012
sS'coff_canonicalize_reloc'
p3013
(L135138880L
L135139736L
tp3014
sS'debug_make_baseclass'
p3015
(L134657072L
L134657118L
tp3016
sS'debug_record_variable'
p3017
(L134655440L
L134655683L
tp3018
sS'elf_final_link_free'
p3019
(L135013136L
L135013381L
tp3020
sS'savestring'
p3021
(L134686240L
L134686292L
tp3022
sS'elf_vxworks_link_output_symbol_hook'
p3023
(L134919696L
L134919766L
tp3024
sS'elf_link_check_versioned_symbol'
p3025
(L135002304L
L135003176L
tp3026
sS'init_reloc_cookie_for_section'
p3027
(L135022624L
L135022845L
tp3028
sS'substitute_type'
p3029
(L134628176L
L134628562L
tp3030
sS'coff_object_p'
p3031
(L134806688L
L134807152L
tp3032
sS'make_relative_prefix_ignore_links'
p3033
(L135299984L
L135300009L
tp3034
sS'bfd_emul_set_commonpagesize'
p3035
(L134795040L
L134795125L
tp3036
sS'putop'
p3037
(L134742624L
L134747496L
tp3038
sS'bfd_getb_signed_16'
p3039
(L134817184L
L134817209L
tp3040
sS'_bfd_dummy_target'
p3041
(L134816224L
L134816245L
tp3042
sS'cache_bseek'
p3043
(L135206288L
L135206377L
tp3044
sS'coff_get_slot'
p3045
(L134726464L
L134726796L
tp3046
sS'OP_REG_VexI4'
p3047
(L134754240L
L134754415L
tp3048
sS'gnu_special'
p3049
(L135241552L
L135243127L
tp3050
sS'tekhex_sizeof_headers'
p3051
(L134858032L
L134858035L
tp3052
sS'get_DW_TAG_name'
p3053
(L135288800L
L135290254L
tp3054
sS'arange_add'
p3055
(L134868624L
L134868813L
tp3056
sS'bfd_set_reloc'
p3057
(L134791776L
L134791795L
tp3058
sS'prefix_name'
p3059
(L134742208L
L134742545L
tp3060
sS'bfd_plugin_get_symtab_upper_bound'
p3061
(L135201568L
L135201632L
tp3062
sS'debug_get_type_size'
p3063
(L134659104L
L134659181L
tp3064
sS'bfd_plugin_get_symbol_info'
p3065
(L135201856L
L135201877L
tp3066
sS'real_fseek'
p3067
(L134796640L
L134796645L
tp3068
sS'concat_copy2'
p3069
(L135281088L
L135281174L
tp3070
sS'srec_canonicalize_symtab'
p3071
(L134849792L
L134849969L
tp3072
sS'_bfd_free_cached_info'
p3073
(L134821776L
L134821880L
tp3074
sS'get_archive_member_name_at'
p3075
(L134740736L
L134740972L
tp3076
sS'stab_emit_pending_vars'
p3077
(L134660848L
L134660964L
tp3078
sS'elf_vxworks_emit_relocs'
p3079
(L134919776L
L134920172L
tp3080
sS'set_cplus_marker_for_demangling'
p3081
(L135223216L
L135223226L
tp3082
sS'ihex_object_p'
p3083
(L134863632L
L134866030L
tp3084
sS'_bfd_elf_match_sections_by_type'
p3085
(L135050432L
L135050522L
tp3086
sS'emit_stringtab'
p3087
(L135102448L
L135102573L
tp3088
sS'_bfd_default_error_handler'
p3089
(L134792432L
L134793454L
tp3090
sS'load_specific_debug_section'
p3091
(L134551680L
L134551946L
tp3092
sS'_bfd_pe_bfd_copy_private_bfd_data_common'
p3093
(L135177120L
L135177675L
tp3094
sS'_bfd_elf_gc_mark_rsec'
p3095
(L135068416L
L135068661L
tp3096
sS'_bfd_coff_link_hash_table_init'
p3097
(L135185024L
L135185174L
tp3098
sS'elf_i386_grok_psinfo'
p3099
(L134888656L
L134889018L
tp3100
sS'obj_attr_size'
p3101
(L135074752L
L135074848L
tp3102
sS'_bfd_elf_link_size_reloc_section'
p3103
(L135003184L
L135003295L
tp3104
sS'cache_bflush'
p3105
(L135206192L
L135206280L
tp3106
sS'core_file_matches_executable_p'
p3107
(L135207376L
L135207446L
tp3108
sS'd_substitution'
p3109
(L135246336L
L135246843L
tp3110
sS'elf_renumber_gnu_hash_syms'
p3111
(L135000240L
L135000508L
tp3112
sS'objalloc_create'
p3113
(L135300752L
L135300848L
tp3114
sS'ieee_name_type_newfunc'
p3115
(L134686640L
L134686730L
tp3116
sS'sort_by_secaddr'
p3117
(L135130624L
L135130658L
tp3118
sS'htab_find_slot'
p3119
(L135296768L
L135296816L
tp3120
sS'list_supported_architectures'
p3121
(L134732816L
L134733029L
tp3122
sS'display_block'
p3123
(L134555312L
L134555538L
tp3124
sS'bfd_default_reloc_type_lookup'
p3125
(L135211456L
L135211608L
tp3126
sS'aout_32_reloc_name_lookup'
p3127
(L135110672L
L135110779L
tp3128
sS'_bfd_elf_link_omit_section_dynsym'
p3129
(L135021808L
L135022002L
tp3130
sS'print_insn_i386'
p3131
(L134773040L
L134773060L
tp3132
sS'ieee_end_block'
p3133
(L134700560L
L134700840L
tp3134
sS'append_parent'
p3135
(L134633776L
L134633950L
tp3136
sS'_bfd_elf_merge_unknown_attribute_low'
p3137
(L135078032L
L135078244L
tp3138
sS'MOVBE_Fixup'
p3139
(L134768624L
L134768851L
tp3140
sS'd_name'
p3141
(L135274144L
L135275205L
tp3142
sS'pop_type'
p3143
(L134626144L
L134626212L
tp3144
sS'ieee_reference_type'
p3145
(L134702352L
L134702390L
tp3146
sS'htab_create'
p3147
(L135295392L
L135295459L
tp3148
sS'coff_sizeof_headers'
p3149
(L134812848L
L134812904L
tp3150
sS'_bfd_generic_get_section_contents'
p3151
(L134818592L
L134818939L
tp3152
sS'bfd_fill_in_gnu_debuglink_section'
p3153
(L134824896L
L134825303L
tp3154
sS'elf_swap_ehdr_in'
p3155
(L134923024L
L134923299L
tp3156
sS'bfd_plugin_bfd_copy_private_bfd_data'
p3157
(L135201824L
L135201856L
tp3158
sS'_bfd_elf_link_find_version_dependencies'
p3159
(L135001952L
L135002301L
tp3160
sS'OP_EX'
p3161
(L134770176L
L134770551L
tp3162
sS'free_split_directories'
p3163
(L135298224L
L135298280L
tp3164
sS'find_debug_info'
p3165
(L134868480L
L134868614L
tp3166
sS'move_section_contents'
p3167
(L134859808L
L134860065L
tp3168
sS'OP_EM'
p3169
(L134761008L
L134761279L
tp3170
sS'adjust_relative_path'
p3171
(L134774688L
L134775372L
tp3172
sS'find_chunk'
p3173
(L134858048L
L134858186L
tp3174
sS'_bfd_elf_gc_mark_reloc'
p3175
(L135069104L
L135069224L
tp3176
sS'bfd_emul_get_commonpagesize'
p3177
(L134794976L
L134795026L
tp3178
sS'hash_pointer'
p3179
(L135294096L
L135294221L
tp3180
sS'copy_name'
p3181
(L134797904L
L134798000L
tp3182
sS'htab_expand'
p3183
(L135294368L
L135294899L
tp3184
sS'stab_demangle_v3_arglist'
p3185
(L134664928L
L134665271L
tp3186
sS'dwarf_select_sections_by_letters'
p3187
(L134624976L
L134625283L
tp3188
sS'_bfd_elf_section_offset'
p3189
(L134994160L
L134994303L
tp3190
sS'debug_make_field'
p3191
(L134657120L
L134657278L
tp3192
sS'coff_set_section_contents'
p3193
(L135133200L
L135133482L
tp3194
sS'bfd_elf32_swap_phdr_in'
p3195
(L134926192L
L134926391L
tp3196
sS'sec_merge_hash_lookup'
p3197
(L135216896L
L135217372L
tp3198
sS'OP_XMM_Vex'
p3199
(L134751808L
L134751871L
tp3200
sS'string_need'
p3201
(L135221616L
L135221716L
tp3202
sS'_bfd_elf_set_section_contents'
p3203
(L134975248L
L134975393L
tp3204
sS'aout_32_machine_type'
p3205
(L135112288L
L135112965L
tp3206
sS'frame_dummy'
p3207
(L134529488L
L134529533L
tp3208
sS'read_attribute_value'
p3209
(L134869296L
L134870740L
tp3210
sS'OP_IMREG'
p3211
(L134752448L
L134752841L
tp3212
sS'dlang_function_args'
p3213
(L135287888L
L135288199L
tp3214
sS'snarf_numeric_literal'
p3215
(L135222096L
L135222259L
tp3216
sS'bfd_write_bigendian_4byte_int'
p3217
(L134817008L
L134817118L
tp3218
sS'getsym'
p3219
(L134857696L
L134857802L
tp3220
sS'hex_init'
p3221
(L135297936L
L135297938L
tp3222
sS'tekhex_object_p'
p3223
(L134861536L
L134861754L
tp3224
sS'aout_32_slurp_reloc_table'
p3225
(L135119584L
L135120096L
tp3226
sS'bfd_set_gp_size'
p3227
(L134793904L
L134793982L
tp3228
sS'bfd_follow_gnu_debugaltlink'
p3229
(L134824704L
L134824730L
tp3230
sS'xcrealloc'
p3231
(L134624512L
L134624557L
tp3232
sS'coff_link_output_has_begun'
p3233
(L135130736L
L135130751L
tp3234
sS'_bfd_fix_excluded_sec_syms'
p3235
(L134849024L
L134849062L
tp3236
sS'bfd_putl64'
p3237
(L134818224L
L134818301L
tp3238
sS'tekhex_set_section_contents'
p3239
(L134860080L
L134860153L
tp3240
sS'ieee_builtin_type'
p3241
(L134712864L
L134714078L
tp3242
sS'stab_find_slot'
p3243
(L134660976L
L134661390L
tp3244
sS'forget_types'
p3245
(L135221344L
L135221428L
tp3246
sS'linux_finish_dynamic_link'
p3247
(L135096624L
L135097586L
tp3248
sS'dlang_value'
p3249
(L135284128L
L135285208L
tp3250
sS'_bfd_default_assert_handler'
p3251
(L134791312L
L134791319L
tp3252
sS'bfd_get_section_by_name'
p3253
(L134825792L
L134825852L
tp3254
sS'elf_i386_is_local_label_name'
p3255
(L134900176L
L134900220L
tp3256
sS'_bfd_elf_swap_versym_out'
p3257
(L134937680L
L134937711L
tp3258
sS'debug_set_class_id'
p3259
(L134648320L
L134648601L
tp3260
sS'_bfd_elfcore_make_pseudosection'
p3261
(L134976000L
L134976329L
tp3262
sS'bfd_plugin_bfd_copy_private_section_data'
p3263
(L135201792L
L135201824L
tp3264
sS'_bfd_link_hash_table_init'
p3265
(L134837072L
L134837193L
tp3266
sS'bfd_i386linux_size_dynamic_sections'
p3267
(L135101808L
L135102031L
tp3268
sS'_bfd_elf_swap_verneed_in'
p3269
(L134937168L
L134937266L
tp3270
sS'free_debug_section'
p3271
(L134551600L
L134551678L
tp3272
sS'comp_unit_maybe_decode_line_info'
p3273
(L134876704L
L134876819L
tp3274
sS'_bfd_elf_is_function_type'
p3275
(L134995296L
L134995313L
tp3276
sS'tg_start_block'
p3277
(L134637440L
L134637985L
tp3278
sS'ieee_range_type'
p3279
(L134691984L
L134692164L
tp3280
sS'pr_set_type'
p3281
(L134633440L
L134633562L
tp3282
sS'get_DW_OP_name'
p3283
(L135293552L
L135293578L
tp3284
sS'bfd_elf_perform_complex_relocation'
p3285
(L135050528L
L135051335L
tp3286
sS'__moddi3'
p3287
(L135302576L
L135303026L
tp3288
sS'parse_coff_type'
p3289
(L134727280L
L134729171L
tp3290
sS'_bfd_elf_fixup_group_sections'
p3291
(L134961168L
L134961372L
tp3292
sS'tekhex_write_object_contents'
p3293
(L134860480L
L134861205L
tp3294
sS'writeargv'
p3295
(L135279952L
L135280114L
tp3296
sS'stash_maybe_update_info_hash_tables'
p3297
(L134877344L
L134877854L
tp3298
sS'simple_dummy_unattached_reloc'
p3299
(L134884304L
L134884310L
tp3300
sS'__do_global_dtors_aux'
p3301
(L134529456L
L134529486L
tp3302
sS'check_for_relocs'
p3303
(L135201376L
L135201482L
tp3304
sS'_bfd_elf_merge_object_attributes'
p3305
(L135077616L
L135078018L
tp3306
sS'trad_unix_core_file_failing_command'
p3307
(L135203760L
L135203789L
tp3308
sS'read_section'
p3309
(L134866784L
L134867242L
tp3310
sS'_bfd_archive_coff_construct_extended_name_table'
p3311
(L134782480L
L134782519L
tp3312
sS'bfd_cache_delete'
p3313
(L135204608L
L135204718L
tp3314
sS'cplus_demangle_fill_component'
p3315
(L135281520L
L135281588L
tp3316
sS'ieee_start_block'
p3317
(L134707024L
L134708072L
tp3318
sS'elf_append_rela'
p3319
(L135074448L
L135074568L
tp3320
sS'dump_relocs_in_section'
p3321
(L134544576L
L134544932L
tp3322
sS'objdump_symbol_at_address'
p3323
(L134530672L
L134530727L
tp3324
sS'_bfd_pei_final_link_postscript'
p3325
(L135177904L
L135180757L
tp3326
sS'OP_MS'
p3327
(L134761280L
L134761301L
tp3328
sS'simple_restore_output_info'
p3329
(L134884416L
L134884450L
tp3330
sS'bfd_plugin_bfd_copy_private_symbol_data'
p3331
(L135201760L
L135201792L
tp3332
sS'delete_non_B_K_work_stuff'
p3333
(L135221440L
L135221606L
tp3334
sS'bfd_bsd_truncate_arname'
p3335
(L134783376L
L134783496L
tp3336
sS'debug_get_field_visibility'
p3337
(L134659616L
L134659634L
tp3338
sS'stab_find_type'
p3339
(L134661392L
L134662615L
tp3340
sS'_bfd_set_gp_value'
p3341
(L134794064L
L134794179L
tp3342
sS'write_ieee_debugging_info'
p3343
(L134725104L
L134726461L
tp3344
sS'compare_symbols'
p3345
(L134531696L
L134532263L
tp3346
sS'tg_enum_type'
p3347
(L134640208L
L134640562L
tp3348
sS'cplus_demangle_init_info'
p3349
(L135278816L
L135278907L
tp3350
sS'pe_mkobject_hook'
p3351
(L135133792L
L135134009L
tp3352
sS'string_appends'
p3353
(L135222272L
L135222332L
tp3354
sS'_bfd_elf_gc_mark_extra_sections'
p3355
(L135069232L
L135069622L
tp3356
sS'stab_demangle_qualified'
p3357
(L134669456L
L134670329L
tp3358
sS'string_appendn'
p3359
(L135221728L
L135221776L
tp3360
sS'cplus_demangle_fill_dtor'
p3361
(L135266704L
L135266764L
tp3362
sS'_bfd_dwarf2_slurp_debug_info'
p3363
(L134878864L
L134880491L
tp3364
sS'cplus_demangle_v3'
p3365
(L135278912L
L135278936L
tp3366
sS'bfd_cache_close_all'
p3367
(L135205072L
L135205150L
tp3368
sS'_bfd_merge_sections_free'
p3369
(L135220320L
L135220369L
tp3370
sS'usage'
p3371
(L134530736L
L134531211L
tp3372
sS'ieee_read_cxx_misc'
p3373
(L134520477L
L134526026L
tp3374
sS'bfd_new_link_order'
p3375
(L134846048L
L134846124L
tp3376
sS'tg_end_block'
p3377
(L134625536L
L134625542L
tp3378
sS'ieee_class_method_variant'
p3379
(L134708608L
L134708671L
tp3380
sS'ieee_int_type'
p3381
(L134688720L
L134688898L
tp3382
sS'elf32_generic_link_add_symbols'
p3383
(L135201296L
L135201367L
tp3384
sS'display_debug_macro'
p3385
(L134608768L
L134614205L
tp3386
sS'elf_add_dt_needed_tag'
p3387
(L135024512L
L135024927L
tp3388
sS'_bfd_elf_relocs_compatible'
p3389
(L135024944L
L135025007L
tp3390
sS'ieee_class_baseclass'
p3391
(L134703744L
L134704432L
tp3392
sS'elfcore_write_register_note'
p3393
(L134992736L
L134993724L
tp3394
sS'elf_slurp_reloc_table_from_section'
p3395
(L134924976L
L134925615L
tp3396
sS'_bfd_elf_section_already_linked'
p3397
(L135073088L
L135074005L
tp3398
sS'demangle_function_name'
p3399
(L135237568L
L135238858L
tp3400
sS'generic_link_check_archive_element'
p3401
(L134843552L
L134844031L
tp3402
sS'_bfd_generic_link_add_symbols_collect'
p3403
(L134843536L
L134843551L
tp3404
sS'OP_Vex_2src'
p3405
(L134769072L
L134769211L
tp3406
sS'ieee_start_struct_type'
p3407
(L134696224L
L134696952L
tp3408
sS'bfd_elf_obj_attr_size'
p3409
(L135075392L
L135075443L
tp3410
sS'buffer_read_memory'
p3411
(L134773760L
L134773875L
tp3412
sS'htab_clear_slot'
p3413
(L135296944L
L135297018L
tp3414
sS'_bfd_elf_merge_unknown_attribute_list'
p3415
(L135078256L
L135078535L
tp3416
sS'_bfd_elf_swap_verdef_in'
p3417
(L134936736L
L134936866L
tp3418
sS'read_debugging_info'
p3419
(L134643568L
L134645617L
tp3420
sS'_bfd_elf_eh_frame_address_size'
p3421
(L135094368L
L135094396L
tp3422
sS'finish_stab'
p3423
(L134682160L
L134682324L
tp3424
sS'elfcore_write_aarch_tls'
p3425
(L134992496L
L134992563L
tp3426
sS'bfd_coff_get_syment'
p3427
(L134809408L
L134809552L
tp3428
sS'rsrc_count_directory'
p3429
(L135149856L
L135150302L
tp3430
sS'_bfd_generic_read_ar_hdr'
p3431
(L134777392L
L134777419L
tp3432
sS'aout_32_slurp_symbol_table'
p3433
(L135116176L
L135116407L
tp3434
sS'coff_i386_reloc'
p3435
(L135131136L
L135131551L
tp3436
sS'stab_find_tagged_type'
p3437
(L134662624L
L134662875L
tp3438
sS'OP_MXC'
p3439
(L134749632L
L134749691L
tp3440
sS'dlang_parse_integer'
p3441
(L135282928L
L135283590L
tp3442
sS'_bfd_elf_copy_link_hash_symbol_type'
p3443
(L135074368L
L135074436L
tp3444
sS'bfd_elf_gnu_hash'
p3445
(L134937776L
L134937822L
tp3446
sS'htab_remove_elt'
p3447
(L135296896L
L135296936L
tp3448
sS'elfcore_write_xstatereg'
p3449
(L134991536L
L134991603L
tp3450
sS'__udivdi3'
p3451
(L135303040L
L135303332L
tp3452
sS'_bfd_elf_strtab_size'
p3453
(L135079664L
L135079680L
tp3454
sS'bfd_section_init'
p3455
(L134825312L
L134825432L
tp3456
sS'debug_find_tagged_type'
p3457
(L134658848L
L134658999L
tp3458
sS'_bfd_elf_strtab_init'
p3459
(L135078768L
L135078892L
tp3460
sS'bfd_void'
p3461
(L134816048L
L134816050L
tp3462
sS'display_debug_ranges'
p3463
(L134599744L
L134601343L
tp3464
sS'elf_swap_shdr_in'
p3465
(L134923648L
L134923864L
tp3466
sS'elf_link_adjust_relocs'
p3467
(L134526026L
L134526425L
tp3468
sS'elf_sort_sections'
p3469
(L134932448L
L134932620L
tp3470
sS'htab_elements'
p3471
(L135294928L
L135294939L
tp3472
sS'verilog_set_arch_mach'
p3473
(L134887168L
L134887205L
tp3474
sS'parse_stab_type_number'
p3475
(L134665280L
L134665396L
tp3476
sS'bfd_plugin_core_file_pid'
p3477
(L135201632L
L135201661L
tp3478
sS'd_print_expr_op'
p3479
(L135265984L
L135266169L
tp3480
sS'MY_final_link_callback'
p3481
(L135096304L
L135096610L
tp3482
sS'_bfd_elf_link_hash_table_init'
p3483
(L135049552L
L135049662L
tp3484
sS'debug_name_type'
p3485
(L134657808L
L134658026L
tp3486
sS'bfd_elf_allocate_object'
p3487
(L134937824L
L134938002L
tp3488
sS'debug_record_function'
p3489
(L134653408L
L134653753L
tp3490
sS'dwarf_vmatoa64'
p3491
(L134559504L
L134559697L
tp3492
sS'_bfd_pei_swap_aux_in'
p3493
(L135158816L
L135159504L
tp3494
sS'elfcore_write_s390_tdb'
p3495
(L134992336L
L134992403L
tp3496
sS'coff_print_aux'
p3497
(L135135888L
L135135966L
tp3498
sS'bfd_canonicalize_reloc'
p3499
(L134792240L
L134792303L
tp3500
sS'cie_eq'
p3501
(L135081248L
L135081511L
tp3502
sS'_bfd_stringtab_size'
p3503
(L134835808L
L134835816L
tp3504
sS'_bfd_elf_check_kept_section'
p3505
(L135051424L
L135051586L
tp3506
sS'stab_demangle_class'
p3507
(L134665408L
L134665543L
tp3508
sS'coff_compute_section_file_positions'
p3509
(L135131680L
L135133199L
tp3510
sS'_bfd_elf_compute_section_file_positions'
p3511
(L134946976L
L134959643L
tp3512
sS'_bfd_stringtab_init'
p3513
(L134835296L
L134835412L
tp3514
sS'_bfd_elf_get_symbol_info'
p3515
(L134974224L
L134974245L
tp3516
sS'bfd_get_archive_filename'
p3517
(L134735280L
L134735528L
tp3518
sS'__x86.get_pc_thunk.bx'
p3519
(L134529328L
L134529332L
tp3520
sS'bfd_getl_signed_32'
p3521
(L134817456L
L134817493L
tp3522
sS'dlang_parse_symbol'
p3523
(L135286256L
L135286727L
tp3524
sS'd_parmlist'
p3525
(L135269344L
L135269544L
tp3526
sS'load_debug_section'
p3527
(L134551952L
L134552080L
tp3528
sS'htab_set_functions_ex'
p3529
(L135295344L
L135295390L
tp3530
sS'__libc_csu_init'
p3531
(L135303696L
L135303793L
tp3532
sS'_bfd_coff_generic_relocate_section'
p3533
(L135199904L
L135201254L
tp3534
sS'display_debug_lines'
p3535
(L134571056L
L134581655L
tp3536
sS'bfd_mmap'
p3537
(L134797808L
L134797877L
tp3538
sS'_bfd_discard_section_stabs'
p3539
(L135215024L
L135215746L
tp3540
sS'ieee_alloc_type'
p3541
(L134686304L
L134686591L
tp3542
sS'bfd_get_assert_handler'
p3543
(L134791760L
L134791766L
tp3544
sS'cplus_demangle_v3_callback'
p3545
(L135278944L
L135278969L
tp3546
sS'_bfd_elf_link_create_dynamic_sections'
p3547
(L135013968L
L135014620L
tp3548
sS'bfd_arch_mach_octets_per_byte'
p3549
(L134791248L
L134791305L
tp3550
sS'elf_gc_propagate_vtable_entries_used'
p3551
(L134995632L
L134995826L
tp3552
sS'bfd_getb_signed_32'
p3553
(L134817408L
L134817443L
tp3554
sS'CRC32_Fixup'
p3555
(L134769408L
L134769869L
tp3556
sS'bfd_get_mach'
p3557
(L134790880L
L134790891L
tp3558
sS'rsrc_compute_region_sizes'
p3559
(L135150304L
L135150473L
tp3560
sS'bfd_cache_lookup_worker'
p3561
(L135205456L
L135205765L
tp3562
sS'bfd_putb32'
p3563
(L134818048L
L134818083L
tp3564
sS'bfd_cache_section_contents'
p3565
(L134886160L
L134886202L
tp3566
s.