(dp0
S'get_unwind_section_word'
p1
(L134596912L
L134598519L
tp2
sS'setup_archive'
p3
(L134750240L
L134751042L
tp4
sS'get_64bit_elf_symbols'
p5
(L134542560L
L134543478L
tp6
sS'xcmalloc'
p7
(L134746064L
L134746108L
tp8
sS'regname'
p9
(L134679232L
L134679385L
tp10
sS'get_ia64_section_type_name'
p11
(L134537808L
L134538022L
tp12
sS'xrealloc'
p13
(L134759632L
L134759698L
tp14
sS'display_debug_not_supported'
p15
(L134674080L
L134674149L
tp16
sS'display_debug_pubnames_worker'
p17
(L134726976L
L134728552L
tp18
sS'display_debug_ranges'
p19
(L134721344L
L134722943L
tp20
sS'dwarf_vmatoa_1'
p21
(L134676592L
L134676856L
tp22
sS'adjust_relative_path'
p23
(L134750016L
L134750240L
tp24
sS'arm_print_vma_and_name'
p25
(L134616688L
L134616946L
tp26
sS'unw_decode_b3_x4'
p27
(L134673344L
L134673874L
tp28
sS'sub_8081AC0'
p29
(L134748864L
L134749021L
tp30
sS'read_cie'
p31
(L134703264L
L134704278L
tp32
sS'print_dynamic_symbol'
p33
(L134599216L
L134599758L
tp34
sS'get_dynamic_type'
p35
(L134528000L
L134529791L
tp36
sS'get_32bit_section_headers'
p37
(L134543488L
L134544157L
tp38
sS'unw_decode_x3'
p39
(L134670928L
L134671324L
tp40
sS'frame_need_space'
p41
(L134674160L
L134674431L
tp42
sS'apply_relocations'
p43
(L134545568L
L134550336L
tp44
sS'usage'
p45
(L134531840L
L134532179L
tp46
sS'get_archive_member_name_at'
p47
(L134751264L
L134751500L
tp48
sS'get_symbol_binding'
p49
(L134539712L
L134539930L
tp50
sS'find_symbol_for_address'
p51
(L134539296L
L134539712L
tp52
sS'process_cu_tu_index'
p53
(L134681312L
L134684426L
tp54
sS'process_attributes'
p55
(L134568048L
L134570566L
tp56
sS'get_ia64_dynamic_type'
p57
(L134521680L
L134522302L
tp58
sS'xmalloc_set_program_name'
p59
(L134759312L
L134759365L
tp60
sS'read_and_display_attr_value'
p61
(L134704288L
L134714501L
tp62
sS'display_debug_macro'
p63
(L134730368L
L134735805L
tp64
sS'get_DW_TAG_name'
p65
(L134754256L
L134755710L
tp66
sS'unw_decode_p2_p5'
p67
(L134667968L
L134669189L
tp68
sS'get_reloc_type'
p69
(L134536848L
L134536876L
tp70
sS'get_dynamic_data'
p71
(L134531424L
L134531773L
tp72
sS'unw_print_grmask'
p73
(L134666944L
L134666996L
tp74
sS'cmalloc'
p75
(L134746016L
L134746060L
tp76
sS'get_64bit_section_headers'
p77
(L134544160L
L134544829L
tp78
sS'load_cu_tu_indexes'
p79
(L134684432L
L134684539L
tp80
sS'get_DW_CFA_name'
p81
(L134759072L
L134759095L
tp82
sS'get_parisc_segment_type'
p83
(L134522304L
L134522662L
tp84
sS'unix_lbasename'
p85
(L134759104L
L134759138L
tp86
sS'get_file_type'
p87
(L134524240L
L134524578L
tp88
sS'unw_print_abreg'
p89
(L134669888L
L134670083L
tp90
sS'unw_print_frmask'
p91
(L134667008L
L134667144L
tp92
sS'display_msp430x_attribute'
p93
(L134572160L
L134572967L
tp94
sS'sub_8081EB0'
p95
(L134749872L
L134750002L
tp96
sS'display_sparc_gnu_attribute'
p97
(L134625440L
L134627861L
tp98
sS'dump_section_as_bytes'
p99
(L134551408L
L134552028L
tp100
sS'print_vma'
p101
(L134532624L
L134532996L
tp102
sS'decode_tic6x_unwind_regmask'
p103
(L134536384L
L134536495L
tp104
sS'get_ver_flags'
p105
(L134533840L
L134534153L
tp106
sS'make_qualified_name'
p107
(L134752016L
L134752444L
tp108
sS'display_arm_attribute'
p109
(L134566720L
L134568041L
tp110
sS'__umoddi3'
p111
(L134760464L
L134760807L
tp112
sS'setup_nested_archive'
p113
(L134751136L
L134751259L
tp114
sS'decode_arm_unwind'
p115
(L134616960L
L134623261L
tp116
sS'process_archive_index_and_symbols'
p117
(L134747728L
L134748724L
tp118
sS'get_AT_name'
p119
(L134680752L
L134680879L
tp120
sS'sub_8081C10'
p121
(L134749200L
L134749717L
tp122
sS'unw_decode_p1'
p123
(L134667440L
L134667537L
tp124
sS'__divdi3'
p125
(L134759776L
L134760146L
tp126
sS'print_vms_time'
p127
(L134536240L
L134536371L
tp128
sS'unw_decode_p6'
p129
(L134667552L
L134667716L
tp130
sS'is_32bit_pcrel_reloc'
p131
(L134522672L
L134523146L
tp132
sS'get_FORM_name'
p133
(L134680880L
L134680995L
tp134
sS'process_corefile_note_segment'
p135
(L134606816L
L134612506L
tp136
sS'dwarf_select_sections_by_letters'
p137
(L134746576L
L134746883L
tp138
sS'unw_decode_x1'
p139
(L134670272L
L134670635L
tp140
sS'get_DW_FORM_name'
p141
(L134755712L
L134756150L
tp142
sS'hppa_process_unwind'
p143
(L134612672L
L134616678L
tp144
sS'unw_decode_x2'
p145
(L134670640L
L134670925L
tp146
sS'unw_decode_x4'
p147
(L134671328L
L134671646L
tp148
sS'display_power_gnu_attribute'
p149
(L134566032L
L134566717L
tp150
sS'process_object'
p151
(L134652624L
L134664523L
tp152
sS'ia64_process_unwind'
p153
(L134592208L
L134596901L
tp154
sS'xmalloc_failed'
p155
(L134759376L
L134759499L
tp156
sS'__libc_csu_fini'
p157
(L134760928L
L134760930L
tp158
sS'display_tic6x_attribute'
p159
(L134570576L
L134572157L
tp160
sS'get_TAG_name'
p161
(L134680640L
L134680746L
tp162
sS'display_debug_info'
p163
(L134730336L
L134730368L
tp164
sS'frame_dummy'
p165
(L134519760L
L134519805L
tp166
sS'get_archive_member_name'
p167
(L134751504L
L134752008L
tp168
sS'sub_806F610'
p169
(L134673936L
L134674026L
tp170
sS'freeargv'
p171
(L134752624L
L134752686L
tp172
sS'__udivdi3'
p173
(L134760160L
L134760452L
tp174
sS'print_mips_got_entry'
p175
(L134533232L
L134533596L
tp176
sS'decode_location_expression'
p177
(L134686320L
L134692652L
tp178
sS'__do_global_dtors_aux'
p179
(L134519728L
L134519758L
tp180
sS'read_debug_line_header'
p181
(L134674768L
L134676133L
tp182
sS'process_section_headers'
p183
(L134552512L
L134558330L
tp184
sS'xexit'
p185
(L134759280L
L134759306L
tp186
sS'countargv'
p187
(L134754192L
L134754242L
tp188
sS'buildargv'
p189
(L134752688L
L134753264L
tp190
sS'frame_display_row'
p191
(L134679392L
L134680142L
tp192
sS'xcrealloc'
p193
(L134746112L
L134746157L
tp194
sS'range_entry_compar'
p195
(L134674048L
L134674078L
tp196
sS'init_dwarf_regnames_x86_64'
p197
(L134745664L
L134745685L
tp198
sS'get_DW_SECT_short_name'
p199
(L134680144L
L134680353L
tp200
sS'display_debug_aranges'
p201
(L134728608L
L134730269L
tp202
sS'register_tm_clones'
p203
(L134519664L
L134519719L
tp204
sS'get_note_type'
p205
(L134529792L
L134531413L
tp206
sS'get_encoded_value'
p207
(L134674528L
L134674767L
tp208
sS'free_debug_memory'
p209
(L134746160L
L134746334L
tp210
sS'sub_8081B60'
p211
(L134749024L
L134749189L
tp212
sS'get_machine_name'
p213
(L134524592L
L134527997L
tp214
sS'arm_process_unwind'
p215
(L134623264L
L134625120L
tp216
sS'slurp_rela_relocs'
p217
(L134544832L
L134545559L
tp218
sS'printable_section_name_from_index'
p219
(L134540352L
L134540411L
tp220
sS'unw_decode_r3'
p221
(L134667264L
L134667436L
tp222
sS'unw_decode_r2'
p223
(L134669200L
L134669878L
tp224
sS'unw_decode_r1'
p225
(L134667152L
L134667251L
tp226
sS'sub_8081440'
p227
(L134747200L
L134747717L
tp228
sS'print_addr_index'
p229
(L134681008L
L134681099L
tp230
sS'_start'
p231
(L134519558L
L134519592L
tp232
sS'dos_lbasename'
p233
(L134759152L
L134759225L
tp234
sS'get_DW_ATE_name'
p235
(L134759040L
L134759063L
tp236
sS'display_gdb_index'
p237
(L134677152L
L134679221L
tp238
sS'display_debug_frames'
p239
(L134735808L
L134745624L
tp240
sS'init_dwarf_regnames_aarch64'
p241
(L134745696L
L134745717L
tp242
sS'get_elf_section_flags'
p243
(L134534160L
L134536240L
tp244
sS'get_symbol_index_type'
p245
(L134539936L
L134540343L
tp246
sS'read_leb128'
p247
(L134684560L
L134684815L
tp248
sS'display_debug_pubnames'
p249
(L134728592L
L134728607L
tp250
sS'print_dwarf_vma'
p251
(L134676864L
L134676909L
tp252
sS'unw_print_xyreg'
p253
(L134670096L
L134670260L
tp254
sS'find_section'
p255
(L134523744L
L134523988L
tp256
sS'slurp_rel_relocs'
p257
(L134540944L
L134541623L
tp258
sS'display_trace_info'
p259
(L134730272L
L134730304L
tp260
sS'find_cu_tu_set'
p261
(L134745856L
L134746013L
tp262
sS'get_section_type_name'
p263
(L134538032L
L134539287L
tp264
sS'unw_decode_p7_p10'
p265
(L134671648L
L134673343L
tp266
sS'display_debug_gnu_pubnames'
p267
(L134728560L
L134728578L
tp268
sS'expandargv'
p269
(L134753440L
L134754189L
tp270
sS'dump_relocations'
p271
(L134558336L
L134565674L
tp272
sS'process_file_header'
p273
(L134627872L
L134641207L
tp274
sS'free_debug_section'
p275
(L134652384L
L134652462L
tp276
sS'display_debug_str'
p277
(L134676144L
L134676582L
tp278
sS'warn'
p279
(L134748736L
L134748860L
tp280
sS'display_debug_abbrev'
p281
(L134685248L
L134685684L
tp282
sS'arm_free_section'
p283
(L134552032L
L134552069L
tp284
sS'display_block'
p285
(L134676912L
L134677138L
tp286
sS'get_symbol_other'
p287
(L134598528L
L134599205L
tp288
sS'get_symbol_type'
p289
(L134536880L
L134537381L
tp290
sS'display_debug_str_offsets'
p291
(L134680368L
L134680447L
tp292
sS'main'
p293
(L134517312L
L134519558L
tp294
sS'unw_decode_b2'
p295
(L134667824L
L134667954L
tp296
sS'unw_decode_b1'
p297
(L134667728L
L134667812L
tp298
sS'process_mips_fpe_exception'
p299
(L134536496L
L134536839L
tp300
sS'process_archive'
p301
(L134664528L
L134666714L
tp302
sS'get_DW_OP_name'
p303
(L134759008L
L134759034L
tp304
sS'unw_decode'
p305
(L134673888L
L134673932L
tp306
sS'error'
p307
(L134747072L
L134747196L
tp308
sS'request_dump'
p309
(L134532384L
L134532617L
tp310
sS'offset_from_vma'
p311
(L134574016L
L134574354L
tp312
sS'__x86.get_pc_thunk.bx'
p313
(L134519600L
L134519604L
tp314
sS'writeargv'
p315
(L134753264L
L134753426L
tp316
sS'get_DW_AT_name'
p317
(L134756160L
L134758999L
tp318
sS'get_section_contents'
p319
(L134551248L
L134551402L
tp320
sS'elf_ia64_reloc_type'
p321
(L134519808L
L134521679L
tp322
sS'comp_addr_base'
p323
(L134674032L
L134674047L
tp324
sS'load_debug_section'
p325
(L134652464L
L134652610L
tp326
sS'printable_section_name'
p327
(L134523408L
L134523729L
tp328
sS'xmalloc'
p329
(L134759504L
L134759547L
tp330
sS'print_mips_pltgot_entry'
p331
(L134533600L
L134533825L
tp332
sS'display_debug_macinfo'
p333
(L134685696L
L134686305L
tp334
sS'__libc_csu_init'
p335
(L134760816L
L134760913L
tp336
sS'get_program_headers'
p337
(L134572976L
L134574008L
tp338
sS'lbasename'
p339
(L134759232L
L134759266L
tp340
sS'sub_8081E20'
p341
(L134749728L
L134749869L
tp342
sS'display_debug_addr'
p343
(L134720560L
L134721332L
tp344
sS'get_data'
p345
(L134540416L
L134540933L
tp346
sS'load_debug_info'
p347
(L134720336L
L134720556L
tp348
sS'display_debug_lines'
p349
(L134692656L
L134703255L
tp350
sS'process_abbrev_section'
p351
(L134684816L
L134685236L
tp352
sS'process_version_sections'
p353
(L134582560L
L134587665L
tp354
sS'xstrdup'
p355
(L134759712L
L134759762L
tp356
sS'print_mips_fp_abi_value'
p357
(L134533008L
L134533220L
tp358
sS'init_dwarf_regnames_i386'
p359
(L134745632L
L134745653L
tp360
sS'process_dynamic_section'
p361
(L134574368L
L134582548L
tp362
sS'print_symbol'
p363
(L134552080L
L134552503L
tp364
sS'init_dwarf_regnames'
p365
(L134745728L
L134745850L
tp366
sS'process_symbol_table'
p367
(L134599760L
L134606808L
tp368
sS'display_cu_index'
p369
(L134684544L
L134684558L
tp370
sS'find_section_in_set'
p371
(L134524000L
L134524237L
tp372
sS'get_32bit_elf_symbols'
p373
(L134541632L
L134542550L
tp374
sS'free_abbrevs'
p375
(L134674432L
L134674524L
tp376
sS'request_dump_bynumber'
p377
(L134532192L
L134532378L
tp378
sS'load_specific_debug_section'
p379
(L134550336L
L134551245L
tp380
sS'fetch_indirect_string'
p381
(L134680448L
L134680633L
tp382
sS'process_corefile_note_segments'
p383
(L134612512L
L134612667L
tp384
sS'dupargv'
p385
(L134752448L
L134752618L
tp386
sS'deregister_tm_clones'
p387
(L134519616L
L134519658L
tp388
sS'get_symbol_visibility'
p389
(L134531776L
L134531838L
tp390
sS'dwarf_vmatoa64'
p391
(L134681104L
L134681297L
tp392
sS'process_program_headers'
p393
(L134587680L
L134592197L
tp394
sS'is_64bit_pcrel_reloc'
p395
(L134523152L
L134523402L
tp396
sS'display_debug_loc'
p397
(L134722944L
L134726968L
tp398
sS'xcalloc'
p399
(L134759552L
L134759623L
tp400
sS'process_mips_specific'
p401
(L134641216L
L134652377L
tp402
sS'get_osabi_name'
p403
(L134537392L
L134537794L
tp404
sS'display_tag_value'
p405
(L134565680L
L134566023L
tp406
sS'print_version'
p407
(L134666720L
L134666859L
tp408
sS'display_mips_gnu_attribute'
p409
(L134625120L
L134625431L
tp410
sS'release_archive'
p411
(L134751056L
L134751133L
tp412
sS'process_debug_info'
p413
(L134714512L
L134720323L
tp414
sS'display_debug_types'
p415
(L134730304L
L134730336L
tp416
sS'dwarf_select_sections_all'
p417
(L134746896L
L134747067L
tp418
sS'dwarf_select_sections_by_names'
p419
(L134746336L
L134746567L
tp420
sS'unw_print_brmask'
p421
(L134666864L
L134666936L
tp422
s.