(dp0
S'cplus_demangle_print_callback'
p1
(L135032368L
L135032689L
tp2
sS'elf_link_output_extsym'
p3
(L134759520L
L134763033L
tp4
sS'is_default_attr'
p5
(L134829920L
L134829966L
tp6
sS'i386_aout_linux_set_sizes'
p7
(L134851456L
L134851518L
tp8
sS'writevalue'
p9
(L134613136L
L134613277L
tp10
sS'find_separate_debug_file'
p11
(L134575968L
L134576703L
tp12
sS'elf_i386_local_htab_eq'
p13
(L134643680L
L134643718L
tp14
sS'bfd_default_set_arch_mach'
p15
(L134545856L
L134545930L
tp16
sS'generic_link_add_symbols'
p17
(L134598672L
L134598761L
tp18
sS'strrevcmp_align'
p19
(L134971472L
L134971599L
tp20
sS'_bfd_elf_swap_versym_in'
p21
(L134692864L
L134692895L
tp22
sS'pe_bfd_object_p'
p23
(L134901728L
L134904799L
tp24
sS'aout_link_add_symbols'
p25
(L134857904L
L134859116L
tp26
sS'bfd_set_section_contents'
p27
(L134582784L
L134583043L
tp28
sS'styp_to_sec_flags'
p29
(L134894960L
L134897072L
tp30
sS'dlang_type'
p31
(L135040848L
L135041989L
tp32
sS'_bfd_elf_copy_obj_attributes'
p33
(L134831760L
L134832127L
tp34
sS'bfd_hash_insert'
p35
(L134588960L
L134589478L
tp36
sS'ihex_mkobject'
p37
(L134617024L
L134617095L
tp38
sS'_bfd_xcoff_stringtab_init'
p39
(L134590672L
L134590695L
tp40
sS'rsrc_print_resource_directory'
p41
(L134907728L
L134908500L
tp42
sS'_bfd_elf_strtab_delref'
p43
(L134834512L
L134834668L
tp44
sS'bfd_coff_get_syment'
p45
(L134564240L
L134564384L
tp46
sS'bfd_make_section_old_way'
p47
(L134581712L
L134581963L
tp48
sS'coff_get_lineno'
p49
(L134559376L
L134559384L
tp50
sS'binary_sizeof_headers'
p51
(L134611856L
L134611859L
tp52
sS'bfd_init_section_compress_status'
p53
(L134641936L
L134642110L
tp54
sS'coff_write_symbols'
p55
(L134557264L
L134558933L
tp56
sS'bfd_elf_add_obj_attr_int'
p57
(L134831424L
L134831519L
tp58
sS'bfd_section_already_linked_table_init'
p59
(L134602864L
L134602907L
tp60
sS'simple_dummy_warning'
p61
(L134639456L
L134639462L
tp62
sS'elf_new_obj_attr'
p63
(L134830240L
L134830355L
tp64
sS'_bfd_generic_link_hash_table_free'
p65
(L134591280L
L134591372L
tp66
sS'coff_write_alien_symbol'
p67
(L134556672L
L134557264L
tp68
sS'bfd_generic_stat_arch_elt'
p69
(L134537968L
L134538194L
tp70
sS'bfd_close'
p71
(L134577920L
L134578156L
tp72
sS'd_growable_string_callback_adapter'
p73
(L135002144L
L135002337L
tp74
sS'bfd_arch_i386_short_nop_fill'
p75
(L134958800L
L134958815L
tp76
sS'fix_syms'
p77
(L134604144L
L134604268L
tp78
sS'nacl_modify_segment_map'
p79
(L134673040L
L134673873L
tp80
sS'fatal'
p81
(L134524768L
L134524803L
tp82
sS'write_obj_attribute'
p83
(L134830064L
L134830225L
tp84
sS'd_print_cast'
p85
(L135020176L
L135020811L
tp86
sS'dlang_function_type'
p87
(L135042320L
L135042704L
tp88
sS'bfd_get_full_section_contents'
p89
(L134640624L
L134641364L
tp90
sS'simple_dummy_unattached_reloc'
p91
(L134639520L
L134639526L
tp92
sS'lrealpath'
p93
(L135047392L
L135047487L
tp94
sS'_bfd_elf_strtab_add'
p95
(L134834160L
L134834393L
tp96
sS'generic_core_file_matches_executable_p'
p97
(L134568736L
L134568866L
tp98
sS'_bfd_archive_bsd_construct_extended_name_table'
p99
(L134537264L
L134537303L
tp100
sS'_bfd_elf_export_symbol'
p101
(L134775808L
L134775928L
tp102
sS'strrevcmp_1'
p103
(L134971360L
L134971466L
tp104
sS'_bfd_elf_link_output_relocs'
p105
(L134778368L
L134778773L
tp106
sS'bfd_get_reloc_code_name'
p107
(L134966416L
L134966443L
tp108
sS'tekhex_set_arch_mach'
p109
(L134613488L
L134613543L
tp110
sS'rprint_number'
p111
(L134522288L
L134522426L
tp112
sS'first_phase'
p113
(L134614144L
L134615042L
tp114
sS'bfd_arch_default_fill'
p115
(L134545232L
L134545283L
tp116
sS'_bfd_generic_copy_link_hash_symbol_type'
p117
(L134594864L
L134594866L
tp118
sS'bfd_reloc_type_lookup'
p119
(L134966224L
L134966239L
tp120
sS'coff_symbol_from'
p121
(L134555472L
L134555512L
tp122
sS'demangle_class_name'
p123
(L134989792L
L134989892L
tp124
sS'_bfd_elf_rela_local_sym'
p125
(L134749120L
L134749284L
tp126
sS'd_demangle_callback'
p127
(L135032704L
L135033265L
tp128
sS'coff_canonicalize_symtab'
p129
(L134554592L
L134554698L
tp130
sS'_bfd_generic_reloc_link_order'
p131
(L134600544L
L134601291L
tp132
sS'_bfd_elf_default_relocs_compatible'
p133
(L134780144L
L134780159L
tp134
sS'coff_mangle_symbols'
p135
(L134556272L
L134556657L
tp136
sS'coff_print_aux'
p137
(L134891104L
L134891182L
tp138
sS'_bfd_elf_make_section_from_shdr'
p139
(L134740064L
L134740106L
tp140
sS'd_print_comp_inner'
p141
(L135002352L
L135015841L
tp142
sS'bfd_get_elf_phdr_upper_bound'
p143
(L134748944L
L134748995L
tp144
sS'elf_vxworks_add_dynamic_entries'
p145
(L134675504L
L134675727L
tp146
sS'elf_i386_reloc_type_lookup'
p147
(L134643040L
L134643622L
tp148
sS'_bfd_elf_get_sec_type_attr'
p149
(L134697360L
L134697508L
tp150
sS'd_print_mod_list'
p151
(L135017808L
L135018740L
tp152
sS'read_unsigned_leb128'
p153
(L134574800L
L134574851L
tp154
sS'_bfd_generic_get_elt_at_index'
p155
(L134533088L
L134533140L
tp156
sS'cache_bseek'
p157
(L134961504L
L134961593L
tp158
sS'aout_32_swap_ext_reloc_out'
p159
(L134873376L
L134873714L
tp160
sS'choose_tmpdir'
p161
(L135049280L
L135049768L
tp162
sS'bfd_elf_size_dynamic_sections'
p163
(L134794512L
L134800183L
tp164
sS'ignore_section_sym'
p165
(L134689056L
L134689163L
tp166
sS'_bfd_elf_discard_section_eh_frame_hdr'
p167
(L134844176L
L134844303L
tp168
sS'nacl_modify_program_headers'
p169
(L134673888L
L134674194L
tp170
sS'bfd_alloc'
p171
(L134578832L
L134578976L
tp172
sS'compute_bucket_count'
p173
(L134751984L
L134752575L
tp174
sS'_bfd_coff_final_link'
p175
(L134950320L
L134955105L
tp176
sS'_bfd_elf_link_read_relocs'
p177
(L134777232L
L134777828L
tp178
sS'_bfd_bsd44_write_ar_hdr'
p179
(L134537648L
L134537953L
tp180
sS'bfd_zmalloc'
p181
(L134572032L
L134572102L
tp182
sS'cache_bmmap'
p183
(L134960992L
L134961295L
tp184
sS'd_source_name'
p185
(L135000880L
L135001076L
tp186
sS'aout_link_check_archive_element'
p187
(L134859296L
L134860103L
tp188
sS'elf_link_renumber_local_hash_table_dynsyms'
p189
(L134755296L
L134755332L
tp190
sS'_bfd_elf_hash_symbol'
p191
(L134793888L
L134793944L
tp192
sS'coff_find_nearest_line'
p193
(L134567504L
L134567607L
tp194
sS'coff_get_reloc_upper_bound'
p195
(L134563920L
L134563979L
tp196
sS'aout_32_print_symbol'
p197
(L134876176L
L134876426L
tp198
sS'_bfd_nocore_core_file_matches_executable_p'
p199
(L134571344L
L134571365L
tp200
sS'coff_i386_reloc'
p201
(L134886352L
L134886767L
tp202
sS'_bfd_coff_free_symbols'
p203
(L134562144L
L134562247L
tp204
sS'srec_scan'
p205
(L134608960L
L134611248L
tp206
sS'_bfd_elf_swap_verdef_out'
p207
(L134692096L
L134692256L
tp208
sS'aout_32_swap_std_reloc_in'
p209
(L134874192L
L134874789L
tp210
sS'tekhex_print_symbol'
p211
(L134615488L
L134615606L
tp212
sS'bfd_malloc_and_get_section'
p213
(L134583408L
L134583423L
tp214
sS'bfd_default_reloc_type_lookup'
p215
(L134966256L
L134966408L
tp216
sS'tekhex_mkobject'
p217
(L134614064L
L134614143L
tp218
sS'_bfd_calloc_wrapper'
p219
(L134529088L
L134529093L
tp220
sS'elf_i386_hash_symbol'
p221
(L134643776L
L134643811L
tp222
sS'_bfd_pei_swap_sym_out'
p223
(L134913872L
L134914030L
tp224
sS'bfd_cache_close_all'
p225
(L134960288L
L134960366L
tp226
sS'aout_32_swap_ext_reloc_in'
p227
(L134873728L
L134874188L
tp228
sS'dwarf1_unit_find_nearest_line'
p229
(L134850192L
L134850879L
tp230
sS'decode_line_info'
p231
(L134626416L
L134629382L
tp232
sS'_bfd_elf_find_inliner_info'
p233
(L134730256L
L134730315L
tp234
sS'is_valid_archive_path'
p235
(L134528368L
L134528500L
tp236
sS'aout_link_write_other_symbol'
p237
(L134860112L
L134860916L
tp238
sS'coff_link_output_has_begun'
p239
(L134885952L
L134885967L
tp240
sS'real_ftell'
p241
(L134551456L
L134551461L
tp242
sS'default_indirect_link_order'
p243
(L134592992L
L134594081L
tp244
sS'cplus_demangle_v3_callback'
p245
(L135033776L
L135033801L
tp246
sS'symbolsrec_object_p'
p247
(L134611568L
L134611812L
tp248
sS'bfd_core_file_pid'
p249
(L134568592L
L134568646L
tp250
sS'_bfd_merge_sections'
p251
(L134972960L
L134974256L
tp252
sS'bfd_elf32_write_out_phdrs'
p253
(L134681824L
L134681956L
tp254
sS'_bfd_elf_link_sec_merge_syms'
p255
(L134759408L
L134759512L
tp256
sS'bfd_get_section_by_name_if'
p257
(L134581280L
L134581428L
tp258
sS'bfd_openstreamr'
p259
(L134577696L
L134577804L
tp260
sS'bfd_getb16'
p261
(L134572368L
L134572385L
tp262
sS'_bfd_elf_reloc_type_class'
p263
(L134749104L
L134749107L
tp264
sS'elf_generic_info_to_howto_rel'
p265
(L134956496L
L134956508L
tp266
sS'elf32_r_info'
p267
(L134686080L
L134686095L
tp268
sS'concat_filename'
p269
(L134625968L
L134626407L
tp270
sS'bfd_elf_string_from_elf_section_0'
p271
(L134693392L
L134693858L
tp272
sS'htab_size'
p273
(L135044176L
L135044184L
tp274
sS'bfd_hash_replace'
p275
(L134590032L
L134590127L
tp276
sS'compare_sequences'
p277
(L134623456L
L134623527L
tp278
sS'freeargv'
p279
(L135034144L
L135034206L
tp280
sS'bfd_plugin_print_symbol'
p281
(L134956752L
L134956773L
tp282
sS'bfd_zalloc2'
p283
(L134579312L
L134579429L
tp284
sS'demangle_arm_hp_template'
p285
(L134987888L
L134989783L
tp286
sS'_bfd_elf_init_reloc_shdr'
p287
(L134690144L
L134690578L
tp288
sS'bfd_get_relocated_section_contents'
p289
(L134549040L
L134549129L
tp290
sS'cplus_demangle_fill_ctor'
p291
(L135021472L
L135021532L
tp292
sS'_bfd_coff_link_hash_table_create'
p293
(L134940400L
L134940492L
tp294
sS'htab_traverse_noresize'
p295
(L135046288L
L135046353L
tp296
sS'register_claim_file'
p297
(L134956704L
L134956716L
tp298
sS'cache_bwrite'
p299
(L134961680L
L134961842L
tp300
sS'bfd_cache_max_open'
p301
(L134959696L
L134959809L
tp302
sS'coff_swap_reloc_out'
p303
(L134885456L
L134885540L
tp304
sS'_bfd_generic_minisymbol_to_symbol'
p305
(L134584784L
L134584791L
tp306
sS'bfd_elf32_swap_reloc_out'
p307
(L134676288L
L134676349L
tp308
sS'_bfd_elf_validate_reloc'
p309
(L134730656L
L134731076L
tp310
sS'undefined_reference'
p311
(L134751568L
L134751632L
tp312
sS'bfd_elf32_swap_symbol_out'
p313
(L134676560L
L134676743L
tp314
sS'_bfd_ar_spacepad'
p315
(L134530240L
L134530403L
tp316
sS'elf_i386_allocate_dynrelocs'
p317
(L134648672L
L134650024L
tp318
sS'_bfd_coff_internal_syment_name'
p319
(L134561984L
L134562132L
tp320
sS'_bfd_new_bfd_contained_in'
p321
(L134576912L
L134577012L
tp322
sS'_bfd_add_bfd_to_archive_cache'
p323
(L134530912L
L134531108L
tp324
sS'coff_slurp_symbol_table_0'
p325
(L134891760L
L134894060L
tp326
sS'aout_32_get_symbol_info'
p327
(L134876016L
L134876167L
tp328
sS'_bfd_elf_gc_mark_fdes'
p329
(L134842240L
L134842389L
tp330
sS'bfd_default_scan'
p331
(L134544256L
L134545224L
tp332
sS'bfd_elf_get_dyn_lib_class'
p333
(L134805040L
L134805089L
tp334
sS'bfd_put_bits'
p335
(L134573552L
L134573673L
tp336
sS'd_abi_tags'
p337
(L135001088L
L135001161L
tp338
sS'coff_bfd_make_debug_symbol'
p339
(L134564048L
L134564156L
tp340
sS'_bfd_coff_get_external_symbols'
p341
(L134559392L
L134559559L
tp342
sS'_bfd_fix_excluded_sec_syms'
p343
(L134604272L
L134604310L
tp344
sS'trad_unix_core_file_failing_signal'
p345
(L134959008L
L134959014L
tp346
sS'make_mapping'
p347
(L134687840L
L134687957L
tp348
sS'cmpindexentry'
p349
(L134583456L
L134583484L
tp350
sS'bfd_alloc2'
p351
(L134578976L
L134579068L
tp352
sS'bfd_elf_add_obj_attr_int_string'
p353
(L134831632L
L134831751L
tp354
sS'd_number'
p355
(L135000496L
L135000587L
tp356
sS'elfcore_write_linux_prpsinfo64'
p357
(L134745952L
L134746346L
tp358
sS'_bfd_coff_link_hash_newfunc'
p359
(L134935984L
L134936094L
tp360
sS'bfd_set_section_size'
p361
(L134582720L
L134582778L
tp362
sS'bfd_get_next_section_by_name'
p363
(L134581104L
L134581177L
tp364
sS'sec_merge_hash_newfunc'
p365
(L134971600L
L134971714L
tp366
sS'_start'
p367
(L134521415L
L134521449L
tp368
sS'coff_i386_is_local_label_name'
p369
(L134890368L
L134890390L
tp370
sS'bfd_elf_record_link_assignment'
p371
(L134775936L
L134776511L
tp372
sS'coff_i386_rtype_to_howto'
p373
(L134885968L
L134886344L
tp374
sS'elf_i386_get_plt_sym_val'
p375
(L134654464L
L134654918L
tp376
sS'elf_parse_notes'
p377
(L134731664L
L134736688L
tp378
sS'xstrdup'
p379
(L135051296L
L135051346L
tp380
sS'bfd_fprintf_vma'
p381
(L134549472L
L134549515L
tp382
sS'parse_vma'
p383
(L134527408L
L134527502L
tp384
sS'coff_swap_reloc_in'
p385
(L134885376L
L134885443L
tp386
sS'elf_i386_create_dynamic_sections'
p387
(L134670688L
L134670995L
tp388
sS'bfd_get_target_info'
p389
(L134588096L
L134588425L
tp390
sS'bfd_elf32_swap_reloca_in'
p391
(L134676208L
L134676274L
tp392
sS'make_tempname'
p393
(L134527312L
L134527372L
tp394
sS'_bfd_pei_swap_aouthdr_out'
p395
(L134916416L
L134917906L
tp396
sS'coff_write_armap'
p397
(L134543056L
L134543996L
tp398
sS'sec_merge_add'
p399
(L134972208L
L134972300L
tp400
sS'_bfd_elf_merge_unknown_attribute_low'
p401
(L134833248L
L134833460L
tp402
sS'demangle_template'
p403
(L134981792L
L134983393L
tp404
sS'bfd_lookup_arch'
p405
(L134545776L
L134545845L
tp406
sS'verilog_set_section_contents'
p407
(L134642112L
L134642373L
tp408
sS'_bfd_elf_create_dynamic_sections'
p409
(L134769840L
L134770231L
tp410
sS'_bfd_n1'
p411
(L134571264L
L134571288L
tp412
sS'simple_dummy_reloc_overflow'
p413
(L134639488L
L134639494L
tp414
sS'bfd_elf32_core_file_failing_command'
p415
(L134686112L
L134686132L
tp416
sS'coff_get_symtab_upper_bound'
p417
(L134554528L
L134554583L
tp418
sS'separate_debug_file_exists'
p419
(L134575760L
L134575959L
tp420
sS'cache_bclose'
p421
(L134960032L
L134960075L
tp422
sS'd_demangle'
p423
(L135033280L
L135033390L
tp424
sS'elf_i386_gc_mark_hook'
p425
(L134645232L
L134645310L
tp426
sS'memory_bflush'
p427
(L134550576L
L134550579L
tp428
sS'bfd_bwrite'
p429
(L134551760L
L134551872L
tp430
sS'aout_link_free_symbols'
p431
(L134859216L
L134859284L
tp432
sS'_bfd_elf_symbol_from_bfd_symbol'
p433
(L134715616L
L134715818L
tp434
sS'aout_32_swap_exec_header_out'
p435
(L134866256L
L134866431L
tp436
sS'writesym'
p437
(L134613936L
L134614055L
tp438
sS'_bfd_elf_parse_attributes'
p439
(L134832128L
L134832825L
tp440
sS'elf_link_flush_output_syms'
p441
(L134758832L
L134758990L
tp442
sS'bfd_get_error_handler'
p443
(L134546560L
L134546566L
tp444
sS'bfd_section_list_clear'
p445
(L134580960L
L134581034L
tp446
sS'_bfd_nocore_core_file_pid'
p447
(L134571440L
L134571461L
tp448
sS'bfd_find_version_for_sym'
p449
(L134604512L
L134604952L
tp450
sS'd_make_name'
p451
(L134999840L
L134999906L
tp452
sS'real_fopen'
p453
(L134551488L
L134551588L
tp454
sS'bfd_putb64'
p455
(L134573392L
L134573469L
tp456
sS'_bfd_append_relative_path'
p457
(L134532256L
L134532372L
tp458
sS'_bfd_coff_link_add_symbols'
p459
(L134940496L
L134940576L
tp460
sS'htab_empty'
p461
(L135044944L
L135045179L
tp462
sS'd_template_param'
p463
(L135000736L
L135000822L
tp464
sS'bfd_elf32_swap_phdr_out'
p465
(L134681616L
L134681810L
tp466
sS'elf_collect_hash_codes'
p467
(L134752864L
L134753069L
tp468
sS'_bfd_coff_read_internal_relocs'
p469
(L134554704L
L134555232L
tp470
sS'tekhex_init'
p471
(L134615616L
L134615722L
tp472
sS'bfd_get_gp_size'
p473
(L134548656L
L134548722L
tp474
sS'resolve_symbol'
p475
(L134763040L
L134763371L
tp476
sS'_bfd_elf_single_rel_hdr'
p477
(L134698592L
L134698664L
tp478
sS'elfcore_write_prstatus'
p479
(L134746352L
L134746580L
tp480
sS'bfd_set_start_address'
p481
(L134548624L
L134548641L
tp482
sS'_bfd_elf_merge_object_attributes'
p483
(L134832832L
L134833234L
tp484
sS'buy_and_read'
p485
(L134888704L
L134888817L
tp486
sS'bfd_elf_link_record_local_dynamic_symbol'
p487
(L134776512L
L134776948L
tp488
sS'elf_link_renumber_hash_table_dynsyms'
p489
(L134755248L
L134755284L
tp490
sS'elf_i386_finish_local_dynamic_symbol'
p491
(L134648624L
L134648668L
tp492
sS'bfd_elf32_swap_reloc_in'
p493
(L134676144L
L134676202L
tp494
sS'_bfd_pei_swap_lineno_out'
p495
(L134915504L
L134915568L
tp496
sS'display_file'
p497
(L134523952L
L134524216L
tp498
sS'_bfd_elf_create_ifunc_sections'
p499
(L134671008L
L134671413L
tp500
sS'elfcore_write_s390_timer'
p501
(L134746992L
L134747059L
tp502
sS'warn_deprecated'
p503
(L134574592L
L134574791L
tp504
sS'htab_find_with_hash'
p505
(L135045184L
L135045509L
tp506
sS'bfd_compress_section_contents'
p507
(L134640384L
L134640618L
tp508
sS'_bfd_elf_parse_eh_frame'
p509
(L134837104L
L134842226L
tp510
sS'_bfd_elf_link_hash_fixup_symbol'
p511
(L134778784L
L134778827L
tp512
sS'__libc_csu_fini'
p513
(L135052768L
L135052770L
tp514
sS'opncls_btell'
p515
(L134574960L
L134574974L
tp516
sS'elf_fake_sections'
p517
(L134690592L
L134691952L
tp518
sS'_bfd_elf_canonicalize_reloc'
p519
(L134723520L
L134723641L
tp520
sS'bfd_cache_delete'
p521
(L134959824L
L134959934L
tp522
sS'register_Btype'
p523
(L134975712L
L134975821L
tp524
sS'bfd_link_hash_lookup'
p525
(L134592448L
L134592523L
tp526
sS'string_need_1'
p527
(L135036352L
L135036452L
tp528
sS'aout_32_get_lineno'
p529
(L134876000L
L134876003L
tp530
sS'_bfd_elf_default_action_discarded'
p531
(L134806560L
L134806636L
tp532
sS'bfd_elf_discard_info'
p533
(L134827664L
L134828298L
tp534
sS'_bfd_pei_swap_sym_in'
p535
(L134913216L
L134913864L
tp536
sS'bfd_elf_gc_common_finalize_got_offsets'
p537
(L134827184L
L134827587L
tp538
sS'cplus_demangle_opname'
p539
(L134989904L
L134990912L
tp540
sS'elf_link_sort_cmp2'
p541
(L134755824L
L134755887L
tp542
sS'bfd_release'
p543
(L134579440L
L134579459L
tp544
sS'elf_i386_link_hash_table_create'
p545
(L134655104L
L134655296L
tp546
sS'bfd_elf32_core_file_failing_signal'
p547
(L134686144L
L134686163L
tp548
sS'_bfd_coff_link_input_bfd'
p549
(L134940576L
L134949575L
tp550
sS'_bfd_elf_symbol_refs_local_p'
p551
(L134779216L
L134779395L
tp552
sS'elf_find_function'
p553
(L134687968L
L134688501L
tp554
sS'bfd_symbol_info'
p555
(L134584480L
L134584562L
tp556
sS'java_demangle_v3'
p557
(L135033808L
L135033833L
tp558
sS'aout_32_reloc_type_lookup'
p559
(L134865760L
L134865884L
tp560
sS'opncls_bseek'
p561
(L134574976L
L134575051L
tp562
sS'd_make_comp'
p563
(L134999728L
L134999835L
tp564
sS'_bfd_elf_link_hash_table_free'
p565
(L134753296L
L134753351L
tp566
sS'simple_dummy_einfo'
p567
(L134639552L
L134639554L
tp568
sS'_bfd_pei_write_codeview_record'
p569
(L134921824L
L134922065L
tp570
sS'coff_pe_i386_relocate_section'
p571
(L134886832L
L134886884L
tp572
sS'ihex_set_arch_mach'
p573
(L134617104L
L134617159L
tp574
sS'aout_32_swap_std_reloc_out'
p575
(L134872944L
L134873376L
tp576
sS'bfd_install_relocation'
p577
(L134963856L
L134964778L
tp578
sS'sysv_internal_printer'
p579
(L134522544L
L134522594L
tp580
sS'writeargv'
p581
(L135034784L
L135034946L
tp582
sS'_bfd_elf_get_dynamic_reloc_upper_bound'
p583
(L134723776L
L134723916L
tp584
sS'elfcore_maybe_make_sect'
p585
(L134689712L
L134689812L
tp586
sS'bfd_printable_name'
p587
(L134545344L
L134545355L
tp588
sS'_bfd_elf_define_linkage_sym'
p589
(L134768608L
L134768857L
tp590
sS'aout_32_link_hash_newfunc'
p591
(L134857792L
L134857890L
tp592
sS'bfd_generic_relax_section'
p593
(L134966448L
L134966520L
tp594
sS'd_unqualified_name'
p595
(L135024384L
L135025246L
tp596
sS'memory_bwrite'
p597
(L134551216L
L134551455L
tp598
sS'_bfd_clear_contents'
p599
(L134965824L
L134966219L
tp600
sS'elf_i386_fake_sections'
p601
(L134643824L
L134643865L
tp602
sS'i386_aout_linux_mkobject'
p603
(L134853840L
L134853845L
tp604
sS'_bfd_elf_is_local_label_name'
p605
(L134729472L
L134729550L
tp606
sS'dupargv'
p607
(L135033968L
L135034138L
tp608
sS'_bfd_elf_make_dynamic_reloc_section'
p609
(L134829408L
L134829570L
tp610
sS'_bfd_pe_only_swap_filehdr_out'
p611
(L134919024L
L134919208L
tp612
sS'bfd_get_size'
p613
(L134552576L
L134552632L
tp614
sS'elf_collect_gnu_hash_codes'
p615
(L134758512L
L134758769L
tp616
sS'merge_sections_remove_hook'
p617
(L134751920L
L134751973L
tp618
sS'berkeley_sum'
p619
(L134521664L
L134521711L
tp620
sS'coff_set_arch_mach'
p621
(L134897072L
L134897152L
tp622
sS'bfd_hash_set_default_size'
p623
(L134590496L
L134590534L
tp624
sS'filename_cmp'
p625
(L135042912L
L135042917L
tp626
sS'lbasename'
p627
(L135047344L
L135047378L
tp628
sS'_bfd_generic_link_add_archive_symbols'
p629
(L134594880L
L134595672L
tp630
sS'ada_demangle'
p631
(L134978320L
L134979698L
tp632
sS'elf_vxworks_finish_dynamic_entry'
p633
(L134675728L
L134675924L
tp634
sS'_bfd_elf_swap_verdaux_out'
p635
(L134692320L
L134692381L
tp636
sS'opncls_bread'
p637
(L134575056L
L134575132L
tp638
sS'opncls_bmmap'
p639
(L134575216L
L134575222L
tp640
sS'bfd_sections_find_if'
p641
(L134582624L
L134582708L
tp642
sS'_bfd_default_link_order'
p643
(L134601376L
L134601916L
tp644
sS'_bfd_coff_is_local_label_name'
p645
(L134566128L
L134566154L
tp646
sS'bfd_arch_i386_fill'
p647
(L134958592L
L134958785L
tp648
sS'bfd_elf_get_elf_syms'
p649
(L134693872L
L134694729L
tp650
sS'_bfd_elf_setup_sections'
p651
(L134694864L
L134695436L
tp652
sS'vma_compare'
p653
(L134836736L
L134836791L
tp654
sS'aout_32_mkobject'
p655
(L134867392L
L134867503L
tp656
sS'bfd_make_writable'
p657
(L134578416L
L134578556L
tp658
sS'bfd_elf_final_link'
p659
(L134812736L
L134823387L
tp660
sS'bfd_bread'
p661
(L134551600L
L134551760L
tp662
sS'filename_eq'
p663
(L135043008L
L135043043L
tp664
sS'elf_i386_reloc_type_class'
p665
(L134643728L
L134643755L
tp666
sS'aout_32_make_empty_symbol'
p667
(L134870496L
L134870531L
tp668
sS'elf_i386_get_local_sym_hash'
p669
(L134655616L
L134655935L
tp670
sS'_bfd_elf_stringtab_init'
p671
(L134696608L
L134696724L
tp672
sS'elf_sort_elf_symbol'
p673
(L134750816L
L134750835L
tp674
sS'elf_i386_readonly_dynrelocs'
p675
(L134644848L
L134645018L
tp676
sS'xrealloc'
p677
(L135051216L
L135051282L
tp678
sS'bfd_assert'
p679
(L134546640L
L134546712L
tp680
sS'read_rangelist'
p681
(L134624256L
L134624501L
tp682
sS'display_info'
p683
(L134525536L
L134526979L
tp684
sS'_bfd_write_section_stabs'
p685
(L134970560L
L134971011L
tp686
sS'linux_tally_symbols'
p687
(L134855600L
L134856330L
tp688
sS'_bfd_elf_copy_private_bfd_data'
p689
(L134695552L
L134695702L
tp690
sS'adjust_relative_path'
p691
(L134529520L
L134530204L
tp692
sS'_bfd_coff_reloc_link_order'
p693
(L134949584L
L134950315L
tp694
sS'coff_write_linenumbers'
p695
(L134558944L
L134559372L
tp696
sS'd_compact_number'
p697
(L135000672L
L135000727L
tp698
sS'null_error_handler'
p699
(L134552720L
L134552722L
tp700
sS'find_target'
p701
(L134587680L
L134587847L
tp702
sS'bfd_arch_i386_onebyte_nop_fill'
p703
(L134958848L
L134958910L
tp704
sS'iterative_hash'
p705
(L135046560L
L135047200L
tp706
sS'sec_merge_hash_lookup'
p707
(L134971728L
L134972204L
tp708
sS'rsrc_write_directory'
p709
(L134906208L
L134906694L
tp710
sS'_bfd_generic_link_just_syms'
p711
(L134594816L
L134594850L
tp712
sS'opncls_bstat'
p713
(L134575232L
L134575366L
tp714
sS'elfcore_write_aarch_tls'
p715
(L134747712L
L134747779L
tp716
sS'ihex_get_section_contents'
p717
(L134621280L
L134621997L
tp718
sS'_bfd_create_empty_archive_element_shell'
p719
(L134530784L
L134530789L
tp720
sS'_bfd_nocore_core_file_failing_signal'
p721
(L134571408L
L134571429L
tp722
sS'list_matching_formats'
p723
(L134524944L
L134525085L
tp724
sS'bfd_plugin_canonicalize_symtab'
p725
(L134958240L
L134958545L
tp726
sS'bfd_set_symtab'
p727
(L134583536L
L134583610L
tp728
sS'_bfd_pei_swap_debugdir_out'
p729
(L134921632L
L134921812L
tp730
sS'_bfd_new_bfd'
p731
(L134576704L
L134576904L
tp732
sS'ihex_bad_byte'
p733
(L134618656L
L134618874L
tp734
sS'_bfd_elf_merge_sections'
p735
(L134804160L
L134804368L
tp736
sS'main'
p737
(L134520576L
L134521415L
tp738
sS'srec_get_section_contents'
p739
(L134606752L
L134607795L
tp740
sS'_bfd_elf_write_object_contents'
p741
(L134714864L
L134715589L
tp742
sS'elf_i386_tls_transition'
p743
(L134655936L
L134657508L
tp744
sS'write_value'
p745
(L134836976L
L134837097L
tp746
sS'eval_symbol'
p747
(L134763376L
L134768339L
tp748
sS'bfd_follow_gnu_debuglink'
p749
(L134579920L
L134579946L
tp750
sS'bfd_elf_make_object'
p751
(L134693232L
L134693275L
tp752
sS'_bfd_link_section_stabs'
p753
(L134967616L
L134969819L
tp754
sS'bfd_elf_add_obj_attr_string'
p755
(L134831520L
L134831631L
tp756
sS'coff_real_object_p'
p757
(L134559968L
L134561520L
tp758
sS'bfd_set_assert_handler'
p759
(L134546576L
L134546592L
tp760
sS'aout_32_translate_symbol_table'
p761
(L134870544L
L134871385L
tp762
sS'_bfd_elf_map_sections_to_segments'
p763
(L134698976L
L134701954L
tp764
sS'bfd_cache_init'
p765
(L134960080L
L134960233L
tp766
sS'non_fatal'
p767
(L134524816L
L134524843L
tp768
sS'_bfd_generic_link_add_symbols'
p769
(L134598768L
L134598780L
tp770
sS'bfd_hash_table_init'
p771
(L134588880L
L134588924L
tp772
sS'pe_ILF_save_relocs'
p773
(L134891376L
L134891500L
tp774
sS'bfd_getl32'
p775
(L134572608L
L134572645L
tp776
sS'reconcat'
p777
(L135036176L
L135036341L
tp778
sS'bfd_section_from_shdr'
p779
(L134740112L
L134744417L
tp780
sS'elf_vxworks_gott_symbol_p'
p781
(L134674560L
L134674640L
tp782
sS'bfd_section_already_linked_table_free'
p783
(L134602912L
L134602931L
tp784
sS'bfd_generic_define_common_symbol'
p785
(L134604320L
L134604508L
tp786
sS'already_linked_newfunc'
p787
(L134591232L
L134591270L
tp788
sS'_bfd_generic_write_ar_hdr'
p789
(L134537584L
L134537633L
tp790
sS'coff_section_from_bfd_index'
p791
(L134554448L
L134554526L
tp792
sS'coff_sort_func_alent'
p793
(L134885888L
L134885940L
tp794
sS'bfd_elf_size_dynsym_hash_dynstr'
p795
(L134800464L
L134804149L
tp796
sS'coff_get_symbol_info'
p797
(L134564160L
L134564229L
tp798
sS'htab_remove_elt_with_hash'
p799
(L135046080L
L135046157L
tp800
sS'bfd_0'
p801
(L134571216L
L134571219L
tp802
sS'make_temp_file'
p803
(L135049776L
L135050012L
tp804
sS'_bfd_elf_link_lookup_local_dynindx'
p805
(L134776960L
L134777022L
tp806
sS'rsrc_count_directory'
p807
(L134905072L
L134905518L
tp808
sS'make_relative_prefix_1'
p809
(L135047936L
L135049207L
tp810
sS'bfd_map_over_sections'
p811
(L134582528L
L134582618L
tp812
sS'strtab_hash_newfunc'
p813
(L134590256L
L134590318L
tp814
sS'bfd_malloc2'
p815
(L134571568L
L134571679L
tp816
sS'_bfd_elf_link_assign_sym_version'
p817
(L134774928L
L134775801L
tp818
sS'string_appendn_0'
p819
(L135036992L
L135037040L
tp820
sS'_bfd_generic_set_section_contents'
p821
(L134574224L
L134574340L
tp822
sS'elf_swap_shdr_in'
p823
(L134678864L
L134679080L
tp824
sS'srec_set_section_contents'
p825
(L134605232L
L134605776L
tp826
sS'elfcore_write_prpsinfo'
p827
(L134745264L
L134745547L
tp828
sS'_bfd_elf_swap_verdaux_in'
p829
(L134692256L
L134692307L
tp830
sS'_bfd_elf32_bfd_from_remote_memory'
p831
(L134684704L
L134686078L
tp832
sS'__umoddi3'
p833
(L135052304L
L135052647L
tp834
sS'srec_get_symtab_upper_bound'
p835
(L134605024L
L134605039L
tp836
sS'bfd_set_error_program_name'
p837
(L134546544L
L134546554L
tp838
sS'sym_is_global'
p839
(L134688976L
L134689051L
tp840
sS'bfd_generic_discard_group'
p841
(L134583440L
L134583446L
tp842
sS'_bfd_pei_swap_lineno_in'
p843
(L134915440L
L134915491L
tp844
sS'd_print_function_type'
p845
(L135019392L
L135020175L
tp846
sS'bfd_coff_set_symbol_class'
p847
(L134567744L
L134567990L
tp848
sS'_bfd_stab_section_find_nearest_line'
p849
(L134584800L
L134587552L
tp850
sS'bfd_i386_compatible'
p851
(L134958912L
L134958964L
tp852
sS'cache_bstat'
p853
(L134961296L
L134961407L
tp854
sS'htab_find_slot_with_hash'
p855
(L135045568L
L135046028L
tp856
sS'd_expression_1'
p857
(L135027216L
L135028686L
tp858
sS'out'
p859
(L134613584L
L134613931L
tp860
sS'_bfd_elf_copy_private_symbol_data'
p861
(L134723040L
L134723319L
tp862
sS'_bfd_elf_eh_frame_section_offset'
p863
(L134844512L
L134845004L
tp864
sS'is_ctor_or_dtor'
p865
(L135032096L
L135032357L
tp866
sS'bfd_coff_set_long_section_names_allowed'
p867
(L134885744L
L134885770L
tp868
sS'_bfd_generic_link_add_one_symbol'
p869
(L134595680L
L134598162L
tp870
sS'bfd_putb32'
p871
(L134573296L
L134573331L
tp872
sS'bfd_perror'
p873
(L134546384L
L134546527L
tp874
sS'bfd_generic_is_group_section'
p875
(L134583424L
L134583427L
tp876
sS'_bfd_pei_swap_scnhdr_out'
p877
(L134919216L
L134920144L
tp878
sS'_bfd_add_merge_section'
p879
(L134972304L
L134972952L
tp880
sS'nacl_final_write_processing'
p881
(L134674208L
L134674547L
tp882
sS'generic_link_add_object_symbols'
p883
(L134598176L
L134598667L
tp884
sS'simple_save_output_info'
p885
(L134639568L
L134639619L
tp886
sS'bfd_generic_lookup_section_flags'
p887
(L134966544L
L134966607L
tp888
sS'bfd_plugin_core_file_failing_signal'
p889
(L134956880L
L134956909L
tp890
sS'htab_create_alloc'
p891
(L135044544L
L135044607L
tp892
sS'bfd_format_string'
p893
(L134571072L
L134571108L
tp894
sS'_bfd_elf_swap_vernaux_out'
p895
(L134692736L
L134692856L
tp896
sS'bfd_elf_generic_reloc'
p897
(L134695472L
L134695545L
tp898
sS'bfd_elf_get_dt_soname'
p899
(L134805216L
L134805257L
tp900
sS'bfd_putl16'
p901
(L134572528L
L134572545L
tp902
sS'string_prepend_0'
p903
(L135036880L
L135036988L
tp904
sS'elf_append_rel'
p905
(L134829792L
L134829912L
tp906
sS'pe_mkobject'
p907
(L134888832L
L134888995L
tp908
sS'bfd_rename_section'
p909
(L134582480L
L134582517L
tp910
sS'binary_set_section_contents'
p911
(L134612448L
L134612712L
tp912
sS'cplus_demangle_init_info'
p913
(L135033648L
L135033739L
tp914
sS'memory_bmmap'
p915
(L134550592L
L134550598L
tp916
sS'pe_print_private_bfd_data'
p917
(L134897152L
L134897187L
tp918
sS'aout_32_find_nearest_line'
p919
(L134876832L
L134877983L
tp920
sS'bfd_elf32_swap_symbol_in'
p921
(L134675936L
L134676141L
tp922
sS'_bfd_final_link_relocate'
p923
(L134965632L
L134965822L
tp924
sS'htab_set_functions_ex'
p925
(L135044608L
L135044654L
tp926
sS'_bfd_elf_write_section_eh_frame_hdr'
p927
(L134848576L
L134849578L
tp928
sS'MY_bfd_copy_private_section_data'
p929
(L134855456L
L134855517L
tp930
sS'check_dynsym'
p931
(L134756528L
L134756615L
tp932
sS'memory_bread'
p933
(L134551040L
L134551202L
tp934
sS'bfd_get_sign_extend_vma'
p935
(L134548352L
L134548610L
tp936
sS'bfd_plugin_object_p'
p937
(L134957872L
L134958231L
tp938
sS'binary_object_p'
p939
(L134612272L
L134612436L
tp940
sS'resolve_section'
p941
(L134756752L
L134756938L
tp942
sS'pe_ILF_make_a_section'
p943
(L134890816L
L134891092L
tp944
sS'stab_link_includes_newfunc'
p945
(L134967520L
L134967610L
tp946
sS'move_section_contents'
p947
(L134615056L
L134615313L
tp948
sS'bfd_realloc'
p949
(L134571680L
L134571762L
tp950
sS'scan_unit_for_symbols'
p951
(L134630176L
L134631911L
tp952
sS'aout_32_slurp_symbol_table'
p953
(L134871392L
L134871623L
tp954
sS'aout_32_link_add_symbols'
p955
(L134878304L
L134878446L
tp956
sS'split_directories'
p957
(L135047552L
L135047925L
tp958
sS'd_exprlist'
p959
(L135025440L
L135027205L
tp960
sS'elf_strtab_hash_newfunc'
p961
(L134833872L
L134833978L
tp962
sS'_bfd_elf_make_section_from_phdr'
p963
(L134697728L
L134698584L
tp964
sS'xmalloc_set_program_name'
p965
(L135050896L
L135050949L
tp966
sS'bfd_hash_table_init_n'
p967
(L134588656L
L134588871L
tp968
sS'_bfd_elf_copy_private_header_data'
p969
(L134716592L
L134723025L
tp970
sS'bfd_elf_get_bfd_needed_list'
p971
(L134805264L
L134805641L
tp972
sS'bfd_0u'
p973
(L134571232L
L134571235L
tp974
sS'elf_i386_link_hash_table_free'
p975
(L134655024L
L134655089L
tp976
sS'_bfd_elf_copy_private_section_data'
p977
(L134716224L
L134716373L
tp978
sS'_bfd_elf_canonicalize_symtab'
p979
(L134723648L
L134723705L
tp980
sS'_bfd_dwarf2_find_nearest_line'
p981
(L134635712L
L134639452L
tp982
sS'bfd_0l'
p983
(L134571248L
L134571251L
tp984
sS'get_program_header_size'
p985
(L134688512L
L134688969L
tp986
sS'bfd_canonicalize_reloc'
p987
(L134547072L
L134547135L
tp988
sS'_bfd_merge_sections_free'
p989
(L134975152L
L134975201L
tp990
sS'_bfd_elf_can_make_relative'
p991
(L134849616L
L134849622L
tp992
sS'bfd_bsd_truncate_arname'
p993
(L134538208L
L134538328L
tp994
sS'htab_hash_string'
p995
(L135046512L
L135046550L
tp996
sS'coff_slurp_symbol_table'
p997
(L134894064L
L134894093L
tp998
sS'message'
p999
(L134957216L
L134957305L
tp1000
sS'_bfd_elf_init_2_index_sections'
p1001
(L134800272L
L134800457L
tp1002
sS'_bfd_elf_slurp_version_tables'
p1003
(L134724208L
L134726457L
tp1004
sS'elfcore_write_s390_todcmp'
p1005
(L134747072L
L134747139L
tp1006
sS'bfd_section_hash_newfunc'
p1007
(L134580688L
L134580862L
tp1008
sS'_bfd_coff_debug_merge_hash_newfunc'
p1009
(L134936096L
L134936182L
tp1010
sS'info_hash_table_newfunc'
p1011
(L134622576L
L134622663L
tp1012
sS'bfd_malloc'
p1013
(L134571504L
L134571565L
tp1014
sS'bfd_elf_reloc_symbol_deleted_p'
p1015
(L134751168L
L134751451L
tp1016
sS'elf_sym_name_compare'
p1017
(L134751456L
L134751483L
tp1018
sS'_bfd_pei_swap_aouthdr_in'
p1019
(L134915568L
L134916416L
tp1020
sS'ihex_write_record'
p1021
(L134617168L
L134617541L
tp1022
sS'_bfd_get_gp_value'
p1023
(L134548816L
L134548890L
tp1024
sS'coff_canonicalize_reloc'
p1025
(L134894096L
L134894952L
tp1026
sS'elfcore_write_s390_system_call'
p1027
(L134747472L
L134747539L
tp1028
sS'bfd_emul_get_maxpagesize'
p1029
(L134549648L
L134549698L
tp1030
sS'_bfd_elf_link_hash_copy_indirect'
p1031
(L134804368L
L134804665L
tp1032
sS'_bfd_elf_strtab_emit'
p1033
(L134835056L
L134835282L
tp1034
sS'htab_traverse'
p1035
(L135046368L
L135046433L
tp1036
sS'display_bfd'
p1037
(L134523616L
L134523940L
tp1038
sS'_bfd_generic_mkarchive'
p1039
(L134530624L
L134530667L
tp1040
sS'elf_final_link_free'
p1041
(L134768352L
L134768597L
tp1042
sS'rsrc_sort_entries'
p1043
(L134909568L
L134913208L
tp1044
sS'endian_string'
p1045
(L134524352L
L134524464L
tp1046
sS'elf_vxworks_link_output_symbol_hook'
p1047
(L134674912L
L134674982L
tp1048
sS'elfcore_write_s390_ctrs'
p1049
(L134747232L
L134747299L
tp1050
sS'elf_link_check_versioned_symbol'
p1051
(L134757520L
L134758392L
tp1052
sS'init_reloc_cookie_for_section'
p1053
(L134777840L
L134778061L
tp1054
sS'bfd_stat'
p1055
(L134552016L
L134552088L
tp1056
sS'_bfd_elf_fix_symbol_flags'
p1057
(L134773840L
L134774605L
tp1058
sS'bfd_arch_get_compatible'
p1059
(L134545584L
L134545680L
tp1060
sS'elfcore_write_ppc_vsx'
p1061
(L134746912L
L134746979L
tp1062
sS'is_gnu_v3_mangled_ctor'
p1063
(L135033872L
L135033907L
tp1064
sS'coff_object_p'
p1065
(L134561520L
L134561984L
tp1066
sS'd_cv_qualifiers'
p1067
(L134999920L
L135000185L
tp1068
sS'make_relative_prefix_ignore_links'
p1069
(L135049248L
L135049273L
tp1070
sS'd_print_expr_op'
p1071
(L135020816L
L135021001L
tp1072
sS'bfd_emul_set_commonpagesize'
p1073
(L134549872L
L134549957L
tp1074
sS'_bfd_elf_section_from_bfd_section'
p1075
(L134701968L
L134702187L
tp1076
sS'htab_find'
p1077
(L135045520L
L135045560L
tp1078
sS'bfd_getb_signed_16'
p1079
(L134572432L
L134572457L
tp1080
sS'_bfd_dummy_target'
p1081
(L134571472L
L134571493L
tp1082
sS'coff_write_object_contents'
p1083
(L134897280L
L134901577L
tp1084
sS'd_print_subexpr'
p1085
(L135021008L
L135021333L
tp1086
sS'srec_write_object_contents'
p1087
(L134608704L
L134608715L
tp1088
sS'getvalue'
p1089
(L134612816L
L134612943L
tp1090
sS'bfd_core_file_failing_command'
p1091
(L134568464L
L134568514L
tp1092
sS'_bfd_coff_write_global_sym'
p1093
(L134938832L
L134940132L
tp1094
sS'gnu_special'
p1095
(L134996384L
L134997959L
tp1096
sS'tekhex_sizeof_headers'
p1097
(L134613280L
L134613283L
tp1098
sS'_bfd_generic_link_split_section'
p1099
(L134602672L
L134602675L
tp1100
sS'bfd_getb_signed_64'
p1101
(L134573008L
L134573150L
tp1102
sS'coff_new_section_hook'
p1103
(L134904800L
L134905030L
tp1104
sS'bfd_find_target'
p1105
(L134587936L
L134588082L
tp1106
sS'dummy_reloc16_estimate'
p1107
(L134886768L
L134886799L
tp1108
sS'bfd_generic_gc_sections'
p1109
(L134966528L
L134966534L
tp1110
sS'bfd_section_already_linked_table_traverse'
p1111
(L134602688L
L134602723L
tp1112
sS'string_prepend'
p1113
(L134976704L
L134976752L
tp1114
sS'cache_bread'
p1115
(L134961856L
L134962400L
tp1116
sS'bfd_set_reloc'
p1117
(L134546608L
L134546627L
tp1118
sS'verilog_mkobject'
p1119
(L134642432L
L134642535L
tp1120
sS'bfd_hash_traverse'
p1121
(L134590368L
L134590488L
tp1122
sS'_bfd_elf_rel_vtable_reloc_fn'
p1123
(L134731200L
L134731203L
tp1124
sS'_bfd_dwarf2_cleanup_debug_info'
p1125
(L134633584L
L134634079L
tp1126
sS'_bfd_elf_gc_mark_reloc'
p1127
(L134824320L
L134824440L
tp1128
sS'bfd_elf32_slurp_reloc_table'
p1129
(L134680832L
L134681393L
tp1130
sS'bfd_hash_lookup'
p1131
(L134589488L
L134589822L
tp1132
sS'_bfd_archive_bsd44_construct_extended_name_table'
p1133
(L134537360L
L134537574L
tp1134
sS'htab_create'
p1135
(L135044656L
L135044723L
tp1136
sS'aout_32_canonicalize_reloc'
p1137
(L134875584L
L134875779L
tp1138
sS'_bfd_elf_find_segment_containing_section'
p1139
(L134698816L
L134698907L
tp1140
sS'd_template_args'
p1141
(L135028688L
L135028962L
tp1142
sS'_bfd_elf_obj_attrs_arg_type'
p1143
(L134831312L
L134831423L
tp1144
sS'bsd_write_armap'
p1145
(L134541456L
L134542704L
tp1146
sS'bfd_get_unique_section_name'
p1147
(L134581440L
L134581698L
tp1148
sS'bfd_generic_get_relocated_section_contents'
p1149
(L134966624L
L134967505L
tp1150
sS'srec_mkobject'
p1151
(L134606432L
L134606559L
tp1152
sS'is_vma_in_section'
p1153
(L134905040L
L134905072L
tp1154
sS'aout_32_bfd_free_cached_info'
p1155
(L134878000L
L134878191L
tp1156
sS'bfd_plugin_get_symbol_info'
p1157
(L134957072L
L134957093L
tp1158
sS'real_fseek'
p1159
(L134551472L
L134551477L
tp1160
sS'bfd_set_error_handler'
p1161
(L134546528L
L134546544L
tp1162
sS'srec_canonicalize_symtab'
p1163
(L134605040L
L134605217L
tp1164
sS'bfd_default_compatible'
p1165
(L134545296L
L134545339L
tp1166
sS'bfd_elf_allocate_object'
p1167
(L134693040L
L134693218L
tp1168
sS'bfd_plugin_get_symtab_upper_bound'
p1169
(L134956784L
L134956848L
tp1170
sS'bfd_section_from_phdr'
p1171
(L134744432L
L134744938L
tp1172
sS'add_data_entry'
p1173
(L134905696L
L134905776L
tp1174
sS'find_abstract_instance_name'
p1175
(L134629392L
L134630172L
tp1176
sS'coff_i386_reloc_type_lookup'
p1177
(L134891184L
L134891362L
tp1178
sS'print_version'
p1179
(L134528512L
L134528651L
tp1180
sS'bfd_section_from_elf_index'
p1181
(L134697088L
L134697123L
tp1182
sS'_bfd_free_cached_info'
p1183
(L134577024L
L134577128L
tp1184
sS'd_function_type'
p1185
(L135025344L
L135025426L
tp1186
sS'cplus_demangle_print'
p1187
(L135033392L
L135033643L
tp1188
sS'expandargv'
p1189
(L135034960L
L135035709L
tp1190
sS'bfd_get_section_contents'
p1191
(L134583056L
L134583393L
tp1192
sS'_bfd_elf_size_group_sections'
p1193
(L134793952L
L134794034L
tp1194
sS'elf_vxworks_add_symbol_hook'
p1195
(L134674640L
L134674714L
tp1196
sS'elf_vxworks_emit_relocs'
p1197
(L134674992L
L134675388L
tp1198
sS'coff_set_arch_mach_hook'
p1199
(L134890176L
L134890261L
tp1200
sS'set_cplus_marker_for_demangling'
p1201
(L134978048L
L134978058L
tp1202
sS'aout_32_make_sections'
p1203
(L134866432L
L134866580L
tp1204
sS'ihex_object_p'
p1205
(L134618880L
L134621278L
tp1206
sS'bfd_set_format'
p1207
(L134570944L
L134571067L
tp1208
sS'_bfd_elf_match_sections_by_type'
p1209
(L134805648L
L134805738L
tp1210
sS'bfd_make_readable'
p1211
(L134578560L
L134578823L
tp1212
sS'emit_stringtab'
p1213
(L134857664L
L134857789L
tp1214
sS'_bfd_default_error_handler'
p1215
(L134547264L
L134548286L
tp1216
sS'cplus_demangle_fill_name'
p1217
(L135021344L
L135021402L
tp1218
sS'_bfd_merged_section_offset'
p1219
(L134974640L
L134975150L
tp1220
sS'bfd_set_default_target'
p1221
(L134587856L
L134587932L
tp1222
sS'_bfd_elf_make_section_from_shdr_0'
p1223
(L134736688L
L134740054L
tp1224
sS'bfd_fdopenr'
p1225
(L134577520L
L134577691L
tp1226
sS'srec_print_symbol'
p1227
(L134606560L
L134606665L
tp1228
sS'_bfd_pe_bfd_copy_private_bfd_data_common'
p1229
(L134932336L
L134932891L
tp1230
sS'bfd_errmsg'
p1231
(L134546176L
L134546369L
tp1232
sS'bfd_plugin_set_plugin'
p1233
(L134958576L
L134958586L
tp1234
sS'binary_get_symtab_upper_bound'
p1235
(L134611840L
L134611846L
tp1236
sS'bfd_elf_bfd_from_remote_memory'
p1237
(L134749520L
L134749541L
tp1238
sS'elf_i386_finish_dynamic_symbol'
p1239
(L134646896L
L134648615L
tp1240
sS'_bfd_coff_link_hash_table_init'
p1241
(L134940240L
L134940390L
tp1242
sS'rsrc_write_entry'
p1243
(L134905856L
L134906206L
tp1244
sS'generic_add_output_symbol'
p1245
(L134591648L
L134591772L
tp1246
sS'_bfd_generic_final_link'
p1247
(L134601920L
L134602622L
tp1248
sS'obj_attr_size'
p1249
(L134829968L
L134830064L
tp1250
sS'bfd_get_arch_size'
p1251
(L134548288L
L134548348L
tp1252
sS'_bfd_elf_link_size_reloc_section'
p1253
(L134758400L
L134758511L
tp1254
sS'separate_alt_debug_file_exists'
p1255
(L134575680L
L134575758L
tp1256
sS'size_number'
p1257
(L134522128L
L134522287L
tp1258
sS'bfd_elf_get_needed_list'
p1259
(L134805152L
L134805172L
tp1260
sS'core_file_matches_executable_p'
p1261
(L134568656L
L134568726L
tp1262
sS'internal_srec_write_object_contents'
p1263
(L134607808L
L134608698L
tp1264
sS'd_substitution'
p1265
(L135001168L
L135001675L
tp1266
sS'bfd_sym_from_r_symndx'
p1267
(L134696736L
L134697078L
tp1268
sS'_bfd_elf_adjust_dynamic_symbol'
p1269
(L134774608L
L134774914L
tp1270
sS'elf_renumber_gnu_hash_syms'
p1271
(L134755456L
L134755724L
tp1272
sS'make_relative_prefix'
p1273
(L135049216L
L135049241L
tp1274
sS'add_line_info'
p1275
(L134622672L
L134623446L
tp1276
sS'bfd_create_gnu_debuglink_section'
p1277
(L134579984L
L134580140L
tp1278
sS'_bfd_generic_read_ar_hdr_mag'
p1279
(L134531120L
L134532214L
tp1280
sS'd_bare_function_type'
p1281
(L135025248L
L135025332L
tp1282
sS'objalloc_create'
p1283
(L135050016L
L135050112L
tp1284
sS'bfd_elf_sym_name'
p1285
(L134694736L
L134694863L
tp1286
sS'_bfd_relocate_contents'
p1287
(L134964784L
L134965631L
tp1288
sS'bfd_tell'
p1289
(L134551872L
L134551973L
tp1290
sS'cache_btell'
p1291
(L134961600L
L134961666L
tp1292
sS'_bfd_elf_gc_mark_hook'
p1293
(L134823392L
L134823620L
tp1294
sS'bfd_cache_close'
p1295
(L134960240L
L134960276L
tp1296
sS'_bfd_pe_print_private_bfd_data_common'
p1297
(L134923360L
L134932329L
tp1298
sS'elf32_i386_nacl_elf_object_p'
p1299
(L134655488L
L134655528L
tp1300
sS'sort_by_secaddr'
p1301
(L134885840L
L134885874L
tp1302
sS'htab_find_slot'
p1303
(L135046032L
L135046080L
tp1304
sS'eq_pointer'
p1305
(L135043344L
L135043359L
tp1306
sS'd_ref_qualifier'
p1307
(L135000192L
L135000271L
tp1308
sS'aout_32_set_arch_mach'
p1309
(L134868192L
L134868333L
tp1310
sS'elfcore_write_s390_prefix'
p1311
(L134747312L
L134747379L
tp1312
sS'bfd_getl_signed_16'
p1313
(L134572464L
L134572489L
tp1314
sS'_bfd_elf_swap_verneed_out'
p1315
(L134692496L
L134692616L
tp1316
sS'srec_get_symbol_info'
p1317
(L134605824L
L134605845L
tp1318
sS'print_arelt_descr'
p1319
(L134526992L
L134527305L
tp1320
sS'list_supported_architectures'
p1321
(L134525312L
L134525525L
tp1322
sS'unix_lbasename'
p1323
(L135047216L
L135047250L
tp1324
sS'_bfd_pe_get_symbol_info'
p1325
(L134933104L
L134933109L
tp1326
sS'hash_pointer'
p1327
(L135043360L
L135043485L
tp1328
sS'elf_gc_allocate_got_offsets'
p1329
(L134751056L
L134751166L
tp1330
sS'elf_merge_st_other'
p1331
(L134755344L
L134755443L
tp1332
sS'memory_btell'
p1333
(L134550560L
L134550571L
tp1334
sS'aout_32_adjust_sizes_and_vmas'
p1335
(L134868336L
L134869857L
tp1336
sS'bfd_log2'
p1337
(L134574352L
L134574387L
tp1338
sS'i386linux_write_object_contents'
p1339
(L134853088L
L134853825L
tp1340
sS'binary_get_section_contents'
p1341
(L134612720L
L134612806L
tp1342
sS'_bfd_elf_assign_file_position_for_section'
p1343
(L134698704L
L134698802L
tp1344
sS'_bfd_elf_link_omit_section_dynsym'
p1345
(L134777024L
L134777218L
tp1346
sS'cplus_demangle'
p1347
(L134979712L
L134979985L
tp1348
sS'_bfd_elf_get_symtab_upper_bound'
p1349
(L134723328L
L134723382L
tp1350
sS'_bfd_dwarf2_find_inliner_info'
p1351
(L134633504L
L134633580L
tp1352
sS'_bfd_elf_link_renumber_dynsyms'
p1353
(L134752576L
L134752857L
tp1354
sS'd_append_string'
p1355
(L135002000L
L135002143L
tp1356
sS'bfd_elf_gc_common_final_link'
p1357
(L134827600L
L134827658L
tp1358
sS'bfd_arch_bits_per_address'
p1359
(L134545744L
L134545755L
tp1360
sS'_bfd_ar_sizepad'
p1361
(L134530416L
L134530613L
tp1362
sS'_bfd_elf_find_line'
p1363
(L134730128L
L134730243L
tp1364
sS'string_append'
p1365
(L135036464L
L135036522L
tp1366
sS'bfd_false'
p1367
(L134571136L
L134571157L
tp1368
sS'_bfd_elf_make_empty_symbol'
p1369
(L134729392L
L134729427L
tp1370
sS'read_value'
p1371
(L134836800L
L134836961L
tp1372
sS'symbolsrec_write_object_contents'
p1373
(L134608720L
L134608734L
tp1374
sS'elf_i386_add_symbol_hook'
p1375
(L134655536L
L134655616L
tp1376
sS'bfd_init_section_decompress_status'
p1377
(L134641648L
L134641927L
tp1378
sS'squangle_mop_up'
p1379
(L134975520L
L134975703L
tp1380
sS'_bfd_archive_close_and_cleanup'
p1381
(L134544000L
L134544255L
tp1382
sS'elfcore_write_ppc_vmx'
p1383
(L134746832L
L134746899L
tp1384
sS'bfd_slurp_bsd_armap_f2'
p1385
(L134535024L
L134535623L
tp1386
sS'mark_entry'
p1387
(L134836336L
L134836461L
tp1388
sS'elf_i386_adjust_dynamic_symbol'
p1389
(L134653792L
L134654360L
tp1390
sS'bfd_perform_relocation'
p1391
(L134962768L
L134963842L
tp1392
sS'bfd_getb32'
p1393
(L134572560L
L134572595L
tp1394
sS'coff_sizeof_headers'
p1395
(L134567680L
L134567736L
tp1396
sS'_bfd_generic_get_section_contents'
p1397
(L134573840L
L134574187L
tp1398
sS'ihex_sizeof_headers'
p1399
(L134617008L
L134617011L
tp1400
sS'i386_aout_linux_object_p'
p1401
(L134853856L
L134854060L
tp1402
sS'bfd_emul_set_maxpagesize'
p1403
(L134549712L
L134549797L
tp1404
sS'elfcore_write_aarch_hw_watch'
p1405
(L134747872L
L134747939L
tp1406
sS'get_count'
p1407
(L134975376L
L134975509L
tp1408
sS'report'
p1409
(L134524640L
L134524760L
tp1410
sS'bfd_fill_in_gnu_debuglink_section'
p1411
(L134580144L
L134580551L
tp1412
sS'is_gnu_v3_mangled_dtor'
p1413
(L135033920L
L135033955L
tp1414
sS'set_symbol_from_hash'
p1415
(L134591376L
L134591642L
tp1416
sS'elf_swap_ehdr_in'
p1417
(L134678240L
L134678515L
tp1418
sS'_bfd_elf_link_hash_table_create'
p1419
(L134804880L
L134804980L
tp1420
sS'bfd_plugin_bfd_copy_private_bfd_data'
p1421
(L134957040L
L134957072L
tp1422
sS'try_load_plugin'
p1423
(L134957312L
L134957860L
tp1424
sS'get_alt_debug_link_info_shim'
p1425
(L134579840L
L134579911L
tp1426
sS'_bfd_elf_gc_mark_extra_sections'
p1427
(L134824448L
L134824838L
tp1428
sS'_bfd_elf_link_find_version_dependencies'
p1429
(L134757168L
L134757517L
tp1430
sS'demangle_nested_args'
p1431
(L134992272L
L134992396L
tp1432
sS'bfd_openr_iovec'
p1433
(L134579136L
L134579307L
tp1434
sS'_bfd_write_archive_contents'
p1435
(L134539664L
L134541445L
tp1436
sS'bfd_elf_stack_segment_size'
p1437
(L134794048L
L134794509L
tp1438
sS'free_split_directories'
p1439
(L135047488L
L135047544L
tp1440
sS'find_debug_info'
p1441
(L134623696L
L134623830L
tp1442
sS'demangle_signature'
p1443
(L134993696L
L134995967L
tp1444
sS'bfd_elf32_swap_dyn_in'
p1445
(L134676432L
L134676483L
tp1446
sS'bfd_set_archive_head'
p1447
(L134530800L
L134530820L
tp1448
sS'bfd_elf_set_group_contents'
p1449
(L134689168L
L134689706L
tp1450
sS'bfd_core_file_failing_signal'
p1451
(L134568528L
L134568582L
tp1452
sS'bfd_octets_per_byte'
p1453
(L134546000L
L134546065L
tp1454
sS'dlang_parse_real'
p1455
(L135037712L
L135038232L
tp1456
sS'opncls_bwrite'
p1457
(L134575136L
L134575147L
tp1458
sS'elfcore_write_s390_last_break'
p1459
(L134747392L
L134747459L
tp1460
sS'srec_sizeof_headers'
p1461
(L134605008L
L134605011L
tp1462
sS'consume_count_with_underscores'
p1463
(L134975296L
L134975375L
tp1464
sS'bfd_plugin_sizeof_headers'
p1465
(L134956720L
L134956749L
tp1466
sS'dlang_call_convention'
p1467
(L135036528L
L135036684L
tp1468
sS'coff_classify_symbol'
p1469
(L134891504L
L134891755L
tp1470
sS'elf_i386_info_to_howto_rel'
p1471
(L134645200L
L134645231L
tp1472
sS'find_chunk'
p1473
(L134613296L
L134613434L
tp1474
sS'bfd_get_arch_info'
p1475
(L134545760L
L134545768L
tp1476
sS'bfd_true'
p1477
(L134571168L
L134571174L
tp1478
sS'coff_get_normalized_symtab'
p1479
(L134562256L
L134563914L
tp1480
sS'coff_swap_filehdr_in'
p1481
(L134885552L
L134885738L
tp1482
sS'elf_i386_grok_prstatus'
p1483
(L134644240L
L134644530L
tp1484
sS'bfd_emul_get_commonpagesize'
p1485
(L134549808L
L134549858L
tp1486
sS'make_tempdir'
p1487
(L134527376L
L134527400L
tp1488
sS'simple_dummy_multiple_definition'
p1489
(L134639536L
L134639542L
tp1490
sS'ihex_set_section_contents'
p1491
(L134618384L
L134618655L
tp1492
sS'_bfd_elf_get_lineno'
p1493
(L134729552L
L134729583L
tp1494
sS'copy_name'
p1495
(L134552736L
L134552832L
tp1496
sS'bfd_print_symbol_vandf'
p1497
(L134583616L
L134583980L
tp1498
sS'bfd_slurp_armap'
p1499
(L134533840L
L134535020L
tp1500
sS'_bfd_elf_find_nearest_line'
p1501
(L134729648L
L134730119L
tp1502
sS'elfcore_write_note'
p1503
(L134744944L
L134745249L
tp1504
sS'bfd_elf_lookup_section_flags'
p1505
(L134826784L
L134827174L
tp1506
sS'_bfd_elf_get_dynamic_symtab_upper_bound'
p1507
(L134723392L
L134723491L
tp1508
sS'template_in_dir'
p1509
(L134524224L
L134524338L
tp1510
sS'_bfd_generic_link_output_symbols'
p1511
(L134599344L
L134600530L
tp1512
sS'_bfd_compute_and_write_armap'
p1513
(L134538672L
L134539659L
tp1514
sS'tekhex_get_symbol_info'
p1515
(L134613552L
L134613573L
tp1516
sS'bfd_get_mtime'
p1517
(L134552496L
L134552568L
tp1518
sS'coff_set_section_contents'
p1519
(L134888416L
L134888698L
tp1520
sS'elf_sort_symbol'
p1521
(L134750720L
L134750801L
tp1522
sS'd_find_pack'
p1523
(L135001904L
L135001993L
tp1524
sS'bfd_elf_hash'
p1525
(L134692928L
L134692982L
tp1526
sS'bfd_elf32_swap_phdr_in'
p1527
(L134681408L
L134681607L
tp1528
sS'_bfd_generic_make_empty_symbol'
p1529
(L134583984L
L134584019L
tp1530
sS'bfd_plugin_core_file_pid'
p1531
(L134956848L
L134956877L
tp1532
sS'd_print_comp'
p1533
(L135015856L
L135015908L
tp1534
sS'hash_file_ptr'
p1535
(L134529040L
L134529047L
tp1536
sS'_bfd_write_stab_strings'
p1537
(L134971024L
L134971223L
tp1538
sS'bfd_realloc_or_free'
p1539
(L134571920L
L134572026L
tp1540
sS'_bfd_elf_set_section_contents'
p1541
(L134730464L
L134730609L
tp1542
sS'demangle_expression'
p1543
(L134981392L
L134981778L
tp1544
sS'bfd_elf32_swap_reloca_out'
p1545
(L134676352L
L134676432L
tp1546
sS'strrevcmp'
p1547
(L134833760L
L134833866L
tp1548
sS'aout_32_write_syms'
p1549
(L134871632L
L134872828L
tp1550
sS'd_name'
p1551
(L135028976L
L135030037L
tp1552
sS'_bfd_pe_bfd_copy_private_section_data'
p1553
(L134932896L
L134933102L
tp1554
sS'aout_32_link_hash_table_create'
p1555
(L134878208L
L134878300L
tp1556
sS'htab_collisions'
p1557
(L135046448L
L135046511L
tp1558
sS'aout_32_machine_type'
p1559
(L134867504L
L134868181L
tp1560
sS'frame_dummy'
p1561
(L134521616L
L134521661L
tp1562
sS'bfd_coff_get_comdat_section'
p1563
(L134568000L
L134568034L
tp1564
sS'read_attribute_value'
p1565
(L134624512L
L134625956L
tp1566
sS'tekhex_canonicalize_symtab'
p1567
(L134613056L
L134613111L
tp1568
sS'set_default_bfd_target'
p1569
(L134524848L
L134524936L
tp1570
sS'd_count_templates_scopes'
p1571
(L135000272L
L135000368L
tp1572
sS'_bfd_find_arch_match'
p1573
(L134587552L
L134587674L
tp1574
sS'dlang_function_args'
p1575
(L135042000L
L135042311L
tp1576
sS'bfd_hash_allocate'
p1577
(L134590128L
L134590243L
tp1578
sS'demangle_template_template_parm'
p1579
(L134990912L
L134991222L
tp1580
sS'rsrc_parse_entries'
p1581
(L134908512L
L134909137L
tp1582
sS'bfd_hash_table_free'
p1583
(L134588928L
L134588959L
tp1584
sS'vendor_obj_attr_size'
p1585
(L134830368L
L134830603L
tp1586
sS'bfd_write_bigendian_4byte_int'
p1587
(L134572256L
L134572366L
tp1588
sS'getsym'
p1589
(L134612944L
L134613050L
tp1590
sS'pass_over'
p1591
(L134616464L
L134616775L
tp1592
sS'_bfd_dwarf1_find_nearest_line'
p1593
(L134850880L
L134851445L
tp1594
sS'__do_global_dtors_aux'
p1595
(L134521584L
L134521614L
tp1596
sS'higher_prime_index'
p1597
(L135043488L
L135043623L
tp1598
sS'_bfd_look_for_bfd_in_cache'
p1599
(L134530832L
L134530900L
tp1600
sS'print_sizes'
p1601
(L134522608L
L134523606L
tp1602
sS'elf_i386_always_size_sections'
p1603
(L134653520L
L134653778L
tp1604
sS'coff_compute_section_file_positions'
p1605
(L134886896L
L134888415L
tp1606
sS'bfd_set_gp_size'
p1607
(L134548736L
L134548814L
tp1608
sS'bfd_alt_mach_code'
p1609
(L134549520L
L134549634L
tp1610
sS'_bfd_elf_ifunc_get_synthetic_symtab'
p1611
(L134672112L
L134673033L
tp1612
sS'compare_link_order'
p1613
(L134757104L
L134757160L
tp1614
sS'MY_close_and_cleanup'
p1615
(L134853040L
L134853085L
tp1616
sS'bfd_follow_gnu_debugaltlink'
p1617
(L134579952L
L134579978L
tp1618
sS'bfd_openw'
p1619
(L134577808L
L134577912L
tp1620
sS'_bfd_elf_get_dynamic_reloc_section'
p1621
(L134829312L
L134829396L
tp1622
sS'_bfd_elf_attr_strdup'
p1623
(L134831248L
L134831306L
tp1624
sS'bfd_openr'
p1625
(L134577472L
L134577515L
tp1626
sS'htab_expand'
p1627
(L135043632L
L135044163L
tp1628
sS'__x86.get_pc_thunk.bx'
p1629
(L134521456L
L134521460L
tp1630
sS'bfd_putl64'
p1631
(L134573472L
L134573549L
tp1632
sS'elf_gc_sweep_symbol'
p1633
(L134755888L
L134755986L
tp1634
sS'tekhex_set_section_contents'
p1635
(L134615328L
L134615401L
tp1636
sS'_bfd_elf_tls_setup'
p1637
(L134779408L
L134779514L
tp1638
sS'bfd_check_format_matches'
p1639
(L134568880L
L134570893L
tp1640
sS'bfd_get_bits'
p1641
(L134573680L
L134573836L
tp1642
sS'elfcore_write_s390_todpreg'
p1643
(L134747152L
L134747219L
tp1644
sS'bfd_gnu_truncate_arname'
p1645
(L134538512L
L134538658L
tp1646
sS'bfd_elf_get_runpath_list'
p1647
(L134805184L
L134805207L
tp1648
sS'elf_link_input_bfd'
p1649
(L134806816L
L134812732L
tp1650
sS'forget_types'
p1651
(L134976176L
L134976260L
tp1652
sS'elf_i386_gc_sweep_hook'
p1653
(L134657520L
L134658298L
tp1654
sS'string_need'
p1655
(L134976448L
L134976548L
tp1656
sS'elf_i386_reloc_name_lookup'
p1657
(L134655296L
L134655377L
tp1658
sS'dlang_demangle'
p1659
(L135042704L
L135042906L
tp1660
sS'linux_finish_dynamic_link'
p1661
(L134851840L
L134852802L
tp1662
sS'd_expr_primary'
p1663
(L135031808L
L135032096L
tp1664
sS'd_print_mod_0'
p1665
(L135015920L
L135017803L
tp1666
sS'bfd_get_alt_debug_link_info'
p1667
(L134579536L
L134579825L
tp1668
sS'dlang_value'
p1669
(L135038240L
L135039320L
tp1670
sS'_bfd_default_assert_handler'
p1671
(L134546144L
L134546151L
tp1672
sS'elf_vxworks_create_dynamic_sections'
p1673
(L134674720L
L134674908L
tp1674
sS'swap_abort'
p1675
(L134959664L
L134959695L
tp1676
sS'_bfd_elf_sizeof_headers'
p1677
(L134730320L
L134730457L
tp1678
sS'aout_32_get_reloc_upper_bound'
p1679
(L134875792L
L134875939L
tp1680
sS'bfd_decode_symclass'
p1681
(L134584032L
L134584437L
tp1682
sS'bfd_fatal'
p1683
(L134524608L
L134524635L
tp1684
sS'_bfd_generic_verify_endian_match'
p1685
(L134574448L
L134574586L
tp1686
sS'tekhex_get_section_contents'
p1687
(L134615408L
L134615481L
tp1688
sS'srec_set_arch_mach'
p1689
(L134605776L
L134605813L
tp1690
sS'elf_i386_is_local_label_name'
p1691
(L134655392L
L134655436L
tp1692
sS'_bfd_elf_swap_versym_out'
p1693
(L134692896L
L134692927L
tp1694
sS'_bfd_elf_strtab_clear_all_refs'
p1695
(L134834704L
L134834746L
tp1696
sS'elf_link_adjust_relocs'
p1697
(L134519696L
L134520095L
tp1698
sS'_bfd_elfcore_make_pseudosection'
p1699
(L134731216L
L134731545L
tp1700
sS'i386linux_bfd_final_link'
p1701
(L134852816L
L134852864L
tp1702
sS'coff_bad_format_hook'
p1703
(L134885776L
L134885826L
tp1704
sS'bfd_plugin_bfd_copy_private_section_data'
p1705
(L134957008L
L134957040L
tp1706
sS'elf32_r_sym'
p1707
(L134686096L
L134686104L
tp1708
sS'_bfd_link_hash_table_init'
p1709
(L134592320L
L134592441L
tp1710
sS'bfd_i386linux_size_dynamic_sections'
p1711
(L134857024L
L134857247L
tp1712
sS'bfd_elf32_write_relocs'
p1713
(L134679664L
L134680180L
tp1714
sS'filename_ncmp'
p1715
(L135042928L
L135042933L
tp1716
sS'_bfd_elf_default_got_elt_size'
p1717
(L134829280L
L134829310L
tp1718
sS'_bfd_elf_swap_verneed_in'
p1719
(L134692384L
L134692482L
tp1720
sS'elf_i386_relocate_section'
p1721
(L134658304L
L134668169L
tp1722
sS'coff_write_symbol'
p1723
(L134552832L
L134554442L
tp1724
sS'bfd_nullvoidptr'
p1725
(L134571184L
L134571205L
tp1726
sS'cplus_demangle_name_to_style'
p1727
(L134978256L
L134978317L
tp1728
sS'dlang_attributes'
p1729
(L135036688L
L135036870L
tp1730
sS'comp_unit_maybe_decode_line_info'
p1731
(L134631920L
L134632035L
tp1732
sS'_bfd_elf_is_function_type'
p1733
(L134750512L
L134750529L
tp1734
sS'coff_renumber_symbols'
p1735
(L134555520L
L134556266L
tp1736
sS'_bfd_elf_strtab_offset'
p1737
(L134834896L
L134835056L
tp1738
sS'aout_32_canonicalize_symtab'
p1739
(L134872832L
L134872932L
tp1740
sS'_bfd_norelocs_get_reloc_upper_bound'
p1741
(L134571312L
L134571318L
tp1742
sS'_bfd_elf_post_process_headers'
p1743
(L134750448L
L134750499L
tp1744
sS'_bfd_elf_common_definition'
p1745
(L134829232L
L134829247L
tp1746
sS'bfd_is_local_label'
p1747
(L134583488L
L134583531L
tp1748
sS'opncls_bflush'
p1749
(L134575200L
L134575203L
tp1750
sS'htab_try_create'
p1751
(L135044736L
L135044803L
tp1752
sS'_bfd_elf_eh_frame_present'
p1753
(L134844304L
L134844390L
tp1754
sS'snarf_numeric_literal'
p1755
(L134976928L
L134977091L
tp1756
sS'bfd_make_section'
p1757
(L134582400L
L134582435L
tp1758
sS'_bfd_archive_bsd_update_armap_timestamp'
p1759
(L134542704L
L134543054L
tp1760
sS'list_supported_targets'
p1761
(L134525088L
L134525301L
tp1762
sS'_bfd_generic_link_write_global_symbol'
p1763
(L134591776L
L134592015L
tp1764
sS'bfd_generic_link_read_symbols_0'
p1765
(L134592016L
L134592112L
tp1766
sS'concat_length'
p1767
(L135035776L
L135035828L
tp1768
sS'_bfd_elf_print_private_bfd_data'
p1769
(L134726464L
L134729379L
tp1770
sS'bfd_get_debug_link_info'
p1771
(L134575456L
L134575673L
tp1772
sS'elf_generic_info_to_howto'
p1773
(L134956480L
L134956492L
tp1774
sS'aout_32_squirt_out_relocs'
p1775
(L134875312L
L134875572L
tp1776
sS'aout_link_input_section'
p1777
(L134860928L
L134865750L
tp1778
sS'demangle_qualified'
p1779
(L134983408L
L134984599L
tp1780
sS'bfd_plugin_bfd_print_private_bfd_data'
p1781
(L134956944L
L134956976L
tp1782
sS'bfd_check_format'
p1783
(L134570896L
L134570931L
tp1784
sS'coff_read_word'
p1785
(L134520477L
L134520563L
tp1786
sS'demangle_template_value_parm'
p1787
(L134980000L
L134981383L
tp1788
sS'_bfd_elf_canonicalize_dynamic_symtab'
p1789
(L134723712L
L134723769L
tp1790
sS'_bfd_elf_fixup_group_sections'
p1791
(L134716384L
L134716588L
tp1792
sS'tekhex_write_object_contents'
p1793
(L134615728L
L134616453L
tp1794
sS'tekhex_make_empty_symbol'
p1795
(L134613440L
L134613482L
tp1796
sS'aout_get_external_symbols'
p1797
(L134857248L
L134857659L
tp1798
sS'read_address'
p1799
(L134624032L
L134624252L
tp1800
sS'bfd_flush'
p1801
(L134551984L
L134552003L
tp1802
sS'stash_maybe_update_info_hash_tables'
p1803
(L134632560L
L134633070L
tp1804
sS'_bfd_norelocs_canonicalize_reloc'
p1805
(L134571328L
L134571341L
tp1806
sS'bfd_arch_i386_long_nop_fill'
p1807
(L134958816L
L134958834L
tp1808
sS'_bfd_elf_maybe_function_sym'
p1809
(L134750544L
L134750608L
tp1810
sS'concat_copy'
p1811
(L135035840L
L135035917L
tp1812
sS'new_fixup'
p1813
(L134855520L
L134855596L
tp1814
sS'bfd_create'
p1815
(L134578336L
L134578412L
tp1816
sS'bfd_scan_arch'
p1817
(L134545360L
L134545433L
tp1818
sS'_bfd_elf_section_offset'
p1819
(L134749376L
L134749519L
tp1820
sS'remember_Btype'
p1821
(L134976112L
L134976175L
tp1822
sS'check_for_relocs'
p1823
(L134956592L
L134956698L
tp1824
sS'bfd_nonfatal_message'
p1825
(L134528032L
L134528355L
tp1826
sS'bfd_realloc2'
p1827
(L134571776L
L134571906L
tp1828
sS'coff_set_alignment_hook'
p1829
(L134889232L
L134889889L
tp1830
sS'_bfd_elf_init_1_index_section'
p1831
(L134800192L
L134800271L
tp1832
sS'hex_init'
p1833
(L135047200L
L135047202L
tp1834
sS'cplus_demangle_mangled_name'
p1835
(L135031520L
L135031801L
tp1836
sS'trad_unix_core_file_failing_command'
p1837
(L134958976L
L134959005L
tp1838
sS'_bfd_elf_add_dynamic_entry'
p1839
(L134779520L
L134779721L
tp1840
sS'_bfd_pe_print_ce_compressed_pdata'
p1841
(L134922080L
L134923358L
tp1842
sS'read_section'
p1843
(L134622000L
L134622458L
tp1844
sS'_bfd_archive_coff_construct_extended_name_table'
p1845
(L134537312L
L134537351L
tp1846
sS'elfcore_write_arm_vfp'
p1847
(L134747632L
L134747699L
tp1848
sS'do_arg'
p1849
(L134991232L
L134991560L
tp1850
sS'elf_i386_mkobject'
p1851
(L134655440L
L134655475L
tp1852
sS'bfd_elf32_write_shdrs_and_ehdr'
p1853
(L134679296L
L134679655L
tp1854
sS'bfd_generic_openr_next_archived_file'
p1855
(L134533232L
L134533385L
tp1856
sS'elf_append_rela'
p1857
(L134829664L
L134829784L
tp1858
sS'elf_link_output_sym'
p1859
(L134758992L
L134759404L
tp1860
sS'cplus_demangle_type'
p1861
(L135021600L
L135023740L
tp1862
sS'_objalloc_alloc'
p1863
(L135050112L
L135050383L
tp1864
sS'aout_32_slurp_reloc_table'
p1865
(L134874800L
L134875312L
tp1866
sS'_bfd_construct_extended_name_table'
p1867
(L134536240L
L134537264L
tp1868
sS'bfd_set_error'
p1869
(L134546928L
L134547003L
tp1870
sS'_bfd_pei_final_link_postscript'
p1871
(L134933120L
L134935973L
tp1872
sS'_bfd_elf_common_section'
p1873
(L134829264L
L134829270L
tp1874
sS'bfd_set_file_flags'
p1875
(L134547136L
L134547258L
tp1876
sS'elf32_generic_link_add_symbols'
p1877
(L134956512L
L134956583L
tp1878
sS'_bfd_elf_discard_section_eh_frame'
p1879
(L134842400L
L134844174L
tp1880
sS'binary_get_symbol_info'
p1881
(L134611872L
L134611893L
tp1882
sS'bfd_seek'
p1883
(L134552096L
L134552491L
tp1884
sS'simple_restore_output_info'
p1885
(L134639632L
L134639666L
tp1886
sS'd_append_char'
p1887
(L135000368L
L135000482L
tp1888
sS'add_symbols'
p1889
(L134957152L
L134957215L
tp1890
sS'cplus_mangle_opname'
p1891
(L134978064L
L134978202L
tp1892
sS'_bfd_elf_merge_symbol'
p1893
(L134770464L
L134773825L
tp1894
sS'bfd_link_add_undef'
p1895
(L134594512L
L134594596L
tp1896
sS'_bfd_nocore_core_file_failing_command'
p1897
(L134571376L
L134571397L
tp1898
sS'bfd_plugin_bfd_copy_private_symbol_data'
p1899
(L134956976L
L134957008L
tp1900
sS'bfd_link_repair_undef_list'
p1901
(L134594608L
L134594686L
tp1902
sS'srec_write_record'
p1903
(L134605856L
L134606423L
tp1904
sS'deregister_tm_clones'
p1905
(L134521472L
L134521514L
tp1906
sS'delete_non_B_K_work_stuff'
p1907
(L134976272L
L134976438L
tp1908
sS'bfd_sprintf_vma'
p1909
(L134549408L
L134549459L
tp1910
sS'bfd_hash_newfunc'
p1911
(L134590320L
L134590353L
tp1912
sS'elfcore_write_linux_prpsinfo32'
p1913
(L134745552L
L134745938L
tp1914
sS'_bfd_set_gp_value'
p1915
(L134548896L
L134549011L
tp1916
sS'_bfd_elf_maybe_strip_eh_frame_hdr'
p1917
(L134844400L
L134844504L
tp1918
sS'bfd_getl16'
p1919
(L134572400L
L134572417L
tp1920
sS'bfd_get_error'
p1921
(L134546160L
L134546166L
tp1922
sS'pe_bfd_copy_private_bfd_data'
p1923
(L134897200L
L134897273L
tp1924
sS'remember_type'
p1925
(L134977904L
L134978037L
tp1926
sS'_bfd_elf_init_private_section_data'
p1927
(L134715824L
L134716224L
tp1928
sS'bfd_getl64'
p1929
(L134572880L
L134573005L
tp1930
sS'_bfd_elf_canonicalize_dynamic_reloc'
p1931
(L134723920L
L134724208L
tp1932
sS'bfd_getl_signed_64'
p1933
(L134573152L
L134573294L
tp1934
sS'elfcore_write_aarch_hw_break'
p1935
(L134747792L
L134747859L
tp1936
sS'simple_dummy_undefined_symbol'
p1937
(L134639472L
L134639478L
tp1938
sS'buildargv'
p1939
(L135034208L
L135034784L
tp1940
sS'bfd_openr_next_archived_file'
p1941
(L134533152L
L134533219L
tp1942
sS'code_for_qualifier'
p1943
(L134975968L
L134976014L
tp1944
sS'bfd_section_already_linked_table_insert'
p1945
(L134602784L
L134602855L
tp1946
sS'bfd_generic_is_local_label_name'
p1947
(L134574400L
L134574437L
tp1948
sS'elf_create_symbuf'
p1949
(L134520095L
L134520477L
tp1950
sS'coff_link_check_archive_element'
p1951
(L134938720L
L134938829L
tp1952
sS'_bfd_elf_gc_keep'
p1953
(L134825040L
L134825158L
tp1954
sS'pe_mkobject_hook'
p1955
(L134889008L
L134889225L
tp1956
sS'memory_bseek'
p1957
(L134550800L
L134551027L
tp1958
sS'_bfd_elf_close_and_cleanup'
p1959
(L134731088L
L134731189L
tp1960
sS'read_uleb128'
p1961
(L134835728L
L134835830L
tp1962
sS'_bfd_elf_strtab_restore_size'
p1963
(L134834752L
L134834870L
tp1964
sS'd_call_offset'
p1965
(L135001680L
L135001788L
tp1966
sS'_bfd_handle_already_linked'
p1967
(L134602944L
L134603603L
tp1968
sS'string_appends'
p1969
(L134977104L
L134977164L
tp1970
sS'elf_gc_smash_unused_vtentry_relocs'
p1971
(L134778064L
L134778366L
tp1972
sS'register_tm_clones'
p1973
(L134521520L
L134521575L
tp1974
sS'sysv_one_line'
p1975
(L134522432L
L134522536L
tp1976
sS'bfd_elf_gnu_hash'
p1977
(L134692992L
L134693038L
tp1978
sS'binary_mkobject'
p1979
(L134611824L
L134611830L
tp1980
sS'srec_object_p'
p1981
(L134611248L
L134611561L
tp1982
sS'elf_adjust_dynstr_offsets'
p1983
(L134758784L
L134758830L
tp1984
sS'string_appendn'
p1985
(L134976560L
L134976608L
tp1986
sS'cplus_demangle_fill_dtor'
p1987
(L135021536L
L135021596L
tp1988
sS'find_debug_info_0'
p1989
(L134623584L
L134623685L
tp1990
sS'bfd_get_elf_phdrs'
p1991
(L134749008L
L134749091L
tp1992
sS'_bfd_dwarf2_slurp_debug_info'
p1993
(L134634080L
L134635707L
tp1994
sS'_bfd_elf_make_dynamic_segment'
p1995
(L134698912L
L134698970L
tp1996
sS'close_one'
p1997
(L134959936L
L134960022L
tp1998
sS'mangle_name'
p1999
(L134611904L
L134612048L
tp2000
sS'srec_bad_byte'
p2001
(L134608736L
L134608954L
tp2002
sS'bfd_close_all_done'
p2003
(L134578160L
L134578332L
tp2004
sS'bfd_elf_get_obj_attr_int'
p2005
(L134831136L
L134831242L
tp2006
sS'iterate_demangle_function'
p2007
(L134995968L
L134996381L
tp2008
sS'_bfd_elf_allocate_ifunc_dyn_relocs'
p2009
(L134671424L
L134672110L
tp2010
sS'tekhex_object_p'
p2011
(L134616784L
L134617002L
tp2012
sS'cplus_demangle_v3'
p2013
(L135033744L
L135033768L
tp2014
sS'xexit'
p2015
(L135050864L
L135050890L
tp2016
sS'elf_i386_check_relocs'
p2017
(L134668272L
L134670688L
tp2018
sS'in_reloc_p'
p2019
(L134885344L
L134885374L
tp2020
sS'string_append_0'
p2021
(L134976752L
L134976810L
tp2022
sS'elf_i386_get_synthetic_symtab'
p2023
(L134654368L
L134654457L
tp2024
sS'_bfd_elf_dynamic_symbol_p'
p2025
(L134778928L
L134779209L
tp2026
sS'_bfd_elf_strtab_finalize'
p2027
(L134835296L
L134835720L
tp2028
sS'bfd_printable_arch_mach'
p2029
(L134545936L
L134545985L
tp2030
sS'bfd_putb16'
p2031
(L134572496L
L134572515L
tp2032
sS'usage'
p2033
(L134521712L
L134522019L
tp2034
sS'_bfd_elf_notice_as_needed'
p2035
(L134780224L
L134780292L
tp2036
sS'mode_string'
p2037
(L134528656L
L134529028L
tp2038
sS'bfd_new_link_order'
p2039
(L134601296L
L134601372L
tp2040
sS'do_slurp_bsd_armap'
p2041
(L134529104L
L134529509L
tp2042
sS'trad_unix_core_file_p'
p2043
(L134959024L
L134959654L
tp2044
sS'bfd_elf_set_obj_attr_contents'
p2045
(L134830672L
L134831133L
tp2046
sS'elfcore_grok_nto_regs'
p2047
(L134689824L
L134690144L
tp2048
sS'elf_get_linked_section_vma'
p2049
(L134756944L
L134757097L
tp2050
sS'bfd_putl32'
p2051
(L134573344L
L134573377L
tp2052
sS'elfcore_write_register_note'
p2053
(L134747952L
L134748940L
tp2054
sS'bfd_elf_gc_sections'
p2055
(L134825168L
L134826207L
tp2056
sS'elf_i386_local_htab_hash'
p2057
(L134643632L
L134643666L
tp2058
sS'bfd_elf32_core_file_matches_executable_p'
p2059
(L134686208L
L134686335L
tp2060
sS'qualifier_string'
p2061
(L134976016L
L134976104L
tp2062
sS'xmalloc'
p2063
(L135051088L
L135051131L
tp2064
sS'elf_add_dt_needed_tag'
p2065
(L134779728L
L134780143L
tp2066
sS'bfd_elf_string_from_elf_section'
p2067
(L134693360L
L134693390L
tp2068
sS'_bfd_elf_gc_mark_rsec'
p2069
(L134823632L
L134823877L
tp2070
sS'_bfd_elf_relocs_compatible'
p2071
(L134780160L
L134780223L
tp2072
sS'bfd_generic_archive_p'
p2073
(L134533392L
L134533832L
tp2074
sS'bfd_nonfatal'
p2075
(L134524464L
L134524608L
tp2076
sS'aout_32_new_section_hook'
p2077
(L134869872L
L134870067L
tp2078
sS'_bfd_count_link_order_relocs'
p2079
(L134602624L
L134602662L
tp2080
sS'create_info_hash_table'
p2081
(L134622464L
L134622568L
tp2082
sS'elf_slurp_reloc_table_from_section'
p2083
(L134680192L
L134680831L
tp2084
sS'parse_die'
p2085
(L134849680L
L134850183L
tp2086
sS'_bfd_generic_init_private_section_data'
p2087
(L134574944L
L134574950L
tp2088
sS'demangle_function_name'
p2089
(L134992400L
L134993690L
tp2090
sS'_bfd_pei_swap_aux_out'
p2091
(L134914720L
L134915427L
tp2092
sS'bfd_get_arch'
p2093
(L134545696L
L134545707L
tp2094
sS'_bfd_elf_rel_local_sym'
p2095
(L134749296L
L134749368L
tp2096
sS'rsrc_parse_directory'
p2097
(L134909152L
L134909460L
tp2098
sS'_bfd_elf_get_reloc_upper_bound'
p2099
(L134723504L
L134723519L
tp2100
sS'string_append_template_idx'
p2101
(L134976816L
L134976917L
tp2102
sS'srec_get_byte'
p2103
(L134606672L
L134606746L
tp2104
sS'_bfd_delete_bfd'
p2105
(L134575376L
L134575455L
tp2106
sS'bfd_elf32_core_file_p'
p2107
(L134686336L
L134687493L
tp2108
sS'_bfd_generic_link_add_symbols_collect'
p2109
(L134598784L
L134598799L
tp2110
sS'coff_find_inliner_info'
p2111
(L134567616L
L134567672L
tp2112
sS'bfd_fopen'
p2113
(L134577136L
L134577468L
tp2114
sS'bfd_elf_obj_attr_size'
p2115
(L134830608L
L134830659L
tp2116
sS'sysv_internal_sizer'
p2117
(L134522032L
L134522117L
tp2118
sS'bfd_init'
p2119
(L134571120L
L134571122L
tp2120
sS'rsrc_print_name'
p2121
(L134905776L
L134905853L
tp2122
sS'_bfd_link_hash_newfunc'
p2123
(L134592112L
L134592216L
tp2124
sS'bfd_set_section_flags'
p2125
(L134582448L
L134582465L
tp2126
sS'bfd_elf32_core_file_pid'
p2127
(L134686176L
L134686196L
tp2128
sS'_bfd_stab_section_offset'
p2129
(L134971232L
L134971317L
tp2130
sS'bfd_elf32_object_p'
p2131
(L134682736L
L134684698L
tp2132
sS'_bfd_elf_section_already_linked'
p2133
(L134828304L
L134829221L
tp2134
sS'htab_clear_slot'
p2135
(L135046208L
L135046282L
tp2136
sS'_bfd_elf_get_synthetic_symtab'
p2137
(L134749552L
L134750433L
tp2138
sS'_bfd_elf_swap_verdef_in'
p2139
(L134691952L
L134692082L
tp2140
sS'memory_bstat'
p2141
(L134550608L
L134550726L
tp2142
sS'bfd_elf_gc_record_vtinherit'
p2143
(L134826208L
L134826446L
tp2144
sS'bfd_elf32_swap_dyn_out'
p2145
(L134676496L
L134676557L
tp2146
sS'dlang_parse_symbol'
p2147
(L135040368L
L135040839L
tp2148
sS'bfd_get_next_mapent'
p2149
(L134530672L
L134530774L
tp2150
sS'insert_info_hash_table'
p2151
(L134632448L
L134632545L
tp2152
sS'java_demangle_v3_callback'
p2153
(L135033840L
L135033866L
tp2154
sS'elf_i386_fbsd_post_process_headers'
p2155
(L134643760L
L134643765L
tp2156
sS'bfd_plugin_make_empty_symbol'
p2157
(L134957104L
L134957139L
tp2158
sS'elf_i386_finish_dynamic_sections'
p2159
(L134645312L
L134646896L
tp2160
sS'_bfd_elf_eh_frame_address_size'
p2161
(L134849584L
L134849612L
tp2162
sS'dos_lbasename'
p2163
(L135047264L
L135047337L
tp2164
sS'bfd_simple_get_relocated_section_contents'
p2165
(L134639680L
L134640377L
tp2166
sS'aout_32_get_symtab_upper_bound'
p2167
(L134875952L
L134875999L
tp2168
sS'internal_cplus_demangle'
p2169
(L134997968L
L134999714L
tp2170
sS'bfd_get_reloc_upper_bound'
p2171
(L134547008L
L134547061L
tp2172
sS'bfd_zmalloc2'
p2173
(L134572112L
L134572248L
tp2174
sS'bfd_make_section_anyway'
p2175
(L134582144L
L134582179L
tp2176
sS'_bfd_coff_write_task_globals'
p2177
(L134940144L
L134940237L
tp2178
sS'_bfd_get_elt_at_filepos'
p2179
(L134532384L
L134533086L
tp2180
sS'bfd_get_reloc_size'
p2181
(L134962400L
L134962548L
tp2182
sS'_bfd_elf_link_hash_newfunc'
p2183
(L134753072L
L134753291L
tp2184
sS'bfd_generic_merge_sections'
p2185
(L134966608L
L134966614L
tp2186
sS'bfd_is_section_compressed'
p2187
(L134641424L
L134641636L
tp2188
sS'_bfd_slurp_extended_name_table'
p2189
(L134535632L
L134536235L
tp2190
sS'bfd_elf_match_symbols_in_sections'
p2191
(L134753360L
L134755235L
tp2192
sS'_bfd_generic_read_ar_hdr'
p2193
(L134532224L
L134532251L
tp2194
sS'generic_link_check_archive_element_collect'
p2195
(L134599312L
L134599337L
tp2196
sS'ihex_write_object_contents'
p2197
(L134617552L
L134618381L
tp2198
sS'_bfd_elf_strtab_refcount'
p2199
(L134834672L
L134834690L
tp2200
sS'init_reloc_cookie'
p2201
(L134751632L
L134751906L
tp2202
sS'aout_32_read_minisymbols'
p2203
(L134876432L
L134876559L
tp2204
sS'_bfd_elf_get_special_section'
p2205
(L134697136L
L134697348L
tp2206
sS'string_prependn'
p2207
(L134976608L
L134976695L
tp2208
sS'linux_link_hash_table_create'
p2209
(L134852864L
L134852956L
tp2210
sS'elf_gc_propagate_vtable_entries_used'
p2211
(L134750848L
L134751042L
tp2212
sS'd_discriminator'
p2213
(L135000832L
L135000867L
tp2214
sS'elf_i386_size_dynamic_sections'
p2215
(L134650032L
L134653509L
tp2216
sS'bfd_elf_print_symbol'
p2217
(L134695712L
L134696604L
tp2218
sS'cplus_demangle_set_style'
p2219
(L134978208L
L134978249L
tp2220
sS'_bfd_generic_new_section_hook'
p2221
(L134580864L
L134580951L
tp2222
sS'_bfd_elf_swap_vernaux_in'
p2223
(L134692624L
L134692722L
tp2224
sS'aout_32_final_link'
p2225
(L134878448L
L134885332L
tp2226
sS'_bfd_elf_copy_link_hash_symbol_type'
p2227
(L134829584L
L134829652L
tp2228
sS'coff_count_linenumbers'
p2229
(L134555232L
L134555469L
tp2230
sS'get_file_size'
p2231
(L134527504L
L134527772L
tp2232
sS'htab_remove_elt'
p2233
(L135046160L
L135046200L
tp2234
sS'bfd_get_section_by_name'
p2235
(L134581040L
L134581100L
tp2236
sS'bfd_elf_gc_mark_dynamic_ref_symbol'
p2237
(L134824848L
L134825032L
tp2238
sS'_bfd_elfcore_strndup'
p2239
(L134731552L
L134731649L
tp2240
sS'_bfd_coff_section_already_linked'
p2241
(L134568048L
L134568449L
tp2242
sS'bfd_record_phdr'
p2243
(L134549136L
L134549394L
tp2244
sS'elfcore_write_xstatereg'
p2245
(L134746752L
L134746819L
tp2246
sS'bfd_elf_is_group_section'
p2247
(L134695440L
L134695462L
tp2248
sS'_bfd_stringtab_add'
p2249
(L134590752L
L134591045L
tp2250
sS'generic_link_check_archive_element'
p2251
(L134598800L
L134599279L
tp2252
sS'i386_aout_linux_callback'
p2253
(L134854064L
L134855446L
tp2254
sS'eq_file_ptr'
p2255
(L134529056L
L134529083L
tp2256
sS'_bfd_elf_strtab_size'
p2257
(L134834880L
L134834896L
tp2258
sS'd_print_array_type'
p2259
(L135018752L
L135019391L
tp2260
sS'd_number_component'
p2261
(L135000592L
L135000659L
tp2262
sS'_bfd_elf_strtab_addref'
p2263
(L134834400L
L134834507L
tp2264
sS'bfd_search_for_target'
p2265
(L134588576L
L134588649L
tp2266
sS'bfd_section_init'
p2267
(L134580560L
L134580680L
tp2268
sS'countargv'
p2269
(L135035712L
L135035762L
tp2270
sS'elf_link_sort_cmp1'
p2271
(L134755728L
L134755815L
tp2272
sS'_bfd_elf_link_hash_hide_symbol'
p2273
(L134804672L
L134804754L
tp2274
sS'elf_i386_link_hash_newfunc'
p2275
(L134654928L
L134655023L
tp2276
sS'bfd_open_file'
p2277
(L134960368L
L134960663L
tp2278
sS'cplus_demangle_fill_extended_operator'
p2279
(L135021408L
L135021468L
tp2280
sS'aout_32_sizeof_headers'
p2281
(L134877984L
L134877998L
tp2282
sS'_bfd_elf_strtab_init'
p2283
(L134833984L
L134834108L
tp2284
sS'bfd_hide_sym_by_version'
p2285
(L134604960L
L134605007L
tp2286
sS'_bfd_elf_common_section_index'
p2287
(L134829248L
L134829254L
tp2288
sS'bfd_void'
p2289
(L134571296L
L134571298L
tp2290
sS'aout_32_minisymbol_to_symbol'
p2291
(L134876560L
L134876817L
tp2292
sS'bfd_scan_vma'
p2293
(L134549024L
L134549029L
tp2294
sS'pe_ILF_make_a_symbol_reloc'
p2295
(L134901584L
L134901724L
tp2296
sS'_bfd_nearby_section'
p2297
(L134603824L
L134604133L
tp2298
sS'comp_unit_find_nearest_line'
p2299
(L134633072L
L134633495L
tp2300
sS'bfd_check_overflow'
p2301
(L134962560L
L134962762L
tp2302
sS'_bfd_elf_set_arch_mach'
p2303
(L134729584L
L134729644L
tp2304
sS'_bfd_generic_read_minisymbols'
p2305
(L134584576L
L134584778L
tp2306
sS'simple_dummy_reloc_dangerous'
p2307
(L134639504L
L134639510L
tp2308
sS'linux_add_one_symbol'
p2309
(L134856336L
L134857017L
tp2310
sS'bfd_zalloc'
p2311
(L134579072L
L134579131L
tp2312
sS'elf_i386_copy_indirect_symbol'
p2313
(L134644544L
L134644838L
tp2314
sS'bfd_hash_rename'
p2315
(L134589824L
L134590019L
tp2316
sS'bfd_wrapped_link_hash_lookup'
p2317
(L134592528L
L134592991L
tp2318
sS'_bfd_elf_no_info_to_howto'
p2319
(L134730624L
L134730655L
tp2320
sS'elf_sort_sections'
p2321
(L134687664L
L134687836L
tp2322
sS'opncls_bclose'
p2323
(L134575152L
L134575195L
tp2324
sS'htab_elements'
p2325
(L135044192L
L135044203L
tp2326
sS'verilog_set_arch_mach'
p2327
(L134642384L
L134642421L
tp2328
sS'bfd_make_section_anyway_with_flags'
p2329
(L134581968L
L134582142L
tp2330
sS'htab_create_alloc_ex'
p2331
(L135044208L
L135044381L
tp2332
sS'coff_find_nearest_line_with_names'
p2333
(L134566160L
L134567491L
tp2334
sS'xstrerror'
p2335
(L135051360L
L135051442L
tp2336
sS'bfd_plugin_core_file_failing_command'
p2337
(L134956912L
L134956941L
tp2338
sS'work_stuff_copy_to_from'
p2339
(L134977168L
L134977894L
tp2340
sS'_bfd_elf_write_section_eh_frame'
p2341
(L134845008L
L134848566L
tp2342
sS'_bfd_elf_write_corefile_contents'
p2343
(L134715600L
L134715605L
tp2344
sS'bfd_arch_list'
p2345
(L134545440L
L134545569L
tp2346
sS'bfd_elf_mkcorefile'
p2347
(L134693280L
L134693359L
tp2348
sS'coff_swap_scnhdr_in'
p2349
(L134889904L
L134890169L
tp2350
sS'rsrc_print_resource_entries'
p2351
(L134906704L
L134907720L
tp2352
sS'bfd_elf_link_mark_dynamic_symbol'
p2353
(L134750608L
L134750714L
tp2354
sS'_bfd_coff_read_string_table'
p2355
(L134559568L
L134559962L
tp2356
sS'_bfd_generic_link_hash_newfunc'
p2357
(L134592224L
L134592319L
tp2358
sS'dummy_reloc16_extra_cases'
p2359
(L134886800L
L134886831L
tp2360
sS'coff_print_symbol'
p2361
(L134564688L
L134566113L
tp2362
sS'elf_i386_grok_psinfo'
p2363
(L134643872L
L134644234L
tp2364
sS'skip_cfa_op'
p2365
(L134835936L
L134836336L
tp2366
sS'MY_final_link_callback'
p2367
(L134851520L
L134851826L
tp2368
sS'bfd_generic_link_read_symbols'
p2369
(L134594784L
L134594813L
tp2370
sS'_bfd_elf_link_hash_table_init'
p2371
(L134804768L
L134804878L
tp2372
sS'aout_32_reloc_name_lookup'
p2373
(L134865888L
L134865995L
tp2374
sS'd_lookup_template_argument'
p2375
(L135001792L
L135001902L
tp2376
sS'fini_reloc_cookie_for_section'
p2377
(L134751488L
L134751560L
tp2378
sS'binary_canonicalize_symtab'
p2379
(L134612048L
L134612263L
tp2380
sS'arange_add'
p2381
(L134623840L
L134624029L
tp2382
sS'coff_make_empty_symbol'
p2383
(L134563984L
L134564047L
tp2384
sS'coff_i386_reloc_name_lookup'
p2385
(L134890272L
L134890359L
tp2386
sS'elfcore_write_prxfpreg'
p2387
(L134746672L
L134746739L
tp2388
sS'unwrap_hash_lookup'
p2389
(L134594096L
L134594358L
tp2390
sS'get_dynamic_reloc_section_name'
p2391
(L134756624L
L134756748L
tp2392
sS'aout_32_swap_exec_header_in'
p2393
(L134866000L
L134866249L
tp2394
sS'_bfd_pei_swap_aux_in'
p2395
(L134914032L
L134914720L
tp2396
sS'elfcore_write_prfpreg'
p2397
(L134746592L
L134746659L
tp2398
sS'_bfd_elf_strtab_free'
p2399
(L134834112L
L134834152L
tp2400
sS'htab_delete'
p2401
(L135044816L
L135044935L
tp2402
sS'bfd_demangle'
p2403
(L134549968L
L134550553L
tp2404
sS'elfcore_write_s390_tdb'
p2405
(L134747552L
L134747619L
tp2406
sS'bfd_get_stab_name'
p2407
(L134971328L
L134971354L
tp2408
sS'size_of_output_cie_fde'
p2409
(L134835856L
L134835930L
tp2410
sS'_bfd_write_merged_section'
p2411
(L134974256L
L134974633L
tp2412
sS'comp_unit_find_line'
p2413
(L134632048L
L134632436L
tp2414
sS'cache_bflush'
p2415
(L134961408L
L134961496L
tp2416
sS'bfd_section_already_linked_table_lookup'
p2417
(L134602736L
L134602779L
tp2418
sS'bfd_elf_get_default_section_type'
p2419
(L134698672L
L134698699L
tp2420
sS'dlang_identifier'
p2421
(L135039328L
L135040366L
tp2422
sS'd_encoding'
p2423
(L135030048L
L135031507L
tp2424
sS'bfd_is_undefined_symclass'
p2425
(L134584448L
L134584475L
tp2426
sS'cie_eq'
p2427
(L134836464L
L134836727L
tp2428
sS'bfd_link_hash_traverse'
p2429
(L134594368L
L134594512L
tp2430
sS'tekhex_get_symtab_upper_bound'
p2431
(L134613120L
L134613135L
tp2432
sS'coff_link_add_object_symbols'
p2433
(L134936192L
L134938710L
tp2434
sS'_bfd_elf_merge_unknown_attribute_list'
p2435
(L134833472L
L134833751L
tp2436
sS'_bfd_stringtab_size'
p2437
(L134591056L
L134591064L
tp2438
sS'u16_mbtouc'
p2439
(L134909472L
L134909561L
tp2440
sS'_bfd_elf_check_kept_section'
p2441
(L134806640L
L134806802L
tp2442
sS'elf_swap_ehdr_out'
p2443
(L134678528L
L134678864L
tp2444
sS'_bfd_pei_only_swap_filehdr_out'
p2445
(L134917920L
L134919022L
tp2446
sS'_bfd_elf_encode_eh_address'
p2447
(L134849632L
L134849674L
tp2448
sS'_bfd_elf_compute_section_file_positions'
p2449
(L134702192L
L134714859L
tp2450
sS'bfd_arch_bits_per_byte'
p2451
(L134545728L
L134545739L
tp2452
sS'_bfd_stringtab_init'
p2453
(L134590544L
L134590660L
tp2454
sS'aout_32_link_hash_table_init'
p2455
(L134878192L
L134878197L
tp2456
sS'_bfd_elf_get_symbol_info'
p2457
(L134729440L
L134729461L
tp2458
sS'bfd_get_archive_filename'
p2459
(L134527776L
L134528024L
tp2460
sS'bfd_elf32_checksum_contents'
p2461
(L134681968L
L134682725L
tp2462
sS'archive_close_worker'
p2463
(L134530208L
L134530237L
tp2464
sS'do_type'
p2465
(L134984608L
L134987877L
tp2466
sS'getpwd'
p2467
(L135043056L
L135043339L
tp2468
sS'bfd_getl_signed_32'
p2469
(L134572704L
L134572741L
tp2470
sS'bfd_calc_gnu_debuglink_crc32'
p2471
(L134579472L
L134579525L
tp2472
sS'linux_link_hash_newfunc'
p2473
(L134852960L
L134853036L
tp2474
sS'generic_link_check_archive_element_no_collect'
p2475
(L134599280L
L134599305L
tp2476
sS'bfd_getb64'
p2477
(L134572752L
L134572877L
tp2478
sS'd_parmlist'
p2479
(L135024176L
L135024376L
tp2480
sS'_bfd_elf_archive_symbol_lookup'
p2481
(L134780304L
L134780624L
tp2482
sS'aout_32_some_aout_object_p'
p2483
(L134866592L
L134867382L
tp2484
sS'__moddi3'
p2485
(L135051840L
L135052290L
tp2486
sS'pe_print_debugdata'
p2487
(L134920288L
L134921627L
tp2488
sS'_bfd_generic_get_section_contents_in_window'
p2489
(L134574192L
L134574223L
tp2490
sS'bfd_elf_link_record_dynamic_symbol'
p2491
(L134770240L
L134770462L
tp2492
sS'__divdi3'
p2493
(L135051456L
L135051826L
tp2494
sS'cie_hash'
p2495
(L134835840L
L134835848L
tp2496
sS'xmalloc_failed'
p2497
(L135050960L
L135051083L
tp2498
sS'bfd_elf_gc_record_vtentry'
p2499
(L134826448L
L134826778L
tp2500
sS'bfd_plugin_set_program_name'
p2501
(L134958560L
L134958570L
tp2502
sS'__libc_csu_init'
p2503
(L135052656L
L135052753L
tp2504
sS'_bfd_elf_adjust_dynamic_copy'
p2505
(L134778832L
L134778927L
tp2506
sS'_bfd_coff_generic_relocate_section'
p2507
(L134955120L
L134956470L
tp2508
sS'htab_create_typed_alloc'
p2509
(L135044384L
L135044537L
tp2510
sS'_bfd_elf_create_got_section'
p2511
(L134768864L
L134769184L
tp2512
sS'd_operator_name'
p2513
(L135023744L
L135024174L
tp2514
sS'bfd_set_arch_info'
p2515
(L134545680L
L134545692L
tp2516
sS'bfd_target_list'
p2517
(L134588432L
L134588562L
tp2518
sS'elf_vxworks_final_write_processing'
p2519
(L134675392L
L134675502L
tp2520
sS'elf_i386_rtype_to_howto'
p2521
(L134645024L
L134645190L
tp2522
sS'filename_hash'
p2523
(L135042944L
L135043005L
tp2524
sS'_bfd_generic_link_hash_table_create'
p2525
(L134594688L
L134594780L
tp2526
sS'bfd_mmap'
p2527
(L134552640L
L134552709L
tp2528
sS'read_signed_leb128'
p2529
(L134574864L
L134574933L
tp2530
sS'aout_32_set_section_contents'
p2531
(L134870080L
L134870483L
tp2532
sS'_bfd_stringtab_emit'
p2533
(L134591072L
L134591229L
tp2534
sS'_bfd_discard_section_stabs'
p2535
(L134969824L
L134970546L
tp2536
sS'pe_ILF_make_a_symbol'
p2537
(L134890400L
L134890801L
tp2538
sS'comp_unit_contains_address'
p2539
(L134623536L
L134623574L
tp2540
sS'objalloc_free'
p2541
(L135050384L
L135050438L
tp2542
sS'bfd_get_assert_handler'
p2543
(L134546592L
L134546598L
tp2544
sS'_bfd_elf_new_section_hook'
p2545
(L134697520L
L134697727L
tp2546
sS'elf_link_read_relocs_from_section'
p2547
(L134756000L
L134756520L
tp2548
sS'objalloc_free_block'
p2549
(L135050448L
L135050766L
tp2550
sS'_bfd_elf_link_create_dynamic_sections'
p2551
(L134769184L
L134769836L
tp2552
sS'bfd_arch_mach_octets_per_byte'
p2553
(L134546080L
L134546137L
tp2554
sS'aout_link_includes_newfunc'
p2555
(L134859120L
L134859210L
tp2556
sS'bfd_elf_set_dt_needed_name'
p2557
(L134804992L
L134805037L
tp2558
sS'verilog_write_object_contents'
p2559
(L134642544L
L134643040L
tp2560
sS'elf_i386_allocate_local_dynrelocs'
p2561
(L134668176L
L134668262L
tp2562
sS'bfd_get_linker_section'
p2563
(L134581184L
L134581278L
tp2564
sS'_bfd_generic_section_already_linked'
p2565
(L134603616L
L134603809L
tp2566
sS'_bfd_stringtab_free'
p2567
(L134590704L
L134590743L
tp2568
sS'dlang_parse_integer'
p2569
(L135037040L
L135037702L
tp2570
sS'get_segment_type'
p2571
(L134687504L
L134687662L
tp2572
sS'bfd_getb_signed_32'
p2573
(L134572656L
L134572691L
tp2574
sS'_bfd_pei_swap_debugdir_in'
p2575
(L134920144L
L134920287L
tp2576
sS'bfd_make_section_with_flags'
p2577
(L134582192L
L134582390L
tp2578
sS'_bfd_abort'
p2579
(L134546720L
L134546916L
tp2580
sS'bfd_dont_truncate_arname'
p2581
(L134538336L
L134538506L
tp2582
sS'concat'
p2583
(L135036016L
L135036161L
tp2584
sS'bfd_elf_link_add_symbols'
p2585
(L134780624L
L134793884L
tp2586
sS'unlink_if_ordinary'
p2587
(L135050768L
L135050857L
tp2588
sS'xcalloc'
p2589
(L135051136L
L135051207L
tp2590
sS'consume_count'
p2591
(L134975216L
L134975296L
tp2592
sS'memory_bclose'
p2593
(L134550736L
L134550786L
tp2594
sS'_bfd_elf_gc_mark'
p2595
(L134823888L
L134824307L
tp2596
sS'bfd_get_mach'
p2597
(L134545712L
L134545723L
tp2598
sS'bfd_elf_perform_complex_relocation'
p2599
(L134805744L
L134806551L
tp2600
sS'bfd_elf32_slurp_symbol_table'
p2601
(L134676752L
L134678231L
tp2602
sS'rsrc_compute_region_sizes'
p2603
(L134905520L
L134905689L
tp2604
sS'bfd_reloc_name_lookup'
p2605
(L134966240L
L134966255L
tp2606
sS'concat_copy2'
p2607
(L135035920L
L135036006L
tp2608
sS'demangle_args'
p2609
(L134991568L
L134992259L
tp2610
sS'bfd_cache_lookup_worker'
p2611
(L134960672L
L134960981L
tp2612
sS'bfd_coff_get_auxent'
p2613
(L134564384L
L134564673L
tp2614
sS'remember_Ktype'
p2615
(L134975824L
L134975960L
tp2616
sS'elf_swap_shdr_out'
p2617
(L134679088L
L134679283L
tp2618
sS'bfd_cache_section_contents'
p2619
(L134641376L
L134641418L
tp2620
sS'bfd_elf_set_dyn_lib_class'
p2621
(L134805104L
L134805149L
tp2622
s.