(dp0
S'stab_set_type'
p1
(L134651600L
L134651847L
tp2
sS'stab_array_type'
p3
(L134651856L
L134652234L
tp4
sS'bfd_elf_get_elf_syms'
p5
(L134825280L
L134826137L
tp6
sS'is_specified_symbol_predicate'
p7
(L134536512L
L134536601L
tp8
sS'_bfd_elf_swap_versym_in'
p9
(L134824272L
L134824303L
tp10
sS'opncls_bflush'
p11
(L134706576L
L134706579L
tp12
sS'copy_relocations_in_section'
p13
(L134542352L
L134542895L
tp14
sS'elf_new_obj_attr'
p15
(L134961648L
L134961763L
tp16
sS'coff_write_alien_symbol'
p17
(L134688464L
L134689056L
tp18
sS'bfd_close'
p19
(L134709296L
L134709532L
tp20
sS'fix_syms'
p21
(L134735520L
L134735644L
tp22
sS'copy_section'
p23
(L134541472L
L134542342L
tp24
sS'bfd_get_full_section_contents'
p25
(L134772032L
L134772772L
tp26
sS'lrealpath'
p27
(L135179904L
L135179999L
tp28
sS'cplus_demangle_opname'
p29
(L135121696L
L135122704L
tp30
sS'_bfd_elf_link_output_relocs'
p31
(L134909776L
L134910181L
tp32
sS'_bfd_archive_bsd_update_armap_timestamp'
p33
(L134674496L
L134674846L
tp34
sS'tekhex_set_arch_mach'
p35
(L134744864L
L134744919L
tp36
sS'ieee_class_static_method_variant'
p37
(L134619248L
L134619309L
tp38
sS'_bfd_generic_copy_link_hash_symbol_type'
p39
(L134726240L
L134726242L
tp40
sS'_bfd_pei_swap_debugdir_out'
p41
(L135053040L
L135053220L
tp42
sS'_bfd_elf_default_relocs_compatible'
p43
(L134911552L
L134911567L
tp44
sS'stab_function_parameter'
p45
(L134646896L
L134647167L
tp46
sS'_bfd_elf_make_section_from_shdr_0'
p47
(L134868096L
L134871462L
tp48
sS'debug_make_static_method_variant'
p49
(L134568352L
L134568510L
tp50
sS'd_print_mod_list'
p51
(L135149600L
L135150532L
tp52
sS'_bfd_generic_get_elt_at_index'
p53
(L134664880L
L134664932L
tp54
sS'ieee_function_type'
p55
(L134613104L
L134613692L
tp56
sS'_bfd_elf_link_read_relocs'
p57
(L134908640L
L134909236L
tp58
sS'ieee_end_class_type'
p59
(L134615136L
L134615828L
tp60
sS'_bfd_bsd44_write_ar_hdr'
p61
(L134669440L
L134669745L
tp62
sS'bfd_zmalloc'
p63
(L134703408L
L134703478L
tp64
sS'aout_32_print_symbol'
p65
(L135007584L
L135007834L
tp66
sS'bfd_sym_from_r_symndx'
p67
(L134828144L
L134828486L
tp68
sS'write_stabs_in_sections_debugging_info'
p69
(L134655376L
L134656007L
tp70
sS'decode_line_info'
p71
(L134757824L
L134760790L
tp72
sS'free_saved_stabs'
p73
(L134553600L
L134553662L
tp74
sS'_bfd_elf_find_inliner_info'
p75
(L134861664L
L134861723L
tp76
sS'consume_count'
p77
(L135107008L
L135107088L
tp78
sS'real_ftell'
p79
(L134683248L
L134683253L
tp80
sS'demangle_expression'
p81
(L135113184L
L135113570L
tp82
sS'ieee_add_bb11'
p83
(L134621264L
L134622017L
tp84
sS'_bfd_elf_reloc_type_class'
p85
(L134880512L
L134880515L
tp86
sS'elf_generic_info_to_howto_rel'
p87
(L135087904L
L135087916L
tp88
sS'd_print_array_type'
p89
(L135150544L
L135151183L
tp90
sS'compare_sequences'
p91
(L134754864L
L134754935L
tp92
sS'freeargv'
p93
(L135165936L
L135165998L
tp94
sS'coff_i386_reloc_name_lookup'
p95
(L135021680L
L135021767L
tp96
sS'bfd_elf32_swap_symbol_out'
p97
(L134807968L
L134808151L
tp98
sS'_bfd_ar_spacepad'
p99
(L134662032L
L134662195L
tp100
sS'debug_end_block'
p101
(L134565152L
L134565298L
tp102
sS'binary_get_symtab_upper_bound'
p103
(L134743216L
L134743222L
tp104
sS'bfd_put_bits'
p105
(L134704928L
L134705049L
tp106
sS'warn_stab'
p107
(L134570816L
L134570892L
tp108
sS'bfd_elf_set_obj_attr_contents'
p109
(L134962080L
L134962541L
tp110
sS'cmpindexentry'
p111
(L134714832L
L134714860L
tp112
sS'rsrc_sort_entries'
p113
(L135040976L
L135044616L
tp114
sS'coff_i386_is_local_label_name'
p115
(L135021776L
L135021798L
tp116
sS'bfd_elf_record_link_assignment'
p117
(L134907344L
L134907919L
tp118
sS'elf_parse_notes'
p119
(L134863072L
L134868096L
tp120
sS'parse_vma'
p121
(L134659200L
L134659294L
tp122
sS'ieee_void_type'
p123
(L134598000L
L134598041L
tp124
sS'make_tempname'
p125
(L134659104L
L134659164L
tp126
sS'get_dynamic_reloc_section_name'
p127
(L134888032L
L134888156L
tp128
sS'simple_dummy_reloc_overflow'
p129
(L134770896L
L134770902L
tp130
sS'separate_debug_file_exists'
p131
(L134707136L
L134707335L
tp132
sS'cache_bclose'
p133
(L135091440L
L135091483L
tp134
sS'elf_i386_gc_mark_hook'
p135
(L134776640L
L134776718L
tp136
sS'_bfd_final_link_relocate'
p137
(L135097456L
L135097646L
tp138
sS'ieee_int_constant'
p139
(L134596912L
L134596918L
tp140
sS'aout_32_swap_exec_header_out'
p141
(L134997664L
L134997839L
tp142
sS'stab_bool_type'
p143
(L134649248L
L134649283L
tp144
sS'bfd_get_error_handler'
p145
(L134678352L
L134678358L
tp146
sS'coff_set_arch_mach_hook'
p147
(L135021584L
L135021669L
tp148
sS'bfd_putb64'
p149
(L134704768L
L134704845L
tp150
sS'_bfd_norelocs_canonicalize_reloc'
p151
(L134702704L
L134702717L
tp152
sS'd_template_param'
p153
(L135132528L
L135132614L
tp154
sS'concat_length'
p155
(L135167568L
L135167620L
tp156
sS'bfd_openstreamr'
p157
(L134709072L
L134709180L
tp158
sS'_bfd_coff_link_hash_table_create'
p159
(L135071808L
L135071900L
tp160
sS'elf_i386_finish_local_dynamic_symbol'
p161
(L134780032L
L134780076L
tp162
sS'bfd_elf32_swap_reloc_in'
p163
(L134807552L
L134807610L
tp164
sS'parse_die'
p165
(L134981088L
L134981591L
tp166
sS'elfcore_write_s390_timer'
p167
(L134878400L
L134878467L
tp168
sS'warn_deprecated'
p169
(L134705968L
L134706167L
tp170
sS'bfd_compress_section_contents'
p171
(L134771792L
L134772026L
tp172
sS'debug_type_samep'
p173
(L134557040L
L134559021L
tp174
sS'cplus_demangle_fill_name'
p175
(L135153136L
L135153194L
tp176
sS'_bfd_elf_default_action_discarded'
p177
(L134937968L
L134938044L
tp178
sS'bfd_elf_discard_info'
p179
(L134959072L
L134959706L
tp180
sS'string_append_template_idx'
p181
(L135108608L
L135108709L
tp182
sS'bfd_elf_gc_common_finalize_got_offsets'
p183
(L134958592L
L134958995L
tp184
sS'bfd_generic_gc_sections'
p185
(L135098352L
L135098358L
tp186
sS'pe_ILF_save_relocs'
p187
(L135022784L
L135022908L
tp188
sS'bfd_symbol_info'
p189
(L134715856L
L134715938L
tp190
sS'd_make_comp'
p191
(L135131520L
L135131627L
tp192
sS'debug_get_parameter_types'
p193
(L134569952L
L134570046L
tp194
sS'debug_start_common_block'
p195
(L134565680L
L134565750L
tp196
sS'elfcore_maybe_make_sect'
p197
(L134821120L
L134821220L
tp198
sS'bfd_coff_set_long_section_names_allowed'
p199
(L135017152L
L135017178L
tp200
sS'bfd_generic_relax_section'
p201
(L135098272L
L135098344L
tp202
sS'elf_i386_fake_sections'
p203
(L134775232L
L134775273L
tp204
sS'smart_rename'
p205
(L134553136L
L134553592L
tp206
sS'bfd_hash_set_default_size'
p207
(L134721872L
L134721910L
tp208
sS'bfd_install_relocation'
p209
(L135095680L
L135096602L
tp210
sS'debug_make_const_type'
p211
(L134567680L
L134567724L
tp212
sS'_bfd_elf_setup_sections'
p213
(L134826272L
L134826844L
tp214
sS'bfd_elf_final_link'
p215
(L134944144L
L134954795L
tp216
sS'elf_i386_reloc_type_class'
p217
(L134775136L
L134775163L
tp218
sS'elf_i386_readonly_dynrelocs'
p219
(L134776256L
L134776426L
tp220
sS'display_info'
p221
(L134657328L
L134658771L
tp222
sS'ieee_start_source'
p223
(L134596896L
L134596902L
tp224
sS'_bfd_coff_reloc_link_order'
p225
(L135080992L
L135081723L
tp226
sS'_bfd_elf_find_nearest_line'
p227
(L134861056L
L134861527L
tp228
sS'find_target'
p229
(L134719056L
L134719223L
tp230
sS'bfd_arch_i386_onebyte_nop_fill'
p231
(L135090256L
L135090318L
tp232
sS'ieee_lineno'
p233
(L134607744L
L134608859L
tp234
sS'ihex_get_section_contents'
p235
(L134752656L
L134753373L
tp236
sS'elfcore_write_s390_todpreg'
p237
(L134878560L
L134878627L
tp238
sS'stab_demangle_type'
p239
(L134576256L
L134578868L
tp240
sS'bfd_0u'
p241
(L134702608L
L134702611L
tp242
sS'_bfd_elf_write_object_contents'
p243
(L134846272L
L134846997L
tp244
sS'cplus_mangle_opname'
p245
(L135109856L
L135109994L
tp246
sS'bfd_follow_gnu_debuglink'
p247
(L134711296L
L134711322L
tp248
sS'coff_real_object_p'
p249
(L134691760L
L134693312L
tp250
sS'_bfd_nocore_core_file_failing_command'
p251
(L134702752L
L134702773L
tp252
sS'aout_32_translate_symbol_table'
p253
(L135001952L
L135002793L
tp254
sS'ieee_float_type'
p255
(L134599248L
L134599418L
tp256
sS'bfd_section_already_linked_table_free'
p257
(L134734288L
L134734307L
tp258
sS'stab_pop_type'
p259
(L134644640L
L134644708L
tp260
sS'already_linked_newfunc'
p261
(L134722608L
L134722646L
tp262
sS'save_stab'
p263
(L134553664L
L134553783L
tp264
sS'make_temp_file'
p265
(L135182288L
L135182524L
tp266
sS'ieee_array_type'
p267
(L134612352L
L134612762L
tp268
sS'bfd_plugin_make_empty_symbol'
p269
(L135088512L
L135088547L
tp270
sS'strtab_hash_newfunc'
p271
(L134721632L
L134721694L
tp272
sS'srec_get_symtab_upper_bound'
p273
(L134736400L
L134736415L
tp274
sS'bfd_set_error_program_name'
p275
(L134678336L
L134678346L
tp276
sS'bfd_generic_discard_group'
p277
(L134714816L
L134714822L
tp278
sS'_bfd_elf_eh_frame_section_offset'
p279
(L134975920L
L134976412L
tp280
sS'parse_number'
p281
(L134571216L
L134571361L
tp282
sS'_bfd_elf_link_hash_hide_symbol'
p283
(L134936080L
L134936162L
tp284
sS'bfd_perror'
p285
(L134678176L
L134678319L
tp286
sS'ieee_read_optional_number'
p287
(L134622576L
L134622848L
tp288
sS'simple_save_output_info'
p289
(L134770976L
L134771027L
tp290
sS'bfd_generic_lookup_section_flags'
p291
(L135098368L
L135098431L
tp292
sS'bfd_plugin_core_file_failing_signal'
p293
(L135088288L
L135088317L
tp294
sS'java_demangle_v3_callback'
p295
(L135165632L
L135165658L
tp296
sS'bfd_elf_get_dt_soname'
p297
(L134936624L
L134936665L
tp298
sS'debug_init'
p299
(L134563584L
L134563694L
tp300
sS'pe_mkobject'
p301
(L135020240L
L135020403L
tp302
sS'pe_ILF_make_a_section'
p303
(L135022224L
L135022500L
tp304
sS'debug_get_type_name'
p305
(L134569760L
L134569806L
tp306
sS'stab_range_type'
p307
(L134652240L
L134652408L
tp308
sS'bfd_hash_table_init_n'
p309
(L134720032L
L134720247L
tp310
sS'_bfd_elf_canonicalize_symtab'
p311
(L134855056L
L134855113L
tp312
sS'coff_sort_func_alent'
p313
(L135017296L
L135017348L
tp314
sS'debug_make_method_variant'
p315
(L134568176L
L134568345L
tp316
sS'_bfd_elf_can_make_relative'
p317
(L134981024L
L134981030L
tp318
sS'htab_hash_string'
p319
(L135179024L
L135179062L
tp320
sS'bfd_i386_compatible'
p321
(L135090320L
L135090372L
tp322
sS'_bfd_elf_init_2_index_sections'
p323
(L134931680L
L134931865L
tp324
sS'debug_make_static_member'
p325
(L134567984L
L134568134L
tp326
sS'elfcore_write_s390_system_call'
p327
(L134878880L
L134878947L
tp328
sS'bfd_cache_close'
p329
(L135091648L
L135091684L
tp330
sS'debug_record_parameter'
p331
(L134564464L
L134564675L
tp332
sS'remember_type'
p333
(L135109696L
L135109829L
tp334
sS'_bfd_dwarf2_cleanup_debug_info'
p335
(L134764992L
L134765487L
tp336
sS'parse_coff_symbol'
p337
(L134637504L
L134637983L
tp338
sS'_bfd_elf_find_segment_containing_section'
p339
(L134830224L
L134830315L
tp340
sS'bsd_write_armap'
p341
(L134673248L
L134674496L
tp342
sS'srec_mkobject'
p343
(L134737808L
L134737935L
tp344
sS'parse_stab_type'
p345
(L134581808L
L134592668L
tp346
sS'bfd_set_error_handler'
p347
(L134678320L
L134678336L
tp348
sS'ieee_typed_constant'
p349
(L134601360L
L134601383L
tp350
sS'cplus_demangle_type'
p351
(L135153392L
L135155532L
tp352
sS'add_data_entry'
p353
(L135037104L
L135037184L
tp354
sS'bfd_section_from_elf_index'
p355
(L134828496L
L134828531L
tp356
sS'd_function_type'
p357
(L135157136L
L135157218L
tp358
sS'_bfd_elf_size_group_sections'
p359
(L134925360L
L134925442L
tp360
sS'_bfd_elf_get_reloc_upper_bound'
p361
(L134854912L
L134854927L
tp362
sS'bfd_set_format'
p363
(L134702320L
L134702443L
tp364
sS'ieee_read_expression'
p365
(L134622848L
L134623420L
tp366
sS'bfd_make_readable'
p367
(L134709936L
L134710199L
tp368
sS'srec_print_symbol'
p369
(L134737936L
L134738041L
tp370
sS'bfd_errmsg'
p371
(L134677968L
L134678161L
tp372
sS'bfd_elf_get_needed_list'
p373
(L134936560L
L134936580L
tp374
sS'separate_alt_debug_file_exists'
p375
(L134707056L
L134707134L
tp376
sS'elf_create_symbuf'
p377
(L134526242L
L134526624L
tp378
sS'ieee_start_compilation_unit'
p379
(L134610720L
L134611257L
tp380
sS'stab_typdef'
p381
(L134648144L
L134648524L
tp382
sS'_bfd_relocate_contents'
p383
(L135096608L
L135097455L
tp384
sS'bfd_dont_truncate_arname'
p385
(L134670128L
L134670298L
tp386
sS'elf32_i386_nacl_elf_object_p'
p387
(L134786896L
L134786936L
tp388
sS'bfd_getl_signed_16'
p389
(L134703840L
L134703865L
tp390
sS'elf_gc_allocate_got_offsets'
p391
(L134882464L
L134882574L
tp392
sS'elf_merge_st_other'
p393
(L134886752L
L134886851L
tp394
sS'memory_btell'
p395
(L134682352L
L134682363L
tp396
sS'aout_32_adjust_sizes_and_vmas'
p397
(L134999744L
L135001265L
tp398
sS'bfd_log2'
p399
(L134705728L
L134705763L
tp400
sS'string_appendn_0'
p401
(L135169504L
L135169552L
tp402
sS'cplus_demangle'
p403
(L135111504L
L135111777L
tp404
sS'_bfd_elf_get_symtab_upper_bound'
p405
(L134854736L
L134854790L
tp406
sS'bfd_elf_gc_common_final_link'
p407
(L134959008L
L134959066L
tp408
sS'bfd_arch_bits_per_address'
p409
(L134677536L
L134677547L
tp410
sS'_bfd_elf_find_line'
p411
(L134861536L
L134861651L
tp412
sS'elf_i386_adjust_dynamic_symbol'
p413
(L134785200L
L134785768L
tp414
sS'bfd_getb32'
p415
(L134703936L
L134703971L
tp416
sS'bfd_make_writable'
p417
(L134709792L
L134709932L
tp418
sS'report'
p419
(L134656432L
L134656552L
tp420
sS'is_gnu_v3_mangled_dtor'
p421
(L135165712L
L135165747L
tp422
sS'bfd_openr_iovec'
p423
(L134710512L
L134710683L
tp424
sS'bfd_elf32_swap_dyn_in'
p425
(L134807840L
L134807891L
tp426
sS'bfd_rename_section'
p427
(L134713856L
L134713893L
tp428
sS'debug_get_return_type'
p429
(L134569888L
L134569942L
tp430
sS'bfd_elf_set_group_contents'
p431
(L134820576L
L134821114L
tp432
sS'bfd_octets_per_byte'
p433
(L134677792L
L134677857L
tp434
sS'dlang_parse_real'
p435
(L135170224L
L135170744L
tp436
sS'coff_classify_symbol'
p437
(L135022912L
L135023163L
tp438
sS'coff_get_normalized_symtab'
p439
(L134694048L
L134695706L
tp440
sS'bfd_plugin_get_symtab_upper_bound'
p441
(L135088192L
L135088256L
tp442
sS'_bfd_elf_obj_attrs_arg_type'
p443
(L134962720L
L134962831L
tp444
sS'_bfd_elf_get_lineno'
p445
(L134860960L
L134860991L
tp446
sS'd_demangle'
p447
(L135165072L
L135165182L
tp448
sS'bfd_slurp_armap'
p449
(L134665632L
L134666812L
tp450
sS'elfcore_write_ppc_vsx'
p451
(L134878320L
L134878387L
tp452
sS'ieee_name_type_newfunc'
p453
(L134597344L
L134597434L
tp454
sS'template_in_dir'
p455
(L134656016L
L134656130L
tp456
sS'tekhex_get_symbol_info'
p457
(L134744928L
L134744949L
tp458
sS'squangle_mop_up'
p459
(L135107312L
L135107495L
tp460
sS'debug_make_function_type'
p461
(L134567088L
L134567164L
tp462
sS'bfd_elf_hash'
p463
(L134824336L
L134824390L
tp464
sS'_bfd_generic_make_empty_symbol'
p465
(L134715360L
L134715395L
tp466
sS'd_print_comp'
p467
(L135147648L
L135147700L
tp468
sS'hash_file_ptr'
p469
(L134660832L
L134660839L
tp470
sS'bfd_realloc_or_free'
p471
(L134703296L
L134703402L
tp472
sS'bfd_elf_make_object'
p473
(L134824640L
L134824683L
tp474
sS'_bfd_pe_bfd_copy_private_section_data'
p475
(L135064304L
L135064510L
tp476
sS'aout_link_input_section'
p477
(L134992336L
L134997158L
tp478
sS'_bfd_elf_notice_as_needed'
p479
(L134911632L
L134911700L
tp480
sS'_bfd_find_arch_match'
p481
(L134718928L
L134719050L
tp482
sS'demangle_template_template_parm'
p483
(L135122704L
L135123014L
tp484
sS'_bfd_look_for_bfd_in_cache'
p485
(L134662624L
L134662692L
tp486
sS'stab_variable'
p487
(L134647408L
L134647797L
tp488
sS'bfd_alt_mach_code'
p489
(L134681312L
L134681426L
tp490
sS'xmalloc'
p491
(L135183600L
L135183643L
tp492
sS'_bfd_elf_get_dynamic_reloc_section'
p493
(L134960720L
L134960804L
tp494
sS'stab_float_type'
p495
(L134653984L
L134654261L
tp496
sS'elfcore_write_prxfpreg'
p497
(L134878080L
L134878147L
tp498
sS'bfd_check_format_matches'
p499
(L134700256L
L134702269L
tp500
sS'bfd_gnu_truncate_arname'
p501
(L134670304L
L134670450L
tp502
sS'elf_link_input_bfd'
p503
(L134938224L
L134944140L
tp504
sS'dlang_demangle'
p505
(L135175216L
L135175418L
tp506
sS'parse_flags'
p507
(L134538912L
L134539513L
tp508
sS'bfd_decode_symclass'
p509
(L134715408L
L134715813L
tp510
sS'bfd_fatal'
p511
(L134656400L
L134656427L
tp512
sS'tekhex_get_section_contents'
p513
(L134746784L
L134746857L
tp514
sS'srec_set_arch_mach'
p515
(L134737152L
L134737189L
tp516
sS'debug_make_bool_type'
p517
(L134566528L
L134566542L
tp518
sS'debug_tag_type'
p519
(L134568736L
L134569006L
tp520
sS'bfd_plugin_core_file_pid'
p521
(L135088256L
L135088285L
tp522
sS'coff_bad_format_hook'
p523
(L135017184L
L135017234L
tp524
sS'filename_ncmp'
p525
(L135175440L
L135175445L
tp526
sS'_bfd_elf_default_got_elt_size'
p527
(L134960688L
L134960718L
tp528
sS'coff_write_symbol'
p529
(L134684624L
L134686234L
tp530
sS'bfd_nullvoidptr'
p531
(L134702560L
L134702581L
tp532
sS'_bfd_elf_post_process_headers'
p533
(L134881856L
L134881907L
tp534
sS'_bfd_elf_common_definition'
p535
(L134960640L
L134960655L
tp536
sS'stab_typedef_type'
p537
(L134653184L
L134653291L
tp538
sS'bfd_get_reloc_code_name'
p539
(L135098240L
L135098267L
tp540
sS'srec_set_section_contents'
p541
(L134736608L
L134737152L
tp542
sS'debug_make_array_type'
p543
(L134567296L
L134567401L
tp544
sS'bfd_generic_link_read_symbols_0'
p545
(L134723392L
L134723488L
tp546
sS'_bfd_elf_print_private_bfd_data'
p547
(L134857872L
L134860787L
tp548
sS'split_directories'
p549
(L135180064L
L135180437L
tp550
sS'bfd_plugin_bfd_print_private_bfd_data'
p551
(L135088352L
L135088384L
tp552
sS'coff_read_word'
p553
(L134526624L
L134526710L
tp554
sS'demangle_template_value_parm'
p555
(L135111792L
L135113175L
tp556
sS'_bfd_elf_canonicalize_dynamic_symtab'
p557
(L134855120L
L134855177L
tp558
sS'_bfd_elf_maybe_function_sym'
p559
(L134881952L
L134882016L
tp560
sS'pe_print_private_bfd_data'
p561
(L135028560L
L135028595L
tp562
sS'bfd_find_version_for_sym'
p563
(L134735888L
L134736328L
tp564
sS'_bfd_pei_swap_sym_in'
p565
(L135044624L
L135045272L
tp566
sS'bfd_elf32_write_shdrs_and_ehdr'
p567
(L134810704L
L134811063L
tp568
sS'memory_bflush'
p569
(L134682368L
L134682371L
tp570
sS'bfd_set_error'
p571
(L134678720L
L134678795L
tp572
sS'_bfd_elf_common_section'
p573
(L134960672L
L134960678L
tp574
sS'bfd_link_repair_undef_list'
p575
(L134725984L
L134726062L
tp576
sS'bfd_hash_newfunc'
p577
(L134721696L
L134721729L
tp578
sS'elfcore_write_linux_prpsinfo32'
p579
(L134876960L
L134877346L
tp580
sS'stab_tag_0'
p581
(L134647984L
L134648143L
tp582
sS'_bfd_elf_rel_vtable_reloc_fn'
p583
(L134862608L
L134862611L
tp584
sS'_bfd_elf_canonicalize_dynamic_reloc'
p585
(L134855328L
L134855616L
tp586
sS'debug_make_void_type'
p587
(L134566464L
L134566476L
tp588
sS'elf_i386_finish_dynamic_symbol'
p589
(L134778304L
L134780023L
tp590
sS'd_call_offset'
p591
(L135133472L
L135133580L
tp592
sS'string_hash_newfunc'
p593
(L134642672L
L134642778L
tp594
sS'bfd_elf_gc_mark_dynamic_ref_symbol'
p595
(L134956256L
L134956440L
tp596
sS'ieee_volatile_type'
p597
(L134611840L
L134612083L
tp598
sS'elf_adjust_dynstr_offsets'
p599
(L134890192L
L134890238L
tp600
sS'find_debug_info_0'
p601
(L134754992L
L134755093L
tp602
sS'_bfd_elf_discard_section_eh_frame_hdr'
p603
(L134975584L
L134975711L
tp604
sS'mangle_name'
p605
(L134743280L
L134743424L
tp606
sS'bfd_close_all_done'
p607
(L134709536L
L134709708L
tp608
sS'get_sections'
p609
(L134536176L
L134536192L
tp610
sS'xexit'
p611
(L135183376L
L135183402L
tp612
sS'elf_i386_check_relocs'
p613
(L134799680L
L134802096L
tp614
sS'_bfd_elf_strtab_finalize'
p615
(L134966704L
L134967128L
tp616
sS'trad_unix_core_file_p'
p617
(L135090432L
L135091062L
tp618
sS'copy_file'
p619
(L134549616L
L134552704L
tp620
sS'elf_i386_local_htab_hash'
p621
(L134775040L
L134775074L
tp622
sS'qualifier_string'
p623
(L135107808L
L135107896L
tp624
sS'bfd_get_stab_name'
p625
(L134753376L
L134753402L
tp626
sS'bfd_nonfatal'
p627
(L134656256L
L134656400L
tp628
sS'create_info_hash_table'
p629
(L134753872L
L134753976L
tp630
sS'debug_make_method'
p631
(L134568144L
L134568176L
tp632
sS'rsrc_parse_directory'
p633
(L135040560L
L135040868L
tp634
sS'elf_generic_info_to_howto'
p635
(L135087888L
L135087900L
tp636
sS'_bfd_coff_write_task_globals'
p637
(L135071552L
L135071645L
tp638
sS'_bfd_elf_strtab_addref'
p639
(L134965808L
L134965915L
tp640
sS'stab_end_class_type'
p641
(L134644000L
L134644542L
tp642
sS'd_source_name'
p643
(L135132672L
L135132868L
tp644
sS'_bfd_elf_swap_vernaux_in'
p645
(L134824032L
L134824130L
tp646
sS'bfd_elf32_object_p'
p647
(L134814144L
L134816106L
tp648
sS'_bfd_elf_get_synthetic_symtab'
p649
(L134880960L
L134881841L
tp650
sS'bfd_get_next_mapent'
p651
(L134662464L
L134662566L
tp652
sS'elf_i386_finish_dynamic_sections'
p653
(L134776720L
L134778304L
tp654
sS'_bfd_pei_swap_debugdir_in'
p655
(L135051552L
L135051695L
tp656
sS'bfd_simple_get_relocated_section_contents'
p657
(L134771088L
L134771785L
tp658
sS'bfd_get_reloc_upper_bound'
p659
(L134678800L
L134678853L
tp660
sS'bfd_make_section_anyway'
p661
(L134713520L
L134713555L
tp662
sS'_bfd_get_elt_at_filepos'
p663
(L134664176L
L134664878L
tp664
sS'_bfd_elf_link_hash_newfunc'
p665
(L134884480L
L134884699L
tp666
sS'bfd_is_section_compressed'
p667
(L134772832L
L134773044L
tp668
sS'choose_tmpdir'
p669
(L135181792L
L135182280L
tp670
sS'cache_bmmap'
p671
(L135092400L
L135092703L
tp672
sS'bfd_elf_print_symbol'
p673
(L134827120L
L134828012L
tp674
sS'bfd_elf_string_from_elf_section_0'
p675
(L134824800L
L134825266L
tp676
sS'aout_32_get_symbol_info'
p677
(L135007424L
L135007575L
tp678
sS'get_file_size'
p679
(L134659296L
L134659564L
tp680
sS'_bfd_coff_section_already_linked'
p681
(L134699840L
L134700241L
tp682
sS'd_number_component'
p683
(L135132384L
L135132451L
tp684
sS'stab_struct_field'
p685
(L134645056L
L134645485L
tp686
sS'countargv'
p687
(L135167504L
L135167554L
tp688
sS'aout_32_minisymbol_to_symbol'
p689
(L135007968L
L135008225L
tp690
sS'bfd_scan_vma'
p691
(L134680816L
L134680821L
tp692
sS'pe_ILF_make_a_symbol_reloc'
p693
(L135032992L
L135033132L
tp694
sS'srec_get_section_contents'
p695
(L134738128L
L134739171L
tp696
sS'_bfd_elf_set_arch_mach'
p697
(L134860992L
L134861052L
tp698
sS'_bfd_generic_read_minisymbols'
p699
(L134715952L
L134716154L
tp700
sS'ieee_pop_type_used'
p701
(L134600880L
L134601327L
tp702
sS'elf_i386_copy_indirect_symbol'
p703
(L134775952L
L134776246L
tp704
sS'stab_offset_type'
p705
(L134651392L
L134651599L
tp706
sS'bfd_arch_list'
p707
(L134677232L
L134677361L
tp708
sS'bfd_elf_mkcorefile'
p709
(L134824688L
L134824767L
tp710
sS'bfd_elf_link_mark_dynamic_symbol'
p711
(L134882016L
L134882122L
tp712
sS'bfd_generic_link_read_symbols'
p713
(L134726160L
L134726189L
tp714
sS'd_lookup_template_argument'
p715
(L135133584L
L135133694L
tp716
sS'fini_reloc_cookie_for_section'
p717
(L134882896L
L134882968L
tp718
sS'bfd_elf_gc_sections'
p719
(L134956576L
L134957615L
tp720
sS'comp_unit_find_line'
p721
(L134763456L
L134763844L
tp722
sS'_bfd_elf_strtab_add'
p723
(L134965568L
L134965801L
tp724
sS'tekhex_get_symtab_upper_bound'
p725
(L134744496L
L134744511L
tp726
sS'_bfd_pei_only_swap_filehdr_out'
p727
(L135049328L
L135050430L
tp728
sS'aout_32_set_section_contents'
p729
(L135001488L
L135001891L
tp730
sS'archive_close_worker'
p731
(L134662000L
L134662029L
tp732
sS'bfd_calc_gnu_debuglink_crc32'
p733
(L134710848L
L134710901L
tp734
sS'cie_hash'
p735
(L134967248L
L134967256L
tp736
sS'_bfd_elf_create_got_section'
p737
(L134900272L
L134900592L
tp738
sS'bfd_target_list'
p739
(L134719808L
L134719938L
tp740
sS'read_signed_leb128'
p741
(L134706240L
L134706309L
tp742
sS'insert_info_hash_table'
p743
(L134763856L
L134763953L
tp744
sS'pe_ILF_make_a_symbol'
p745
(L135021808L
L135022209L
tp746
sS'rsrc_print_name'
p747
(L135037184L
L135037261L
tp748
sS'elf_link_read_relocs_from_section'
p749
(L134887408L
L134887928L
tp750
sS'objalloc_free_block'
p751
(L135182960L
L135183278L
tp752
sS'_bfd_generic_section_already_linked'
p753
(L134734992L
L134735185L
tp754
sS'get_segment_type'
p755
(L134818912L
L134819070L
tp756
sS'bfd_make_section_with_flags'
p757
(L134713568L
L134713766L
tp758
sS'xcalloc'
p759
(L135183648L
L135183719L
tp760
sS'memory_bclose'
p761
(L134682528L
L134682578L
tp762
sS'bfd_plugin_core_file_failing_command'
p763
(L135088320L
L135088349L
tp764
sS'elf_link_output_extsym'
p765
(L134890928L
L134894441L
tp766
sS'is_ctor_or_dtor'
p767
(L135163888L
L135164149L
tp768
sS'find_separate_debug_file'
p769
(L134707344L
L134708079L
tp770
sS'bfd_default_set_arch_mach'
p771
(L134677648L
L134677722L
tp772
sS'stab_context'
p773
(L134553792L
L134554263L
tp774
sS'pe_bfd_object_p'
p775
(L135033136L
L135036207L
tp776
sS'ihex_mkobject'
p777
(L134748400L
L134748471L
tp778
sS'stab_modify_type'
p779
(L134650320L
L134650921L
tp780
sS'rsrc_print_resource_directory'
p781
(L135039136L
L135039908L
tp782
sS'aout_32_swap_std_reloc_out'
p783
(L135004352L
L135004784L
tp784
sS'bfd_elf_add_obj_attr_int'
p785
(L134962832L
L134962927L
tp786
sS'bfd_arch_i386_short_nop_fill'
p787
(L135090208L
L135090223L
tp788
sS'write_obj_attribute'
p789
(L134961472L
L134961633L
tp790
sS'generic_core_file_matches_executable_p'
p791
(L135094080L
L135094210L
tp792
sS'_bfd_archive_bsd_construct_extended_name_table'
p793
(L134669056L
L134669095L
tp794
sS'_bfd_elf_export_symbol'
p795
(L134907216L
L134907336L
tp796
sS'd_unqualified_name'
p797
(L135156176L
L135157038L
tp798
sS'coff_canonicalize_symtab'
p799
(L134686384L
L134686490L
tp800
sS'srec_get_symbol_info'
p801
(L134737200L
L134737221L
tp802
sS'elf_i386_reloc_type_lookup'
p803
(L134774448L
L134775030L
tp804
sS'read_unsigned_leb128'
p805
(L134706176L
L134706227L
tp806
sS'objalloc_free'
p807
(L135182896L
L135182950L
tp808
sS'nacl_modify_program_headers'
p809
(L134805296L
L134805602L
tp810
sS'debug_get_field_bitpos'
p811
(L134570256L
L134570284L
tp812
sS'coff_find_nearest_line'
p813
(L134699296L
L134699399L
tp814
sS'coff_get_reloc_upper_bound'
p815
(L134695712L
L134695771L
tp816
sS'try_load_plugin'
p817
(L135088720L
L135089268L
tp818
sS'_bfd_pei_swap_sym_out'
p819
(L135045280L
L135045438L
tp820
sS'consume_count_with_underscores'
p821
(L135107088L
L135107167L
tp822
sS'bfd_getb16'
p823
(L134703744L
L134703761L
tp824
sS'elf32_r_info'
p825
(L134817488L
L134817503L
tp826
sS'bfd_hash_replace'
p827
(L134721408L
L134721503L
tp828
sS'bfd_plugin_print_symbol'
p829
(L135088160L
L135088181L
tp830
sS'bfd_zalloc2'
p831
(L134710688L
L134710805L
tp832
sS'demangle_arm_hp_template'
p833
(L135119680L
L135121575L
tp834
sS'bfd_elf_link_record_local_dynamic_symbol'
p835
(L134907920L
L134908356L
tp836
sS'bfd_elf32_swap_reloc_out'
p837
(L134807696L
L134807757L
tp838
sS'_bfd_elf_validate_reloc'
p839
(L134862064L
L134862484L
tp840
sS'stab_demangle_get_count'
p841
(L134570672L
L134570805L
tp842
sS'_bfd_add_bfd_to_archive_cache'
p843
(L134662704L
L134662900L
tp844
sS'coff_count_linenumbers'
p845
(L134687024L
L134687261L
tp846
sS'bfd_default_scan'
p847
(L134676048L
L134677016L
tp848
sS'bfd_elf_get_dyn_lib_class'
p849
(L134936448L
L134936497L
tp850
sS'string_need_1'
p851
(L135168864L
L135168964L
tp852
sS'trad_unix_core_file_failing_signal'
p853
(L135090416L
L135090422L
tp854
sS'ieee_class_end_method'
p855
(L134611552L
L134611632L
tp856
sS'stab_start_class_type'
p857
(L134649952L
L134650306L
tp858
sS'bfd_fprintf_vma'
p859
(L134681264L
L134681307L
tp860
sS'bfd_get_target_info'
p861
(L134719472L
L134719801L
tp862
sS'sec_merge_hash_newfunc'
p863
(L135103392L
L135103506L
tp864
sS'coff_write_armap'
p865
(L134674848L
L134675788L
tp866
sS'd_cv_qualifiers'
p867
(L135131712L
L135131977L
tp868
sS'debug_record_typed_const'
p869
(L134565968L
L134566058L
tp870
sS'_bfd_n1'
p871
(L134702640L
L134702664L
tp872
sS'bfd_elf32_core_file_failing_command'
p873
(L134817520L
L134817540L
tp874
sS'd_print_function_type'
p875
(L135151184L
L135151967L
tp876
sS'_bfd_elf_new_section_hook'
p877
(L134828928L
L134829135L
tp878
sS'aout_link_free_symbols'
p879
(L134990624L
L134990692L
tp880
sS'aout_32_reloc_type_lookup'
p881
(L134997168L
L134997292L
tp882
sS'stab_end_block'
p883
(L134648720L
L134648916L
tp884
sS'bfd_section_list_clear'
p885
(L134712336L
L134712410L
tp886
sS'elf_i386_allocate_dynrelocs'
p887
(L134780080L
L134781432L
tp888
sS'd_make_name'
p889
(L135131632L
L135131698L
tp890
sS'real_fopen'
p891
(L134683280L
L134683380L
tp892
sS'coff_symbol_from'
p893
(L134687264L
L134687304L
tp894
sS'_bfd_append_relative_path'
p895
(L134664048L
L134664164L
tp896
sS'bfd_elf32_swap_phdr_out'
p897
(L134813024L
L134813218L
tp898
sS'tekhex_init'
p899
(L134746992L
L134747098L
tp900
sS'bfd_get_gp_size'
p901
(L134680448L
L134680514L
tp902
sS'bfd_set_start_address'
p903
(L134680416L
L134680433L
tp904
sS'htab_create_alloc'
p905
(L135177056L
L135177119L
tp906
sS'_bfd_elf_create_ifunc_sections'
p907
(L134802416L
L134802821L
tp908
sS'opncls_btell'
p909
(L134706336L
L134706350L
tp910
sS'elf_collect_hash_codes'
p911
(L134884272L
L134884477L
tp912
sS'_bfd_elf_canonicalize_reloc'
p913
(L134854928L
L134855049L
tp914
sS'dlang_attributes'
p915
(L135169200L
L135169382L
tp916
sS'stab_start_struct_type'
p917
(L134649552L
L134649951L
tp918
sS'aout_32_get_lineno'
p919
(L135007408L
L135007411L
tp920
sS'bfd_search_for_target'
p921
(L134719952L
L134720025L
tp922
sS'bfd_release'
p923
(L134710816L
L134710835L
tp924
sS'lbasename'
p925
(L135179856L
L135179890L
tp926
sS'_bfd_coff_link_input_bfd'
p927
(L135071984L
L135080983L
tp928
sS'bfd_open_file'
p929
(L135091776L
L135092071L
tp930
sS'ieee_set_type'
p931
(L134602528L
L134602675L
tp932
sS'ihex_set_arch_mach'
p933
(L134748480L
L134748535L
tp934
sS'_bfd_elf_get_dynamic_reloc_upper_bound'
p935
(L134855184L
L134855324L
tp936
sS'ieee_variable'
p937
(L134616736L
L134617723L
tp938
sS'_bfd_elf_is_local_label_name'
p939
(L134860880L
L134860958L
tp940
sS'ieee_error_0'
p941
(L134597488L
L134597572L
tp942
sS'_bfd_elf_gc_mark_hook'
p943
(L134954800L
L134955028L
tp944
sS'coff_swap_scnhdr_in'
p945
(L135021312L
L135021577L
tp946
sS'coff_set_arch_mach'
p947
(L135028480L
L135028560L
tp948
sS'is_gnu_v3_mangled_ctor'
p949
(L135165664L
L135165699L
tp950
sS'_bfd_generic_link_add_archive_symbols'
p951
(L134726256L
L134727048L
tp952
sS'_bfd_elf_swap_verdaux_out'
p953
(L134823728L
L134823789L
tp954
sS'opncls_bread'
p955
(L134706432L
L134706508L
tp956
sS'print_version'
p957
(L134660304L
L134660443L
tp958
sS'bfd_bread'
p959
(L134683392L
L134683552L
tp960
sS'ieee_real_write_byte'
p961
(L134599712L
L134599828L
tp962
sS'aout_32_make_empty_symbol'
p963
(L135001904L
L135001939L
tp964
sS'elf_i386_get_local_sym_hash'
p965
(L134787024L
L134787343L
tp966
sS'_bfd_elf_stringtab_init'
p967
(L134828016L
L134828132L
tp968
sS'stab_method_type'
p969
(L134654592L
L134655374L
tp970
sS'_bfd_write_section_stabs'
p971
(L135102384L
L135102835L
tp972
sS'_bfd_elf_copy_private_bfd_data'
p973
(L134826960L
L134827110L
tp974
sS'elfcore_write_s390_last_break'
p975
(L134878800L
L134878867L
tp976
sS'd_compact_number'
p977
(L135132464L
L135132519L
tp978
sS'iterative_hash'
p979
(L135179072L
L135179712L
tp980
sS'debug_write_block'
p981
(L134563120L
L134563445L
tp982
sS'_bfd_new_bfd'
p983
(L134708080L
L134708280L
tp984
sS'main'
p985
(L134526720L
L134535922L
tp986
sS'elf_i386_tls_transition'
p987
(L134787344L
L134788916L
tp988
sS'elfcore_write_arm_vfp'
p989
(L134879040L
L134879107L
tp990
sS'debug_get_fields'
p991
(L134570128L
L134570182L
tp992
sS'bfd_elf_add_obj_attr_string'
p993
(L134962928L
L134963039L
tp994
sS'_bfd_elf_map_sections_to_segments'
p995
(L134830384L
L134833362L
tp996
sS'debug_make_range_type'
p997
(L134567216L
L134567292L
tp998
sS'bfd_section_from_shdr'
p999
(L134871520L
L134875825L
tp1000
sS'bfd_generic_define_common_symbol'
p1001
(L134735696L
L134735884L
tp1002
sS'bfd_elf_size_dynsym_hash_dynstr'
p1003
(L134931872L
L134935557L
tp1004
sS'rsrc_count_directory'
p1005
(L135036480L
L135036926L
tp1006
sS'stab_end_struct_type'
p1007
(L134649296L
L134649543L
tp1008
sS'debug_add_to_current_namespace'
p1009
(L134563456L
L134563577L
tp1010
sS'bfd_elf_is_group_section'
p1011
(L134826848L
L134826870L
tp1012
sS'sym_is_global'
p1013
(L134820384L
L134820459L
tp1014
sS'_bfd_stab_section_find_nearest_line'
p1015
(L134716176L
L134718928L
tp1016
sS'remember_Btype'
p1017
(L135107904L
L135107967L
tp1018
sS'bfd_generic_is_group_section'
p1019
(L134714800L
L134714803L
tp1020
sS'_bfd_add_merge_section'
p1021
(L135104096L
L135104744L
tp1022
sS'stab_class_baseclass'
p1023
(L134646512L
L134646890L
tp1024
sS'_bfd_elf_get_sec_type_attr'
p1025
(L134828768L
L134828916L
tp1026
sS'bfd_elf_generic_reloc'
p1027
(L134826880L
L134826953L
tp1028
sS'bfd_hash_traverse'
p1029
(L134721744L
L134721864L
tp1030
sS'd_print_mod_0'
p1031
(L135147712L
L135149595L
tp1032
sS'eq_string'
p1033
(L134536368L
L134536403L
tp1034
sS'group_signature'
p1035
(L134539520L
L134539620L
tp1036
sS'memory_bread'
p1037
(L134682832L
L134682994L
tp1038
sS'binary_object_p'
p1039
(L134743648L
L134743812L
tp1040
sS'stab_link_includes_newfunc'
p1041
(L135099344L
L135099434L
tp1042
sS'bfd_core_file_failing_signal'
p1043
(L135093872L
L135093926L
tp1044
sS'stab_reference_type'
p1045
(L134651024L
L134651069L
tp1046
sS'parse_stab'
p1047
(L134593040L
L134596892L
tp1048
sS'_bfd_elf_copy_private_header_data'
p1049
(L134848000L
L134854433L
tp1050
sS'_bfd_dwarf2_find_nearest_line'
p1051
(L134767120L
L134770860L
tp1052
sS'savestring_1'
p1053
(L134571152L
L134571204L
tp1054
sS'cplus_demangle_name_to_style'
p1055
(L135110048L
L135110109L
tp1056
sS'message'
p1057
(L135088624L
L135088713L
tp1058
sS'info_hash_table_newfunc'
p1059
(L134753984L
L134754071L
tp1060
sS'_bfd_pei_swap_aouthdr_in'
p1061
(L135046976L
L135047824L
tp1062
sS'resolve_section'
p1063
(L134888160L
L134888346L
tp1064
sS'bfd_emul_get_maxpagesize'
p1065
(L134681440L
L134681490L
tp1066
sS'_bfd_generic_link_hash_newfunc'
p1067
(L134723600L
L134723695L
tp1068
sS'htab_find'
p1069
(L135178032L
L135178072L
tp1070
sS'endian_string'
p1071
(L134656144L
L134656256L
tp1072
sS'd_expr_primary'
p1073
(L135163600L
L135163888L
tp1074
sS'elfcore_write_s390_ctrs'
p1075
(L134878640L
L134878707L
tp1076
sS'ieee_typdef'
p1077
(L134605392L
L134606915L
tp1078
sS'debug_start_block'
p1079
(L134564848L
L134565142L
tp1080
sS'bfd_arch_get_compatible'
p1081
(L134677376L
L134677472L
tp1082
sS'expandargv'
p1083
(L135166752L
L135167501L
tp1084
sS'_bfd_elf_section_from_bfd_section'
p1085
(L134833376L
L134833595L
tp1086
sS'd_print_subexpr'
p1087
(L135152800L
L135153125L
tp1088
sS'stab_demangle_arg'
p1089
(L134581040L
L134581218L
tp1090
sS'bfd_getb_signed_64'
p1091
(L134704384L
L134704526L
tp1092
sS'bfd_find_target'
p1093
(L134719312L
L134719458L
tp1094
sS'dummy_reloc16_estimate'
p1095
(L135018176L
L135018207L
tp1096
sS'bfd_section_already_linked_table_traverse'
p1097
(L134734064L
L134734099L
tp1098
sS'bfd_get_arch_info'
p1099
(L134677552L
L134677560L
tp1100
sS'ignore_section_sym'
p1101
(L134820464L
L134820571L
tp1102
sS'ieee_vis_to_flags'
p1103
(L134597296L
L134597342L
tp1104
sS'stab_class_method_variant'
p1105
(L134646448L
L134646511L
tp1106
sS'stab_complex_type'
p1107
(L134653040L
L134653181L
tp1108
sS'bfd_generic_get_relocated_section_contents'
p1109
(L135098448L
L135099329L
tp1110
sS'ieee_class_method_var'
p1111
(L134618784L
L134619244L
tp1112
sS'is_vma_in_section'
p1113
(L135036448L
L135036480L
tp1114
sS'debug_make_object_type'
p1115
(L134566720L
L134566932L
tp1116
sS'_bfd_default_link_order'
p1117
(L134732752L
L134733292L
tp1118
sS'find_abstract_instance_name'
p1119
(L134760800L
L134761580L
tp1120
sS'bfd_getl64'
p1121
(L134704256L
L134704381L
tp1122
sS'bfd_get_section_contents'
p1123
(L134714432L
L134714769L
tp1124
sS'ieee_define_named_type'
p1125
(L134601776L
L134602527L
tp1126
sS'_bfd_stab_section_offset'
p1127
(L135103056L
L135103141L
tp1128
sS'_bfd_merged_section_offset'
p1129
(L135106432L
L135106942L
tp1130
sS'ieee_end_struct_type'
p1131
(L134602880L
L134603343L
tp1132
sS'bfd_plugin_set_plugin'
p1133
(L135089984L
L135089994L
tp1134
sS'bfd_elf_bfd_from_remote_memory'
p1135
(L134880928L
L134880949L
tp1136
sS'rsrc_write_entry'
p1137
(L135037264L
L135037614L
tp1138
sS'generic_add_output_symbol'
p1139
(L134723024L
L134723148L
tp1140
sS'_bfd_generic_final_link'
p1141
(L134733296L
L134733998L
tp1142
sS'convert_efi_target'
p1143
(L134536416L
L134536500L
tp1144
sS'internal_srec_write_object_contents'
p1145
(L134739184L
L134740074L
tp1146
sS'bfd_plugin_set_program_name'
p1147
(L135089968L
L135089978L
tp1148
sS'make_relative_prefix'
p1149
(L135181728L
L135181753L
tp1150
sS'bfd_tell'
p1151
(L134683664L
L134683765L
tp1152
sS'coff_swap_reloc_out'
p1153
(L135016864L
L135016948L
tp1154
sS'stab_class_static_method_variant'
p1155
(L134646384L
L134646445L
tp1156
sS'unix_lbasename'
p1157
(L135179728L
L135179762L
tp1158
sS'_bfd_nocore_core_file_matches_executable_p'
p1159
(L134702720L
L134702741L
tp1160
sS'i386linux_write_object_contents'
p1161
(L134984496L
L134985233L
tp1162
sS'binary_get_section_contents'
p1163
(L134744096L
L134744182L
tp1164
sS'_bfd_elf_assign_file_position_for_section'
p1165
(L134830112L
L134830210L
tp1166
sS'_bfd_dwarf2_find_inliner_info'
p1167
(L134764912L
L134764988L
tp1168
sS'ieee_method_type'
p1169
(L134613696L
L134613748L
tp1170
sS'read_value'
p1171
(L134968208L
L134968369L
tp1172
sS'bfd_slurp_bsd_armap_f2'
p1173
(L134666816L
L134667415L
tp1174
sS'i386_aout_linux_mkobject'
p1175
(L134985248L
L134985253L
tp1176
sS'pe_bfd_copy_private_bfd_data'
p1177
(L135028608L
L135028681L
tp1178
sS'_bfd_write_archive_contents'
p1179
(L134671456L
L134673237L
tp1180
sS'bfd_set_archive_head'
p1181
(L134662592L
L134662612L
tp1182
sS'_bfd_elf_swap_verneed_out'
p1183
(L134823904L
L134824024L
tp1184
sS'stab_float_constant'
p1185
(L134643632L
L134643768L
tp1186
sS'elf_i386_info_to_howto_rel'
p1187
(L134776608L
L134776639L
tp1188
sS'cache_bread'
p1189
(L135093264L
L135093808L
tp1190
sS'elf_i386_grok_prstatus'
p1191
(L134775648L
L134775938L
tp1192
sS'ieee_write_2bytes'
p1193
(L134599840L
L134599972L
tp1194
sS'bfd_plugin_sizeof_headers'
p1195
(L135088128L
L135088157L
tp1196
sS'd_demangle_callback'
p1197
(L135164496L
L135165057L
tp1198
sS'bfd_get_mtime'
p1199
(L134684288L
L134684360L
tp1200
sS'ieee_class_static_member'
p1201
(L134619376L
L134619632L
tp1202
sS'strrevcmp'
p1203
(L134965168L
L134965274L
tp1204
sS'bfd_get_reloc_size'
p1205
(L135094224L
L135094372L
tp1206
sS'htab_collisions'
p1207
(L135178960L
L135179023L
tp1208
sS'debug_make_method_type'
p1209
(L134567584L
L134567668L
tp1210
sS'set_default_bfd_target'
p1211
(L134656640L
L134656728L
tp1212
sS'bfd_hash_table_free'
p1213
(L134720304L
L134720335L
tp1214
sS'stab_push_string'
p1215
(L134648928L
L134649030L
tp1216
sS'list_supported_targets'
p1217
(L134656880L
L134657093L
tp1218
sS'debug_make_float_type'
p1219
(L134566512L
L134566526L
tp1220
sS'pass_over'
p1221
(L134747840L
L134748151L
tp1222
sS'bfd_elf32_write_out_phdrs'
p1223
(L134813232L
L134813364L
tp1224
sS'compare_link_order'
p1225
(L134888512L
L134888568L
tp1226
sS'bfd_openw'
p1227
(L134709184L
L134709288L
tp1228
sS'bfd_openr'
p1229
(L134708848L
L134708891L
tp1230
sS'register_tm_clones'
p1231
(L134536032L
L134536087L
tp1232
sS'bfd_get_bits'
p1233
(L134705056L
L134705212L
tp1234
sS'simple_dummy_multiple_definition'
p1235
(L134770944L
L134770950L
tp1236
sS'demangle_class_name'
p1237
(L135121584L
L135121684L
tp1238
sS'coff_link_check_archive_element'
p1239
(L135070128L
L135070237L
tp1240
sS'elf_i386_gc_sweep_hook'
p1241
(L134788928L
L134789706L
tp1242
sS'elf_i386_reloc_name_lookup'
p1243
(L134786704L
L134786785L
tp1244
sS'elf_i386_link_hash_newfunc'
p1245
(L134786336L
L134786431L
tp1246
sS'_bfd_elf_strtab_clear_all_refs'
p1247
(L134966112L
L134966154L
tp1248
sS'elf_i386_relocate_section'
p1249
(L134789712L
L134799577L
tp1250
sS'coff_renumber_symbols'
p1251
(L134687312L
L134688058L
tp1252
sS'bfd_is_local_label'
p1253
(L134714864L
L134714907L
tp1254
sS'_bfd_elf_eh_frame_present'
p1255
(L134975712L
L134975798L
tp1256
sS'bfd_make_section'
p1257
(L134713776L
L134713811L
tp1258
sS'_bfd_stringtab_add'
p1259
(L134722128L
L134722421L
tp1260
sS'_bfd_generic_link_write_global_symbol'
p1261
(L134723152L
L134723391L
tp1262
sS'aout_32_squirt_out_relocs'
p1263
(L135006720L
L135006980L
tp1264
sS'demangle_qualified'
p1265
(L135115200L
L135116391L
tp1266
sS'bfd_check_format'
p1267
(L134702272L
L134702307L
tp1268
sS'bfd_cache_max_open'
p1269
(L135091104L
L135091217L
tp1270
sS'bfd_flush'
p1271
(L134683776L
L134683795L
tp1272
sS'bfd_arch_i386_long_nop_fill'
p1273
(L135090224L
L135090242L
tp1274
sS'read_address'
p1275
(L134755440L
L134755660L
tp1276
sS'bfd_scan_arch'
p1277
(L134677152L
L134677225L
tp1278
sS'bfd_nonfatal_message'
p1279
(L134659824L
L134660147L
tp1280
sS'bfd_realloc2'
p1281
(L134703152L
L134703282L
tp1282
sS'_bfd_elf_init_1_index_section'
p1283
(L134931600L
L134931679L
tp1284
sS'cplus_demangle_mangled_name'
p1285
(L135163312L
L135163593L
tp1286
sS'filename_eq'
p1287
(L135175520L
L135175555L
tp1288
sS'_objalloc_alloc'
p1289
(L135182624L
L135182895L
tp1290
sS'_bfd_construct_extended_name_table'
p1291
(L134668032L
L134669056L
tp1292
sS'debug_make_set_type'
p1293
(L134567408L
L134567476L
tp1294
sS'bfd_set_file_flags'
p1295
(L134678928L
L134679050L
tp1296
sS'bfd_seek'
p1297
(L134683888L
L134684283L
tp1298
sS'ieee_eof'
p1299
(L134622256L
L134622304L
tp1300
sS'ieee_struct_field'
p1301
(L134619632L
L134620709L
tp1302
sS'elf_append_rel'
p1303
(L134961200L
L134961320L
tp1304
sS'srec_write_record'
p1305
(L134737232L
L134737799L
tp1306
sS'deregister_tm_clones'
p1307
(L134535984L
L134536026L
tp1308
sS'bfd_sprintf_vma'
p1309
(L134681200L
L134681251L
tp1310
sS'bfd_getl16'
p1311
(L134703776L
L134703793L
tp1312
sS'bfd_get_error'
p1313
(L134677952L
L134677958L
tp1314
sS'_bfd_elf_init_private_section_data'
p1315
(L134847232L
L134847632L
tp1316
sS'elfcore_write_aarch_hw_break'
p1317
(L134879200L
L134879267L
tp1318
sS'code_for_qualifier'
p1319
(L135107760L
L135107806L
tp1320
sS'bfd_section_already_linked_table_insert'
p1321
(L134734160L
L134734231L
tp1322
sS'bfd_reloc_type_lookup'
p1323
(L135098048L
L135098063L
tp1324
sS'_bfd_elf_gc_keep'
p1325
(L134956448L
L134956566L
tp1326
sS'memory_bseek'
p1327
(L134682592L
L134682819L
tp1328
sS'read_uleb128'
p1329
(L134967136L
L134967238L
tp1330
sS'_bfd_elf_strtab_restore_size'
p1331
(L134966160L
L134966278L
tp1332
sS'elf_gc_smash_unused_vtentry_relocs'
p1333
(L134909472L
L134909774L
tp1334
sS'bfd_perform_relocation'
p1335
(L135094592L
L135095666L
tp1336
sS'_bfd_elf_link_hash_table_create'
p1337
(L134936288L
L134936388L
tp1338
sS'srec_object_p'
p1339
(L134742624L
L134742937L
tp1340
sS'debug_get_field_physname'
p1341
(L134570352L
L134570379L
tp1342
sS'bfd_get_elf_phdrs'
p1343
(L134880416L
L134880499L
tp1344
sS'debug_record_int_const'
p1345
(L134565840L
L134565894L
tp1346
sS'srec_bad_byte'
p1347
(L134740112L
L134740330L
tp1348
sS'vendor_obj_attr_size'
p1349
(L134961776L
L134962011L
tp1350
sS'elf_gc_sweep_symbol'
p1351
(L134887296L
L134887394L
tp1352
sS'binary_mkobject'
p1353
(L134743200L
L134743206L
tp1354
sS'_bfd_elf_dynamic_symbol_p'
p1355
(L134910336L
L134910617L
tp1356
sS'bfd_cache_init'
p1357
(L135091488L
L135091641L
tp1358
sS'elf_vxworks_finish_dynamic_entry'
p1359
(L134807136L
L134807332L
tp1360
sS'bad_stab'
p1361
(L134570976L
L134571044L
tp1362
sS'do_slurp_bsd_armap'
p1363
(L134660896L
L134661301L
tp1364
sS'elf_get_linked_section_vma'
p1365
(L134888352L
L134888505L
tp1366
sS'bfd_elf_string_from_elf_section'
p1367
(L134824768L
L134824798L
tp1368
sS'i386_aout_linux_set_sizes'
p1369
(L134982864L
L134982926L
tp1370
sS'bfd_generic_archive_p'
p1371
(L134665184L
L134665624L
tp1372
sS'ieee_write_id'
p1373
(L134599984L
L134600440L
tp1374
sS'_bfd_elf_init_reloc_shdr'
p1375
(L134821552L
L134821986L
tp1376
sS'_bfd_generic_init_private_section_data'
p1377
(L134706320L
L134706326L
tp1378
sS'bfd_get_arch'
p1379
(L134677488L
L134677499L
tp1380
sS'debug_add_to_namespace'
p1381
(L134556800L
L134556985L
tp1382
sS'rsrc_parse_entries'
p1383
(L135039920L
L135040545L
tp1384
sS'coff_find_inliner_info'
p1385
(L134699408L
L134699464L
tp1386
sS'htab_remove_elt_with_hash'
p1387
(L135178592L
L135178669L
tp1388
sS'bfd_init'
p1389
(L134702496L
L134702498L
tp1390
sS'bfd_set_section_flags'
p1391
(L134713824L
L134713841L
tp1392
sS'ieee_error'
p1393
(L134597440L
L134597486L
tp1394
sS'stab_write_symbol'
p1395
(L134643008L
L134643411L
tp1396
sS'aout_32_set_arch_mach'
p1397
(L134999600L
L134999741L
tp1398
sS'debug_get_field_name'
p1399
(L134570224L
L134570243L
tp1400
sS'aout_32_get_symtab_upper_bound'
p1401
(L135007360L
L135007407L
tp1402
sS'bfd_section_already_linked_table_init'
p1403
(L134734240L
L134734283L
tp1404
sS'debug_make_complex_type'
p1405
(L134566544L
L134566558L
tp1406
sS'bfd_get_elf_phdr_upper_bound'
p1407
(L134880352L
L134880403L
tp1408
sS'_bfd_slurp_extended_name_table'
p1409
(L134667424L
L134668027L
tp1410
sS'bfd_elf_match_symbols_in_sections'
p1411
(L134884768L
L134886643L
tp1412
sS'generic_link_check_archive_element_collect'
p1413
(L134730688L
L134730713L
tp1414
sS'ihex_write_object_contents'
p1415
(L134748928L
L134749757L
tp1416
sS'_bfd_elf_get_special_section'
p1417
(L134828544L
L134828756L
tp1418
sS'linux_link_hash_table_create'
p1419
(L134984272L
L134984364L
tp1420
sS'stab_record_variable'
p1421
(L134571376L
L134571551L
tp1422
sS'cplus_demangle_set_style'
p1423
(L135110000L
L135110041L
tp1424
sS'_bfd_generic_new_section_hook'
p1425
(L134712240L
L134712327L
tp1426
sS'bfd_record_phdr'
p1427
(L134680928L
L134681186L
tp1428
sS'i386_aout_linux_callback'
p1429
(L134985472L
L134986854L
tp1430
sS'eq_file_ptr'
p1431
(L134660848L
L134660875L
tp1432
sS'debug_make_int_type'
p1433
(L134566480L
L134566512L
tp1434
sS'dlang_function_type'
p1435
(L135174832L
L135175216L
tp1436
sS'aout_32_sizeof_headers'
p1437
(L135009392L
L135009406L
tp1438
sS'cplus_demangle_fill_extended_operator'
p1439
(L135153200L
L135153260L
tp1440
sS'debug_make_offset_type'
p1441
(L134567488L
L134567569L
tp1442
sS'_bfd_elf_common_section_index'
p1443
(L134960656L
L134960662L
tp1444
sS'debug_get_real_type'
p1445
(L134556336L
L134556598L
tp1446
sS'_bfd_nearby_section'
p1447
(L134735200L
L134735509L
tp1448
sS'bfd_wrapped_link_hash_lookup'
p1449
(L134723904L
L134724367L
tp1450
sS'_bfd_elf_define_linkage_sym'
p1451
(L134900016L
L134900265L
tp1452
sS'opncls_bclose'
p1453
(L134706528L
L134706571L
tp1454
sS'pe_print_debugdata'
p1455
(L135051696L
L135053035L
tp1456
sS'bfd_make_section_anyway_with_flags'
p1457
(L134713344L
L134713518L
tp1458
sS'debug_get_field_type'
p1459
(L134570192L
L134570211L
tp1460
sS'_bfd_abort'
p1461
(L134678512L
L134678708L
tp1462
sS'coff_i386_rtype_to_howto'
p1463
(L135017376L
L135017752L
tp1464
sS'_bfd_coff_read_string_table'
p1465
(L134691360L
L134691754L
tp1466
sS'htab_try_create'
p1467
(L135177248L
L135177315L
tp1468
sS'ieee_read_optional_id'
p1469
(L134622304L
L134622567L
tp1470
sS'binary_canonicalize_symtab'
p1471
(L134743424L
L134743639L
tp1472
sS'stab_demangle_args'
p1473
(L134581232L
L134581660L
tp1474
sS'coff_make_empty_symbol'
p1475
(L134695776L
L134695839L
tp1476
sS'unwrap_hash_lookup'
p1477
(L134725472L
L134725734L
tp1478
sS'aout_32_mkobject'
p1479
(L134998800L
L134998911L
tp1480
sS'bfd_demangle'
p1481
(L134681760L
L134682345L
tp1482
sS'size_of_output_cie_fde'
p1483
(L134967264L
L134967338L
tp1484
sS'_bfd_write_merged_section'
p1485
(L135106048L
L135106425L
tp1486
sS'bfd_elf_get_default_section_type'
p1487
(L134830080L
L134830107L
tp1488
sS'ieee_function_parameter'
p1489
(L134601392L
L134601767L
tp1490
sS'_bfd_elf_encode_eh_address'
p1491
(L134981040L
L134981082L
tp1492
sS'aout_32_link_hash_table_init'
p1493
(L135009600L
L135009605L
tp1494
sS'elf_sort_elf_symbol'
p1495
(L134882224L
L134882243L
tp1496
sS'do_type'
p1497
(L135116400L
L135119669L
tp1498
sS'bfd_getb64'
p1499
(L134704128L
L134704253L
tp1500
sS'iterate_demangle_function'
p1501
(L135127760L
L135128173L
tp1502
sS'bfd_elf_link_record_dynamic_symbol'
p1503
(L134901648L
L134901870L
tp1504
sS'ieee_start_block'
p1505
(L134617728L
L134618776L
tp1506
sS'_bfd_elf_adjust_dynamic_copy'
p1507
(L134910240L
L134910335L
tp1508
sS'_bfd_elf_make_dynamic_segment'
p1509
(L134830320L
L134830378L
tp1510
sS'bfd_set_arch_info'
p1511
(L134677472L
L134677484L
tp1512
sS'elf_vxworks_final_write_processing'
p1513
(L134806800L
L134806910L
tp1514
sS'elf_i386_rtype_to_howto'
p1515
(L134776432L
L134776598L
tp1516
sS'filename_hash'
p1517
(L135175456L
L135175517L
tp1518
sS'debug_make_type'
p1519
(L134556992L
L134557038L
tp1520
sS'verilog_write_object_contents'
p1521
(L134773952L
L134774448L
tp1522
sS'bfd_get_linker_section'
p1523
(L134712560L
L134712654L
tp1524
sS'parse_coff'
p1525
(L134640592L
L134642430L
tp1526
sS'rsrc_print_resource_entries'
p1527
(L135038112L
L135039128L
tp1528
sS'concat'
p1529
(L135167808L
L135167953L
tp1530
sS'unlink_if_ordinary'
p1531
(L135183280L
L135183369L
tp1532
sS'coff_link_add_object_symbols'
p1533
(L135067600L
L135070118L
tp1534
sS'bfd_elf32_slurp_symbol_table'
p1535
(L134808160L
L134809639L
tp1536
sS'htab_traverse'
p1537
(L135178880L
L135178945L
tp1538
sS'cplus_demangle_print_callback'
p1539
(L135164160L
L135164481L
tp1540
sS'_bfd_pe_print_ce_compressed_pdata'
p1541
(L135053488L
L135054766L
tp1542
sS'_bfd_generic_link_hash_table_free'
p1543
(L134722656L
L134722748L
tp1544
sS'elf_fake_sections'
p1545
(L134822000L
L134823360L
tp1546
sS'bfd_set_section_contents'
p1547
(L134714160L
L134714419L
tp1548
sS'_bfd_xcoff_stringtab_init'
p1549
(L134722048L
L134722071L
tp1550
sS'binary_sizeof_headers'
p1551
(L134743232L
L134743235L
tp1552
sS'make_mapping'
p1553
(L134819248L
L134819365L
tp1554
sS'htab_traverse_noresize'
p1555
(L135178800L
L135178865L
tp1556
sS'_bfd_pei_swap_aouthdr_out'
p1557
(L135047824L
L135049314L
tp1558
sS'bfd_generic_stat_arch_elt'
p1559
(L134669760L
L134669986L
tp1560
sS'_bfd_pei_write_codeview_record'
p1561
(L135053232L
L135053473L
tp1562
sS'elf_link_renumber_hash_table_dynsyms'
p1563
(L134886656L
L134886692L
tp1564
sS'bfd_arch_default_fill'
p1565
(L134677024L
L134677075L
tp1566
sS'_bfd_generic_reloc_link_order'
p1567
(L134731920L
L134732667L
tp1568
sS'ieee_start_function'
p1569
(L134615840L
L134616726L
tp1570
sS'filename_cmp'
p1571
(L135175424L
L135175429L
tp1572
sS'd_expression_1'
p1573
(L135159008L
L135160478L
tp1574
sS'ieee_class_start_method'
p1575
(L134611632L
L134611712L
tp1576
sS'aout_32_swap_ext_reloc_out'
p1577
(L135004784L
L135005122L
tp1578
sS'coff_slurp_symbol_table'
p1579
(L135025472L
L135025501L
tp1580
sS'bfd_alloc'
p1581
(L134710208L
L134710352L
tp1582
sS'getvalue'
p1583
(L134744192L
L134744319L
tp1584
sS'elfcore_write_note'
p1585
(L134876352L
L134876657L
tp1586
sS'srec_scan'
p1587
(L134740336L
L134742624L
tp1588
sS'tekhex_print_symbol'
p1589
(L134746864L
L134746982L
tp1590
sS'bfd_malloc_and_get_section'
p1591
(L134714784L
L134714799L
tp1592
sS'tekhex_mkobject'
p1593
(L134745440L
L134745519L
tp1594
sS'_bfd_calloc_wrapper'
p1595
(L134660880L
L134660885L
tp1596
sS'aout_32_swap_ext_reloc_in'
p1597
(L135005136L
L135005596L
tp1598
sS'stab_demangle_function_name'
p1599
(L134581664L
L134581799L
tp1600
sS'dwarf1_unit_find_nearest_line'
p1601
(L134981600L
L134982287L
tp1602
sS'aout_32_canonicalize_reloc'
p1603
(L135006992L
L135007187L
tp1604
sS'default_indirect_link_order'
p1605
(L134724368L
L134725457L
tp1606
sS'stab_demangle_template'
p1607
(L134578880L
L134580150L
tp1608
sS'aout_32_get_reloc_upper_bound'
p1609
(L135007200L
L135007347L
tp1610
sS'bfd_get_relocated_section_contents'
p1611
(L134680832L
L134680921L
tp1612
sS'cplus_demangle_fill_ctor'
p1613
(L135153264L
L135153324L
tp1614
sS'register_claim_file'
p1615
(L135088112L
L135088124L
tp1616
sS'cache_bwrite'
p1617
(L135093088L
L135093250L
tp1618
sS'tekhex_make_empty_symbol'
p1619
(L134744816L
L134744858L
tp1620
sS'do_arg'
p1621
(L135123024L
L135123352L
tp1622
sS'_bfd_generic_minisymbol_to_symbol'
p1623
(L134716160L
L134716167L
tp1624
sS'undefined_reference'
p1625
(L134882976L
L134883040L
tp1626
sS'coff_slurp_symbol_table_0'
p1627
(L135023168L
L135025468L
tp1628
sS'memory_bwrite'
p1629
(L134683008L
L134683247L
tp1630
sS'bfd_alloc2'
p1631
(L134710352L
L134710444L
tp1632
sS'bfd_elf_add_obj_attr_int_string'
p1633
(L134963040L
L134963159L
tp1634
sS'd_number'
p1635
(L135132288L
L135132379L
tp1636
sS'aout_link_check_archive_element'
p1637
(L134990704L
L134991511L
tp1638
sS'ieee_enum_type'
p1639
(L134603344L
L134604411L
tp1640
sS'_start'
p1641
(L134535922L
L134535956L
tp1642
sS'elf_i386_create_dynamic_sections'
p1643
(L134802096L
L134802403L
tp1644
sS'bfd_elf32_swap_reloca_in'
p1645
(L134807616L
L134807682L
tp1646
sS'is_specified_symbol'
p1647
(L134540096L
L134540180L
tp1648
sS'bfd_lookup_arch'
p1649
(L134677568L
L134677637L
tp1650
sS'verilog_set_section_contents'
p1651
(L134773520L
L134773781L
tp1652
sS'_bfd_elf_create_dynamic_sections'
p1653
(L134901248L
L134901639L
tp1654
sS'aout_32_bfd_free_cached_info'
p1655
(L135009408L
L135009599L
tp1656
sS'stab_start_source'
p1657
(L134643904L
L134643938L
tp1658
sS'_bfd_elf_symbol_from_bfd_symbol'
p1659
(L134847024L
L134847226L
tp1660
sS'writevalue'
p1661
(L134744512L
L134744653L
tp1662
sS'stab_const_type'
p1663
(L134650976L
L134651018L
tp1664
sS'debug_start_source'
p1665
(L134563888L
L134564105L
tp1666
sS'dlang_type'
p1667
(L135173360L
L135174501L
tp1668
sS'register_Btype'
p1669
(L135107504L
L135107613L
tp1670
sS'xstrndup'
p1671
(L135183968L
L135184031L
tp1672
sS'ieee_empty_type'
p1673
(L134598048L
L134598086L
tp1674
sS'bfd_elf_gc_record_vtentry'
p1675
(L134957856L
L134958186L
tp1676
sS'opncls_bseek'
p1677
(L134706352L
L134706427L
tp1678
sS'buildargv'
p1679
(L135166000L
L135166576L
tp1680
sS'make_relative_prefix_1'
p1681
(L135180448L
L135181719L
tp1682
sS'cache_bstat'
p1683
(L135092704L
L135092815L
tp1684
sS'ieee_end_function'
p1685
(L134613760L
L134614342L
tp1686
sS'bfd_get_size'
p1687
(L134684368L
L134684424L
tp1688
sS'elf_collect_gnu_hash_codes'
p1689
(L134889920L
L134890177L
tp1690
sS'merge_sections_remove_hook'
p1691
(L134883328L
L134883381L
tp1692
sS'ada_demangle'
p1693
(L135110112L
L135111490L
tp1694
sS'setup_section'
p1695
(L134540384L
L134541362L
tp1696
sS'debug_make_indirect_type'
p1697
(L134566400L
L134566457L
tp1698
sS'mark_entry'
p1699
(L134967744L
L134967869L
tp1700
sS'read_rangelist'
p1701
(L134755664L
L134755909L
tp1702
sS'coff_write_linenumbers'
p1703
(L134690736L
L134691164L
tp1704
sS'ieee_write_number'
p1705
(L134600448L
L134600869L
tp1706
sS'debug_write_type'
p1707
(L134559312L
L134562447L
tp1708
sS'aout_32_swap_exec_header_in'
p1709
(L134997408L
L134997657L
tp1710
sS'_bfd_create_empty_archive_element_shell'
p1711
(L134662576L
L134662581L
tp1712
sS'list_matching_formats'
p1713
(L134656736L
L134656877L
tp1714
sS'bfd_set_symtab'
p1715
(L134714912L
L134714986L
tp1716
sS'ieee_require_asn'
p1717
(L134623424L
L134623562L
tp1718
sS'_bfd_elf_merge_sections'
p1719
(L134935568L
L134935776L
tp1720
sS'linux_add_one_symbol'
p1721
(L134987744L
L134988425L
tp1722
sS'bfd_set_assert_handler'
p1723
(L134678368L
L134678384L
tp1724
sS'non_fatal'
p1725
(L134656608L
L134656635L
tp1726
sS'_bfd_generic_link_add_symbols'
p1727
(L134730144L
L134730156L
tp1728
sS'bfd_elf_gc_record_vtinherit'
p1729
(L134957616L
L134957854L
tp1730
sS'bfd_getl32'
p1731
(L134703984L
L134704021L
tp1732
sS'ieee_write_asn'
p1733
(L134607664L
L134607730L
tp1734
sS'_bfd_generic_write_ar_hdr'
p1735
(L134669376L
L134669425L
tp1736
sS'_bfd_merge_sections'
p1737
(L135104752L
L135106048L
tp1738
sS'symbolsrec_write_object_contents'
p1739
(L134740096L
L134740110L
tp1740
sS'bfd_map_over_sections'
p1741
(L134713904L
L134713994L
tp1742
sS'stab_lineno'
p1743
(L134648528L
L134648710L
tp1744
sS'ieee_write_atn65'
p1745
(L134614352L
L134614445L
tp1746
sS'_bfd_elf_swap_verdaux_in'
p1747
(L134823664L
L134823715L
tp1748
sS'__umoddi3'
p1749
(L135184880L
L135185223L
tp1750
sS'bfd_coff_set_symbol_class'
p1751
(L134699536L
L134699782L
tp1752
sS'bfd_elf32_checksum_contents'
p1753
(L134813376L
L134814133L
tp1754
sS'stab_volatile_type'
p1755
(L134650928L
L134650970L
tp1756
sS'htab_find_slot_with_hash'
p1757
(L135178080L
L135178540L
tp1758
sS'stab_demangle_v3_arg'
p1759
(L134573584L
L134575629L
tp1760
sS'_bfd_elf_copy_private_symbol_data'
p1761
(L134854448L
L134854727L
tp1762
sS'is_default_attr'
p1763
(L134961328L
L134961374L
tp1764
sS'_bfd_pei_swap_scnhdr_out'
p1765
(L135050624L
L135051552L
tp1766
sS'_bfd_elf_link_hash_table_free'
p1767
(L134884704L
L134884759L
tp1768
sS'generic_link_add_object_symbols'
p1769
(L134729552L
L134730043L
tp1770
sS'bfd_format_string'
p1771
(L134702448L
L134702484L
tp1772
sS'__libc_csu_fini'
p1773
(L135185344L
L135185346L
tp1774
sS'aout_32_find_nearest_line'
p1775
(L135008240L
L135009391L
tp1776
sS'bfd_elf32_swap_symbol_in'
p1777
(L134807344L
L134807549L
tp1778
sS'MY_bfd_copy_private_section_data'
p1779
(L134986864L
L134986925L
tp1780
sS'check_dynsym'
p1781
(L134887936L
L134888023L
tp1782
sS'bfd_realloc'
p1783
(L134703056L
L134703138L
tp1784
sS'scan_unit_for_symbols'
p1785
(L134761584L
L134763319L
tp1786
sS'coff_pe_i386_relocate_section'
p1787
(L135018240L
L135018292L
tp1788
sS'aout_32_link_add_symbols'
p1789
(L135009712L
L135009854L
tp1790
sS'd_exprlist'
p1791
(L135157232L
L135158997L
tp1792
sS'elf_strtab_hash_newfunc'
p1793
(L134965280L
L134965386L
tp1794
sS'_bfd_elf_make_section_from_phdr'
p1795
(L134829136L
L134829992L
tp1796
sS'bfd_elf_get_bfd_needed_list'
p1797
(L134936672L
L134937049L
tp1798
sS'elf_i386_link_hash_table_free'
p1799
(L134786432L
L134786497L
tp1800
sS'_bfd_elf_copy_private_section_data'
p1801
(L134847632L
L134847781L
tp1802
sS'_bfd_elf_slurp_version_tables'
p1803
(L134855616L
L134857865L
tp1804
sS'bfd_section_hash_newfunc'
p1805
(L134712064L
L134712238L
tp1806
sS'bfd_malloc'
p1807
(L134702880L
L134702941L
tp1808
sS'bfd_elf_reloc_symbol_deleted_p'
p1809
(L134882576L
L134882859L
tp1810
sS'd_bare_function_type'
p1811
(L135157040L
L135157124L
tp1812
sS'_bfd_elf_link_hash_copy_indirect'
p1813
(L134935776L
L134936073L
tp1814
sS'stab_empty_type'
p1815
(L134654432L
L134654584L
tp1816
sS'htab_create_typed_alloc'
p1817
(L135176896L
L135177049L
tp1818
sS'_bfd_generic_mkarchive'
p1819
(L134662416L
L134662459L
tp1820
sS'bfd_stat'
p1821
(L134683808L
L134683880L
tp1822
sS'_bfd_elf_fix_symbol_flags'
p1823
(L134905248L
L134906013L
tp1824
sS'srec_write_object_contents'
p1825
(L134740080L
L134740091L
tp1826
sS'bfd_core_file_failing_command'
p1827
(L135093808L
L135093858L
tp1828
sS'_bfd_coff_write_global_sym'
p1829
(L135070240L
L135071540L
tp1830
sS'elfcore_write_ppc_vmx'
p1831
(L134878240L
L134878307L
tp1832
sS'coff_new_section_hook'
p1833
(L135036208L
L135036438L
tp1834
sS'd_print_cast'
p1835
(L135151968L
L135152603L
tp1836
sS'string_prepend'
p1837
(L135108496L
L135108544L
tp1838
sS'verilog_mkobject'
p1839
(L134773840L
L134773943L
tp1840
sS'_bfd_elf_get_dynamic_symtab_upper_bound'
p1841
(L134854800L
L134854899L
tp1842
sS'bfd_elf32_slurp_reloc_table'
p1843
(L134812240L
L134812801L
tp1844
sS'bfd_hash_lookup'
p1845
(L134720864L
L134721198L
tp1846
sS'_bfd_archive_bsd44_construct_extended_name_table'
p1847
(L134669152L
L134669366L
tp1848
sS'bfd_get_unique_section_name'
p1849
(L134712816L
L134713074L
tp1850
sS'create_symbol_htab'
p1851
(L134536304L
L134536363L
tp1852
sS'java_demangle_v3'
p1853
(L135165600L
L135165625L
tp1854
sS'elf_i386_mkobject'
p1855
(L134786848L
L134786883L
tp1856
sS'bfd_default_compatible'
p1857
(L134677088L
L134677131L
tp1858
sS'_bfd_elf_discard_section_eh_frame'
p1859
(L134973808L
L134975582L
tp1860
sS'bfd_section_from_phdr'
p1861
(L134875840L
L134876346L
tp1862
sS'remember_Ktype'
p1863
(L135107616L
L135107752L
tp1864
sS'coff_i386_reloc_type_lookup'
p1865
(L135022592L
L135022770L
tp1866
sS'cplus_demangle_v3_components'
p1867
(L135168528L
L135168855L
tp1868
sS'stab_int_type'
p1869
(L134653296L
L134653969L
tp1870
sS'ieee_complex_type'
p1871
(L134604416L
L134604778L
tp1872
sS'aout_32_make_sections'
p1873
(L134997840L
L134997988L
tp1874
sS'_bfd_delete_bfd'
p1875
(L134706752L
L134706831L
tp1876
sS'bfd_set_default_target'
p1877
(L134719232L
L134719308L
tp1878
sS'bfd_fdopenr'
p1879
(L134708896L
L134709067L
tp1880
sS'cplus_demangle_fill_operator'
p1881
(L135168368L
L135168514L
tp1882
sS'bfd_get_arch_size'
p1883
(L134680080L
L134680140L
tp1884
sS'_bfd_elf_adjust_dynamic_symbol'
p1885
(L134906016L
L134906322L
tp1886
sS'bfd_create_gnu_debuglink_section'
p1887
(L134711360L
L134711516L
tp1888
sS'_bfd_generic_read_ar_hdr_mag'
p1889
(L134662912L
L134664006L
tp1890
sS'debug_write_linenos'
p1891
(L134556608L
L134556789L
tp1892
sS'print_arelt_descr'
p1893
(L134658784L
L134659097L
tp1894
sS'_bfd_pe_get_symbol_info'
p1895
(L135064512L
L135064517L
tp1896
sS'stab_pointer_type'
p1897
(L134651344L
L134651389L
tp1898
sS'aout_link_write_other_symbol'
p1899
(L134991520L
L134992324L
tp1900
sS'debug_find_named_type'
p1901
(L134569264L
L134569540L
tp1902
sS'_bfd_elf_link_renumber_dynsyms'
p1903
(L134883984L
L134884265L
tp1904
sS'_bfd_ar_sizepad'
p1905
(L134662208L
L134662405L
tp1906
sS'bfd_false'
p1907
(L134702512L
L134702533L
tp1908
sS'_bfd_elf_make_empty_symbol'
p1909
(L134860800L
L134860835L
tp1910
sS'elf_i386_add_symbol_hook'
p1911
(L134786944L
L134787024L
tp1912
sS'bfd_init_section_decompress_status'
p1913
(L134773056L
L134773335L
tp1914
sS'_bfd_archive_close_and_cleanup'
p1915
(L134675792L
L134676047L
tp1916
sS'stab_end_function'
p1917
(L134642432L
L134642438L
tp1918
sS'ieee_offset_type'
p1919
(L134599616L
L134599651L
tp1920
sS'ihex_sizeof_headers'
p1921
(L134748384L
L134748387L
tp1922
sS'i386_aout_linux_object_p'
p1923
(L134985264L
L134985468L
tp1924
sS'elfcore_write_aarch_hw_watch'
p1925
(L134879280L
L134879347L
tp1926
sS'stab_class_end_method'
p1927
(L134644544L
L134644629L
tp1928
sS'set_symbol_from_hash'
p1929
(L134722752L
L134723018L
tp1930
sS'_bfd_link_section_stabs'
p1931
(L135099440L
L135101643L
tp1932
sS'get_alt_debug_link_info_shim'
p1933
(L134711216L
L134711287L
tp1934
sS'demangle_nested_args'
p1935
(L135124064L
L135124188L
tp1936
sS'_bfd_elf32_bfd_from_remote_memory'
p1937
(L134816112L
L134817486L
tp1938
sS'bfd_elf_stack_segment_size'
p1939
(L134925456L
L134925917L
tp1940
sS'demangle_signature'
p1941
(L135125488L
L135127759L
tp1942
sS'stab_start_function'
p1943
(L134647168L
L134647408L
tp1944
sS'ieee_get_modified_info'
p1945
(L134611712L
L134611838L
tp1946
sS'opncls_bwrite'
p1947
(L134706512L
L134706523L
tp1948
sS'_bfd_coff_debug_merge_hash_newfunc'
p1949
(L135067504L
L135067590L
tp1950
sS'srec_sizeof_headers'
p1951
(L134736384L
L134736387L
tp1952
sS'set_long_section_mode'
p1953
(L134539632L
L134539728L
tp1954
sS'bfd_true'
p1955
(L134702544L
L134702550L
tp1956
sS'cplus_demangle_print'
p1957
(L135165184L
L135165435L
tp1958
sS'elf_vxworks_add_symbol_hook'
p1959
(L134806048L
L134806122L
tp1960
sS'bfd_print_symbol_vandf'
p1961
(L134714992L
L134715356L
tp1962
sS'_bfd_generic_link_output_symbols'
p1963
(L134730720L
L134731906L
tp1964
sS'_bfd_compute_and_write_armap'
p1965
(L134670464L
L134671451L
tp1966
sS'elf_sort_symbol'
p1967
(L134882128L
L134882209L
tp1968
sS'bfd_elf32_swap_reloca_out'
p1969
(L134807760L
L134807840L
tp1970
sS'aout_32_write_syms'
p1971
(L135003040L
L135004236L
tp1972
sS'bfd_coff_get_comdat_section'
p1973
(L134699792L
L134699826L
tp1974
sS'bfd_hash_allocate'
p1975
(L134721504L
L134721619L
tp1976
sS'start_stab'
p1977
(L134592672L
L134592849L
tp1978
sS'_bfd_write_stab_strings'
p1979
(L135102848L
L135103047L
tp1980
sS'elf_link_flush_output_syms'
p1981
(L134890240L
L134890398L
tp1982
sS'elf_i386_always_size_sections'
p1983
(L134784928L
L134785186L
tp1984
sS'_bfd_elf_ifunc_get_synthetic_symtab'
p1985
(L134803520L
L134804441L
tp1986
sS'MY_close_and_cleanup'
p1987
(L134984448L
L134984493L
tp1988
sS'elf_find_function'
p1989
(L134819376L
L134819909L
tp1990
sS'bfd_create'
p1991
(L134709712L
L134709788L
tp1992
sS'stab_typed_constant'
p1993
(L134647808L
L134647975L
tp1994
sS'_bfd_elf_tls_setup'
p1995
(L134910816L
L134910922L
tp1996
sS'in_reloc_p'
p1997
(L135016752L
L135016782L
tp1998
sS'bfd_elf_get_runpath_list'
p1999
(L134936592L
L134936615L
tp2000
sS'ieee_require_atn65'
p2001
(L134520064L
L134520294L
tp2002
sS'debug_write_name'
p2003
(L134562448L
L134563106L
tp2004
sS'bfd_get_alt_debug_link_info'
p2005
(L134710912L
L134711201L
tp2006
sS'swap_abort'
p2007
(L135091072L
L135091103L
tp2008
sS'_bfd_elf_sizeof_headers'
p2009
(L134861728L
L134861865L
tp2010
sS'_bfd_generic_verify_endian_match'
p2011
(L134705824L
L134705962L
tp2012
sS'ieee_tag_type'
p2013
(L134598096L
L134599035L
tp2014
sS'elf_link_adjust_relocs'
p2015
(L134525843L
L134526242L
tp2016
sS'debug_record_type_size'
p2017
(L134569152L
L134569253L
tp2018
sS'bfd_elf32_write_relocs'
p2019
(L134811072L
L134811588L
tp2020
sS'bfd_printable_arch_mach'
p2021
(L134677728L
L134677777L
tp2022
sS'stab_get_struct_index'
p2023
(L134642784L
L134642994L
tp2024
sS'htab_find_with_hash'
p2025
(L135177696L
L135178021L
tp2026
sS'_bfd_norelocs_get_reloc_upper_bound'
p2027
(L134702688L
L134702694L
tp2028
sS'bfd_make_section_old_way'
p2029
(L134713088L
L134713339L
tp2030
sS'stab_bad_demangle'
p2031
(L134570896L
L134570964L
tp2032
sS'bfd_get_debug_link_info'
p2033
(L134706832L
L134707049L
tp2034
sS'htab_size'
p2035
(L135176688L
L135176696L
tp2036
sS'aout_get_external_symbols'
p2037
(L134988656L
L134989067L
tp2038
sS'_bfd_elf_allocate_ifunc_dyn_relocs'
p2039
(L134802832L
L134803518L
tp2040
sS'concat_copy'
p2041
(L135167632L
L135167709L
tp2042
sS'new_fixup'
p2043
(L134986928L
L134987004L
tp2044
sS'_bfd_elf_section_offset'
p2045
(L134880784L
L134880927L
tp2046
sS'coff_set_alignment_hook'
p2047
(L135020640L
L135021297L
tp2048
sS'd_ref_qualifier'
p2049
(L135131984L
L135132063L
tp2050
sS'_bfd_elf_add_dynamic_entry'
p2051
(L134910928L
L134911129L
tp2052
sS'parse_coff_struct_type'
p2053
(L134639888L
L134640580L
tp2054
sS'ieee_const_type'
p2055
(L134612096L
L134612339L
tp2056
sS'ihex_bad_byte'
p2057
(L134750032L
L134750250L
tp2058
sS'_bfd_elf_link_assign_sym_version'
p2059
(L134906336L
L134907209L
tp2060
sS'add_symbols'
p2061
(L135088560L
L135088623L
tp2062
sS'_bfd_elf_merge_symbol'
p2063
(L134901872L
L134905233L
tp2064
sS'bfd_link_add_undef'
p2065
(L134725888L
L134725972L
tp2066
sS'is_strip_section'
p2067
(L134540192L
L134540383L
tp2068
sS'ieee_start_class_type'
p2069
(L134620720L
L134621249L
tp2070
sS'simple_dummy_undefined_symbol'
p2071
(L134770880L
L134770886L
tp2072
sS'bfd_openr_next_archived_file'
p2073
(L134664944L
L134665011L
tp2074
sS'bfd_generic_is_local_label_name'
p2075
(L134705776L
L134705813L
tp2076
sS'elf32_r_sym'
p2077
(L134817504L
L134817512L
tp2078
sS'cache_btell'
p2079
(L135093008L
L135093074L
tp2080
sS'_bfd_pe_print_private_bfd_data_common'
p2081
(L135054768L
L135063737L
tp2082
sS'_bfd_elf_close_and_cleanup'
p2083
(L134862496L
L134862597L
tp2084
sS'debug_write'
p2085
(L134570384L
L134570661L
tp2086
sS'_bfd_handle_already_linked'
p2087
(L134734320L
L134734979L
tp2088
sS'bfd_emul_set_maxpagesize'
p2089
(L134681504L
L134681589L
tp2090
sS'simple_copy'
p2091
(L134552704L
L134552997L
tp2092
sS'eq_pointer'
p2093
(L135175856L
L135175871L
tp2094
sS'close_one'
p2095
(L135091344L
L135091430L
tp2096
sS'bfd_elf_get_obj_attr_int'
p2097
(L134962544L
L134962650L
tp2098
sS'parse_ieee'
p2099
(L134624944L
L134635803L
tp2100
sS'elf_i386_get_synthetic_symtab'
p2101
(L134785776L
L134785865L
tp2102
sS'bfd_putb16'
p2103
(L134703872L
L134703891L
tp2104
sS'mode_string'
p2105
(L134660448L
L134660820L
tp2106
sS'elfcore_grok_nto_regs'
p2107
(L134821232L
L134821552L
tp2108
sS'bfd_putl32'
p2109
(L134704720L
L134704753L
tp2110
sS'd_append_char'
p2111
(L135132160L
L135132274L
tp2112
sS'bfd_elf32_core_file_matches_executable_p'
p2113
(L134817616L
L134817743L
tp2114
sS'aout_32_new_section_hook'
p2115
(L135001280L
L135001475L
tp2116
sS'_bfd_count_link_order_relocs'
p2117
(L134734000L
L134734038L
tp2118
sS'debug_make_enum_type'
p2119
(L134566944L
L134567001L
tp2120
sS'_bfd_pei_swap_aux_out'
p2121
(L135046128L
L135046835L
tp2122
sS'_bfd_elf_rel_local_sym'
p2123
(L134880704L
L134880776L
tp2124
sS'srec_get_byte'
p2125
(L134738048L
L134738122L
tp2126
sS'bfd_elf32_core_file_p'
p2127
(L134817744L
L134818901L
tp2128
sS'bfd_fopen'
p2129
(L134708512L
L134708844L
tp2130
sS'string_append_0'
p2131
(L135108544L
L135108602L
tp2132
sS'_bfd_link_hash_newfunc'
p2133
(L134723488L
L134723592L
tp2134
sS'skip_section'
p2135
(L134541376L
L134541466L
tp2136
sS'memory_bstat'
p2137
(L134682400L
L134682518L
tp2138
sS'bfd_elf32_swap_dyn_out'
p2139
(L134807904L
L134807965L
tp2140
sS'ieee_tag_0'
p2141
(L134601328L
L134601354L
tp2142
sS'elf_i386_fbsd_post_process_headers'
p2143
(L134775168L
L134775173L
tp2144
sS'internal_cplus_demangle'
p2145
(L135129760L
L135131506L
tp2146
sS'_bfd_elf_maybe_strip_eh_frame_hdr'
p2147
(L134975808L
L134975912L
tp2148
sS'xmalloc_failed'
p2149
(L135183472L
L135183595L
tp2150
sS'debug_make_volatile_type'
p2151
(L134567728L
L134567772L
tp2152
sS'_bfd_elf_strtab_refcount'
p2153
(L134966080L
L134966098L
tp2154
sS'init_reloc_cookie'
p2155
(L134883040L
L134883314L
tp2156
sS'aout_32_read_minisymbols'
p2157
(L135007840L
L135007967L
tp2158
sS'string_prependn'
p2159
(L135108400L
L135108487L
tp2160
sS'd_discriminator'
p2161
(L135132624L
L135132659L
tp2162
sS'aout_32_final_link'
p2163
(L135009856L
L135016740L
tp2164
sS'_bfd_elfcore_strndup'
p2165
(L134862960L
L134863057L
tp2166
sS'elf_link_sort_cmp2'
p2167
(L134887232L
L134887295L
tp2168
sS'elf_i386_link_hash_table_create'
p2169
(L134786512L
L134786704L
tp2170
sS'elf_link_sort_cmp1'
p2171
(L134887136L
L134887223L
tp2172
sS'_bfd_clear_contents'
p2173
(L135097648L
L135098043L
tp2174
sS'htab_delete'
p2175
(L135177328L
L135177447L
tp2176
sS'bfd_hide_sym_by_version'
p2177
(L134736336L
L134736383L
tp2178
sS'buy_and_read'
p2179
(L135020112L
L135020225L
tp2180
sS'comp_unit_find_nearest_line'
p2181
(L134764480L
L134764903L
tp2182
sS'bfd_check_overflow'
p2183
(L135094384L
L135094586L
tp2184
sS'bfd_zalloc'
p2185
(L134710448L
L134710507L
tp2186
sS'stab_demangle_remember_type'
p2187
(L134571056L
L134571144L
tp2188
sS'bfd_hash_rename'
p2189
(L134721200L
L134721395L
tp2190
sS'htab_create_alloc_ex'
p2191
(L135176720L
L135176893L
tp2192
sS'xstrerror'
p2193
(L135183872L
L135183954L
tp2194
sS'work_stuff_copy_to_from'
p2195
(L135108960L
L135109686L
tp2196
sS'_bfd_elf_write_corefile_contents'
p2197
(L134847008L
L134847013L
tp2198
sS'u16_mbtouc'
p2199
(L135040880L
L135040969L
tp2200
sS'_bfd_elf_strtab_emit'
p2201
(L134966464L
L134966690L
tp2202
sS'coff_print_symbol'
p2203
(L134696480L
L134697905L
tp2204
sS'skip_cfa_op'
p2205
(L134967344L
L134967744L
tp2206
sS'debug_get_field_bitsize'
p2207
(L134570288L
L134570316L
tp2208
sS'elfcore_write_prfpreg'
p2209
(L134878000L
L134878067L
tp2210
sS'_bfd_elf_strtab_free'
p2211
(L134965520L
L134965560L
tp2212
sS'simple_dummy_reloc_dangerous'
p2213
(L134770912L
L134770918L
tp2214
sS'string_append'
p2215
(L135168976L
L135169034L
tp2216
sS'bfd_section_already_linked_table_lookup'
p2217
(L134734112L
L134734155L
tp2218
sS'dlang_identifier'
p2219
(L135171840L
L135172878L
tp2220
sS'd_encoding'
p2221
(L135161840L
L135163299L
tp2222
sS'bfd_is_undefined_symclass'
p2223
(L134715824L
L134715851L
tp2224
sS'bfd_link_hash_traverse'
p2225
(L134725744L
L134725888L
tp2226
sS'ieee_push_type'
p2227
(L134597808L
L134597993L
tp2228
sS'_bfd_elf_merge_unknown_attribute_list'
p2229
(L134964880L
L134965159L
tp2230
sS'ihex_set_section_contents'
p2231
(L134749760L
L134750031L
tp2232
sS'aout_32_link_hash_table_create'
p2233
(L135009616L
L135009708L
tp2234
sS'bfd_arch_bits_per_byte'
p2235
(L134677520L
L134677531L
tp2236
sS'ieee_pointer_type'
p2237
(L134612768L
L134613044L
tp2238
sS'elf_vxworks_create_dynamic_sections'
p2239
(L134806128L
L134806316L
tp2240
sS'linux_link_hash_newfunc'
p2241
(L134984368L
L134984444L
tp2242
sS'generic_link_check_archive_element_no_collect'
p2243
(L134730656L
L134730681L
tp2244
sS'elf_i386_size_dynamic_sections'
p2245
(L134781440L
L134784917L
tp2246
sS'_bfd_elf_archive_symbol_lookup'
p2247
(L134911712L
L134912032L
tp2248
sS'_bfd_generic_get_section_contents_in_window'
p2249
(L134705568L
L134705599L
tp2250
sS'd_operator_name'
p2251
(L135155536L
L135155966L
tp2252
sS'ieee_add_bb11_blocks'
p2253
(L134622032L
L134622242L
tp2254
sS'_bfd_generic_link_hash_table_create'
p2255
(L134726064L
L134726156L
tp2256
sS'stab_tag_type'
p2257
(L134649168L
L134649238L
tp2258
sS'xstrdup'
p2259
(L135183808L
L135183858L
tp2260
sS'_bfd_stringtab_emit'
p2261
(L134722448L
L134722605L
tp2262
sS'comp_unit_contains_address'
p2263
(L134754944L
L134754982L
tp2264
sS'aout_link_includes_newfunc'
p2265
(L134990528L
L134990618L
tp2266
sS'bfd_elf_set_dt_needed_name'
p2267
(L134936400L
L134936445L
tp2268
sS'elf_i386_allocate_local_dynrelocs'
p2269
(L134799584L
L134799670L
tp2270
sS'bfd_elf_sym_name'
p2271
(L134826144L
L134826271L
tp2272
sS'_bfd_stringtab_free'
p2273
(L134722080L
L134722119L
tp2274
sS'coff_find_nearest_line_with_names'
p2275
(L134697952L
L134699283L
tp2276
sS'_bfd_elf_write_section_eh_frame'
p2277
(L134976416L
L134979974L
tp2278
sS'bfd_elf_link_add_symbols'
p2279
(L134912032L
L134925292L
tp2280
sS'debug_record_label'
p2281
(L134566064L
L134566134L
tp2282
sS'_bfd_elf_gc_mark'
p2283
(L134955296L
L134955715L
tp2284
sS'getpwd'
p2285
(L135175568L
L135175851L
tp2286
sS'ieee_bool_type'
p2287
(L134599664L
L134599699L
tp2288
sS'aout_32_some_aout_object_p'
p2289
(L134998000L
L134998790L
tp2290
sS'bfd_reloc_name_lookup'
p2291
(L135098064L
L135098079L
tp2292
sS'ieee_float_constant'
p2293
(L134596928L
L134596934L
tp2294
sS'demangle_args'
p2295
(L135123360L
L135124051L
tp2296
sS'elf_swap_shdr_out'
p2297
(L134810496L
L134810691L
tp2298
sS'bfd_elf_set_dyn_lib_class'
p2299
(L134936512L
L134936557L
tp2300
sS'elf_i386_local_htab_eq'
p2301
(L134775088L
L134775126L
tp2302
sS'_bfd_elf_rela_local_sym'
p2303
(L134880528L
L134880692L
tp2304
sS'generic_link_add_symbols'
p2305
(L134730048L
L134730137L
tp2306
sS'strrevcmp_align'
p2307
(L135103264L
L135103391L
tp2308
sS'aout_link_add_symbols'
p2309
(L134989312L
L134990524L
tp2310
sS'_bfd_elf_copy_obj_attributes'
p2311
(L134963168L
L134963535L
tp2312
sS'bfd_hash_insert'
p2313
(L134720336L
L134720854L
tp2314
sS'bfd_zmalloc2'
p2315
(L134703488L
L134703624L
tp2316
sS'_bfd_elf_strtab_delref'
p2317
(L134965920L
L134966076L
tp2318
sS'symbolsrec_object_p'
p2319
(L134742944L
L134743188L
tp2320
sS'coff_get_lineno'
p2321
(L134691168L
L134691176L
tp2322
sS'bfd_init_section_compress_status'
p2323
(L134773344L
L134773518L
tp2324
sS'coff_write_symbols'
p2325
(L134689056L
L134690725L
tp2326
sS'simple_dummy_warning'
p2327
(L134770864L
L134770870L
tp2328
sS'd_growable_string_callback_adapter'
p2329
(L135133936L
L135134129L
tp2330
sS'nacl_modify_segment_map'
p2331
(L134804448L
L134805281L
tp2332
sS'fatal'
p2333
(L134656560L
L134656595L
tp2334
sS'_bfd_elf_link_hash_fixup_symbol'
p2335
(L134910192L
L134910235L
tp2336
sS'xmalloc_set_program_name'
p2337
(L135183408L
L135183461L
tp2338
sS'strrevcmp_1'
p2339
(L135103152L
L135103258L
tp2340
sS'first_phase'
p2341
(L134745520L
L134746418L
tp2342
sS'write_value'
p2343
(L134968384L
L134968505L
tp2344
sS'coff_mangle_symbols'
p2345
(L134688064L
L134688449L
tp2346
sS'coff_print_aux'
p2347
(L135022512L
L135022590L
tp2348
sS'_bfd_elf_make_section_from_shdr'
p2349
(L134871472L
L134871514L
tp2350
sS'styp_to_sec_flags'
p2351
(L135026368L
L135028480L
tp2352
sS'elf_vxworks_add_dynamic_entries'
p2353
(L134806912L
L134807135L
tp2354
sS'rsrc_write_directory'
p2355
(L135037616L
L135038102L
tp2356
sS'_bfd_coff_final_link'
p2357
(L135081728L
L135086513L
tp2358
sS'bfd_elf32_core_file_pid'
p2359
(L134817584L
L134817604L
tp2360
sS'_bfd_generic_link_split_section'
p2361
(L134734048L
L134734051L
tp2362
sS'elf_link_renumber_local_hash_table_dynsyms'
p2363
(L134886704L
L134886740L
tp2364
sS'_bfd_elf_hash_symbol'
p2365
(L134925296L
L134925352L
tp2366
sS'debug_make_undefined_tagged_type'
p2367
(L134569008L
L134569141L
tp2368
sS'debug_record_float_const'
p2369
(L134565904L
L134565968L
tp2370
sS'ieee_finish_compilation_unit'
p2371
(L134608864L
L134610714L
tp2372
sS'_bfd_coff_free_symbols'
p2373
(L134693936L
L134694039L
tp2374
sS'add_line_info'
p2375
(L134754080L
L134754854L
tp2376
sS'_bfd_elf_swap_verdef_out'
p2377
(L134823504L
L134823664L
tp2378
sS'aout_32_swap_std_reloc_in'
p2379
(L135005600L
L135006197L
tp2380
sS'find_section_list'
p2381
(L134536608L
L134536970L
tp2382
sS'elf_i386_hash_symbol'
p2383
(L134775184L
L134775219L
tp2384
sS'get_count'
p2385
(L135107168L
L135107301L
tp2386
sS'dlang_call_convention'
p2387
(L135169040L
L135169196L
tp2388
sS'is_valid_archive_path'
p2389
(L134660160L
L134660292L
tp2390
sS'make_tempdir'
p2391
(L134659168L
L134659192L
tp2392
sS'bfd_elf_lookup_section_flags'
p2393
(L134958192L
L134958582L
tp2394
sS'bfd_core_file_pid'
p2395
(L135093936L
L135093990L
tp2396
sS'd_find_pack'
p2397
(L135133696L
L135133785L
tp2398
sS'_bfd_elf_link_sec_merge_syms'
p2399
(L134890816L
L134890920L
tp2400
sS'bfd_get_section_by_name_if'
p2401
(L134712656L
L134712804L
tp2402
sS'stab_enum_type'
p2403
(L134652416L
L134653033L
tp2404
sS'higher_prime_index'
p2405
(L135176000L
L135176135L
tp2406
sS'concat_filename'
p2407
(L134757376L
L134757815L
tp2408
sS'dummy_reloc16_extra_cases'
p2409
(L135018208L
L135018239L
tp2410
sS'ieee_read_type_index'
p2411
(L134624784L
L134624939L
tp2412
sS'bfd_generic_openr_next_archived_file'
p2413
(L134665024L
L134665177L
tp2414
sS'cplus_demangle_fill_builtin_type'
p2415
(L135168224L
L135168362L
tp2416
sS'_bfd_coff_internal_syment_name'
p2417
(L134693776L
L134693924L
tp2418
sS'_bfd_new_bfd_contained_in'
p2419
(L134708288L
L134708388L
tp2420
sS'bfd_getl_signed_64'
p2421
(L134704528L
L134704670L
tp2422
sS'_bfd_elf_gc_mark_fdes'
p2423
(L134973648L
L134973797L
tp2424
sS'd_abi_tags'
p2425
(L135132880L
L135132953L
tp2426
sS'coff_bfd_make_debug_symbol'
p2427
(L134695840L
L134695948L
tp2428
sS'_bfd_coff_get_external_symbols'
p2429
(L134691184L
L134691351L
tp2430
sS'_bfd_dwarf1_find_nearest_line'
p2431
(L134982288L
L134982853L
tp2432
sS'bfd_set_section_size'
p2433
(L134714096L
L134714154L
tp2434
sS'bfd_get_next_section_by_name'
p2435
(L134712480L
L134712553L
tp2436
sS'dos_lbasename'
p2437
(L135179776L
L135179849L
tp2438
sS'elf_i386_get_plt_sym_val'
p2439
(L134785872L
L134786326L
tp2440
sS'coff_swap_reloc_in'
p2441
(L135016784L
L135016851L
tp2442
sS'sec_merge_add'
p2443
(L135104000L
L135104092L
tp2444
sS'demangle_template'
p2445
(L135113584L
L135115185L
tp2446
sS'mark_symbols_used_in_relocations'
p2447
(L134537776L
L134537981L
tp2448
sS'coff_get_symtab_upper_bound'
p2449
(L134686320L
L134686375L
tp2450
sS'copy_usage'
p2451
(L134537376L
L134537771L
tp2452
sS'debug_make_struct_type'
p2453
(L134566560L
L134566718L
tp2454
sS'bfd_elf_size_dynamic_sections'
p2455
(L134925920L
L134931591L
tp2456
sS'tekhex_canonicalize_symtab'
p2457
(L134744432L
L134744487L
tp2458
sS'writesym'
p2459
(L134745312L
L134745431L
tp2460
sS'_bfd_elf_parse_attributes'
p2461
(L134963536L
L134964233L
tp2462
sS'_bfd_nocore_core_file_pid'
p2463
(L134702816L
L134702837L
tp2464
sS'htab_empty'
p2465
(L135177456L
L135177691L
tp2466
sS'debug_set_filename'
p2467
(L134563696L
L134563878L
tp2468
sS'compute_bucket_count'
p2469
(L134883392L
L134883983L
tp2470
sS'ieee_typedef_type'
p2471
(L134599040L
L134599245L
tp2472
sS'_bfd_coff_read_internal_relocs'
p2473
(L134686496L
L134687024L
tp2474
sS'resolve_symbol'
p2475
(L134894448L
L134894779L
tp2476
sS'ieee_add_range'
p2477
(L134597584L
L134597798L
tp2478
sS'_bfd_elf_single_rel_hdr'
p2479
(L134830000L
L134830072L
tp2480
sS'elfcore_write_prstatus'
p2481
(L134877760L
L134877988L
tp2482
sS'debug_get_type_kind'
p2483
(L134569712L
L134569750L
tp2484
sS'_bfd_pei_swap_lineno_out'
p2485
(L135046912L
L135046976L
tp2486
sS'd_print_comp_inner'
p2487
(L135134144L
L135147633L
tp2488
sS'_bfd_coff_link_add_symbols'
p2489
(L135071904L
L135071984L
tp2490
sS'bfd_link_hash_lookup'
p2491
(L134723824L
L134723899L
tp2492
sS'bfd_elf32_core_file_failing_signal'
p2493
(L134817552L
L134817571L
tp2494
sS'_bfd_elf_symbol_refs_local_p'
p2495
(L134910624L
L134910803L
tp2496
sS'simple_dummy_einfo'
p2497
(L134770960L
L134770962L
tp2498
sS'_bfd_elf_strtab_offset'
p2499
(L134966304L
L134966464L
tp2500
sS'bfd_printable_name'
p2501
(L134677136L
L134677147L
tp2502
sS'aout_32_link_hash_newfunc'
p2503
(L134989200L
L134989298L
tp2504
sS'ieee_write_undefined_tag'
p2505
(L134604784L
L134605385L
tp2506
sS'debug_end_function'
p2507
(L134564688L
L134564842L
tp2508
sS'dupargv'
p2509
(L135165760L
L135165930L
tp2510
sS'_bfd_elf_make_dynamic_reloc_section'
p2511
(L134960816L
L134960978L
tp2512
sS'elf_link_output_sym'
p2513
(L134890400L
L134890812L
tp2514
sS'opncls_bmmap'
p2515
(L134706592L
L134706598L
tp2516
sS'bfd_sections_find_if'
p2517
(L134714000L
L134714084L
tp2518
sS'_bfd_coff_is_local_label_name'
p2519
(L134697920L
L134697946L
tp2520
sS'bfd_arch_i386_fill'
p2521
(L135090000L
L135090193L
tp2522
sS'vma_compare'
p2523
(L134968144L
L134968199L
tp2524
sS'elfcore_write_s390_prefix'
p2525
(L134878720L
L134878787L
tp2526
sS'debug_record_line'
p2527
(L134565312L
L134565669L
tp2528
sS'debug_make_reference_type'
p2529
(L134567168L
L134567212L
tp2530
sS'xrealloc'
p2531
(L135183728L
L135183794L
tp2532
sS'linux_tally_symbols'
p2533
(L134987008L
L134987738L
tp2534
sS'null_error_handler'
p2535
(L134684512L
L134684514L
tp2536
sS'compare_section_lma'
p2537
(L134536192L
L134536295L
tp2538
sS'_bfd_generic_link_just_syms'
p2539
(L134726192L
L134726226L
tp2540
sS'opncls_bstat'
p2541
(L134706608L
L134706742L
tp2542
sS'coff_link_output_has_begun'
p2543
(L135017360L
L135017375L
tp2544
sS'_bfd_nocore_core_file_failing_signal'
p2545
(L134702784L
L134702805L
tp2546
sS'stab_class_method_var'
p2547
(L134645488L
L134646377L
tp2548
sS'eval_symbol'
p2549
(L134894784L
L134899747L
tp2550
sS'binary_get_symbol_info'
p2551
(L134743248L
L134743269L
tp2552
sS'stab_function_type'
p2553
(L134651072L
L134651330L
tp2554
sS'cplus_demangle_init_info'
p2555
(L135165440L
L135165531L
tp2556
sS'bfd_hash_table_init'
p2557
(L134720256L
L134720300L
tp2558
sS'reconcat'
p2559
(L135167968L
L135168133L
tp2560
sS'elf_vxworks_gott_symbol_p'
p2561
(L134805968L
L134806048L
tp2562
sS'debug_end_common_block'
p2563
(L134565760L
L134565830L
tp2564
sS'coff_section_from_bfd_index'
p2565
(L134686240L
L134686318L
tp2566
sS'coff_get_symbol_info'
p2567
(L134695952L
L134696021L
tp2568
sS'bfd_0'
p2569
(L134702592L
L134702595L
tp2570
sS'_bfd_elf_link_lookup_local_dynindx'
p2571
(L134908368L
L134908430L
tp2572
sS'bfd_generic_merge_sections'
p2573
(L135098432L
L135098438L
tp2574
sS'bfd_malloc2'
p2575
(L134702944L
L134703055L
tp2576
sS'_bfd_generic_set_section_contents'
p2577
(L134705600L
L134705716L
tp2578
sS'elfcore_write_prpsinfo'
p2579
(L134876672L
L134876955L
tp2580
sS'_bfd_pe_only_swap_filehdr_out'
p2581
(L135050432L
L135050616L
tp2582
sS'elf_swap_ehdr_out'
p2583
(L134809936L
L134810272L
tp2584
sS'debug_get_target_type'
p2585
(L134570048L
L134570123L
tp2586
sS'__divdi3'
p2587
(L135184032L
L135184402L
tp2588
sS'out'
p2589
(L134744960L
L134745307L
tp2590
sS'_bfd_generic_link_add_one_symbol'
p2591
(L134727056L
L134729538L
tp2592
sS'bfd_coff_get_auxent'
p2593
(L134696176L
L134696465L
tp2594
sS'nacl_final_write_processing'
p2595
(L134805616L
L134805955L
tp2596
sS'_bfd_elf_swap_vernaux_out'
p2597
(L134824144L
L134824264L
tp2598
sS'bfd_putl16'
p2599
(L134703904L
L134703921L
tp2600
sS'binary_set_section_contents'
p2601
(L134743824L
L134744088L
tp2602
sS'memory_bmmap'
p2603
(L134682384L
L134682390L
tp2604
sS'add_specific_symbols'
p2605
(L134537984L
L134538666L
tp2606
sS'_bfd_elf_write_section_eh_frame_hdr'
p2607
(L134979984L
L134980986L
tp2608
sS'bfd_bwrite'
p2609
(L134683552L
L134683664L
tp2610
sS'bfd_get_sign_extend_vma'
p2611
(L134680144L
L134680402L
tp2612
sS'bfd_plugin_object_p'
p2613
(L135089280L
L135089639L
tp2614
sS'coff_write_object_contents'
p2615
(L135028688L
L135032985L
tp2616
sS'bfd_plugin_canonicalize_symtab'
p2617
(L135089648L
L135089953L
tp2618
sS'bfd_0l'
p2619
(L134702624L
L134702627L
tp2620
sS'get_program_header_size'
p2621
(L134819920L
L134820377L
tp2622
sS'debug_make_pointer_type'
p2623
(L134567008L
L134567076L
tp2624
sS'elfcore_write_s390_todcmp'
p2625
(L134878480L
L134878547L
tp2626
sS'd_template_args'
p2627
(L135160480L
L135160754L
tp2628
sS'elf_sym_name_compare'
p2629
(L134882864L
L134882891L
tp2630
sS'ihex_write_record'
p2631
(L134748544L
L134748917L
tp2632
sS'_bfd_get_gp_value'
p2633
(L134680608L
L134680682L
tp2634
sS'coff_canonicalize_reloc'
p2635
(L135025504L
L135026360L
tp2636
sS'debug_make_baseclass'
p2637
(L134567776L
L134567822L
tp2638
sS'stab_push_defined_type'
p2639
(L134649040L
L134649154L
tp2640
sS'debug_record_variable'
p2641
(L134566144L
L134566387L
tp2642
sS'elf_final_link_free'
p2643
(L134899760L
L134900005L
tp2644
sS'savestring'
p2645
(L134596944L
L134596996L
tp2646
sS'elf_vxworks_link_output_symbol_hook'
p2647
(L134806320L
L134806390L
tp2648
sS'elf_link_check_versioned_symbol'
p2649
(L134888928L
L134889800L
tp2650
sS'init_reloc_cookie_for_section'
p2651
(L134909248L
L134909469L
tp2652
sS'coff_object_p'
p2653
(L134693312L
L134693776L
tp2654
sS'make_relative_prefix_ignore_links'
p2655
(L135181760L
L135181785L
tp2656
sS'bfd_emul_set_commonpagesize'
p2657
(L134681664L
L134681749L
tp2658
sS'stab_start_compilation_unit'
p2659
(L134643952L
L134643986L
tp2660
sS'bfd_getb_signed_16'
p2661
(L134703808L
L134703833L
tp2662
sS'_bfd_dummy_target'
p2663
(L134702848L
L134702869L
tp2664
sS'cache_bseek'
p2665
(L135092912L
L135093001L
tp2666
sS'coff_get_slot'
p2667
(L134637168L
L134637500L
tp2668
sS'stab_void_type'
p2669
(L134654272L
L134654424L
tp2670
sS'gnu_special'
p2671
(L135128176L
L135129751L
tp2672
sS'tekhex_sizeof_headers'
p2673
(L134744656L
L134744659L
tp2674
sS'arange_add'
p2675
(L134755248L
L134755437L
tp2676
sS'bfd_set_reloc'
p2677
(L134678400L
L134678419L
tp2678
sS'coff_swap_filehdr_in'
p2679
(L135016960L
L135017146L
tp2680
sS'debug_get_type_size'
p2681
(L134569808L
L134569885L
tp2682
sS'bfd_plugin_get_symbol_info'
p2683
(L135088480L
L135088501L
tp2684
sS'real_fseek'
p2685
(L134683264L
L134683269L
tp2686
sS'concat_copy2'
p2687
(L135167712L
L135167798L
tp2688
sS'srec_canonicalize_symtab'
p2689
(L134736416L
L134736593L
tp2690
sS'_bfd_free_cached_info'
p2691
(L134708400L
L134708504L
tp2692
sS'stab_emit_pending_vars'
p2693
(L134571552L
L134571668L
tp2694
sS'elf_vxworks_emit_relocs'
p2695
(L134806400L
L134806796L
tp2696
sS'set_cplus_marker_for_demangling'
p2697
(L135109840L
L135109850L
tp2698
sS'ihex_object_p'
p2699
(L134750256L
L134752654L
tp2700
sS'_bfd_elf_match_sections_by_type'
p2701
(L134937056L
L134937146L
tp2702
sS'emit_stringtab'
p2703
(L134989072L
L134989197L
tp2704
sS'_bfd_default_error_handler'
p2705
(L134679056L
L134680078L
tp2706
sS'_bfd_pe_bfd_copy_private_bfd_data_common'
p2707
(L135063744L
L135064299L
tp2708
sS'_bfd_elf_gc_mark_rsec'
p2709
(L134955040L
L134955285L
tp2710
sS'_bfd_coff_link_hash_table_init'
p2711
(L135071648L
L135071798L
tp2712
sS'elf_i386_grok_psinfo'
p2713
(L134775280L
L134775642L
tp2714
sS'obj_attr_size'
p2715
(L134961376L
L134961472L
tp2716
sS'_bfd_elf_link_size_reloc_section'
p2717
(L134889808L
L134889919L
tp2718
sS'cache_bflush'
p2719
(L135092816L
L135092904L
tp2720
sS'core_file_matches_executable_p'
p2721
(L135094000L
L135094070L
tp2722
sS'd_substitution'
p2723
(L135132960L
L135133467L
tp2724
sS'elf_renumber_gnu_hash_syms'
p2725
(L134886864L
L134887132L
tp2726
sS'objalloc_create'
p2727
(L135182528L
L135182624L
tp2728
sS'sort_by_secaddr'
p2729
(L135017248L
L135017282L
tp2730
sS'htab_find_slot'
p2731
(L135178544L
L135178592L
tp2732
sS'list_supported_architectures'
p2733
(L134657104L
L134657317L
tp2734
sS'free_split_directories'
p2735
(L135180000L
L135180056L
tp2736
sS'bfd_default_reloc_type_lookup'
p2737
(L135098080L
L135098232L
tp2738
sS'redefine_list_append'
p2739
(L134538672L
L134538905L
tp2740
sS'aout_32_reloc_name_lookup'
p2741
(L134997296L
L134997403L
tp2742
sS'_bfd_elf_link_omit_section_dynsym'
p2743
(L134908432L
L134908626L
tp2744
sS'ieee_end_block'
p2745
(L134611264L
L134611544L
tp2746
sS'd_append_string'
p2747
(L135133792L
L135133935L
tp2748
sS'_bfd_elf_merge_unknown_attribute_low'
p2749
(L134964656L
L134964868L
tp2750
sS'd_name'
p2751
(L135160768L
L135161829L
tp2752
sS'is_strip_section_1'
p2753
(L134539776L
L134540089L
tp2754
sS'ieee_reference_type'
p2755
(L134613056L
L134613094L
tp2756
sS'htab_create'
p2757
(L135177168L
L135177235L
tp2758
sS'coff_sizeof_headers'
p2759
(L134699472L
L134699528L
tp2760
sS'_bfd_generic_get_section_contents'
p2761
(L134705216L
L134705563L
tp2762
sS'bfd_fill_in_gnu_debuglink_section'
p2763
(L134711520L
L134711927L
tp2764
sS'bfd_assert'
p2765
(L134678432L
L134678504L
tp2766
sS'elf_swap_ehdr_in'
p2767
(L134809648L
L134809923L
tp2768
sS'bfd_plugin_bfd_copy_private_bfd_data'
p2769
(L135088448L
L135088480L
tp2770
sS'_bfd_elf_link_find_version_dependencies'
p2771
(L134888576L
L134888925L
tp2772
sS'bfd_canonicalize_reloc'
p2773
(L134678864L
L134678927L
tp2774
sS'find_debug_info'
p2775
(L134755104L
L134755238L
tp2776
sS'move_section_contents'
p2777
(L134746432L
L134746689L
tp2778
sS'adjust_relative_path'
p2779
(L134661312L
L134661996L
tp2780
sS'find_chunk'
p2781
(L134744672L
L134744810L
tp2782
sS'_bfd_elf_gc_mark_reloc'
p2783
(L134955728L
L134955848L
tp2784
sS'bfd_emul_get_commonpagesize'
p2785
(L134681600L
L134681650L
tp2786
sS'hash_pointer'
p2787
(L135175872L
L135175997L
tp2788
sS'copy_name'
p2789
(L134684528L
L134684624L
tp2790
sS'htab_expand'
p2791
(L135176144L
L135176675L
tp2792
sS'stab_demangle_v3_arglist'
p2793
(L134575632L
L134575975L
tp2794
sS'_bfd_elf_parse_eh_frame'
p2795
(L134968512L
L134973634L
tp2796
sS'debug_make_field'
p2797
(L134567824L
L134567982L
tp2798
sS'coff_set_section_contents'
p2799
(L135019824L
L135020106L
tp2800
sS'bfd_elf32_swap_phdr_in'
p2801
(L134812816L
L134813015L
tp2802
sS'sec_merge_hash_lookup'
p2803
(L135103520L
L135103996L
tp2804
sS'string_need'
p2805
(L135108240L
L135108340L
tp2806
sS'_bfd_elf_set_section_contents'
p2807
(L134861872L
L134862017L
tp2808
sS'aout_32_machine_type'
p2809
(L134998912L
L134999589L
tp2810
sS'frame_dummy'
p2811
(L134536128L
L134536173L
tp2812
sS'read_attribute_value'
p2813
(L134755920L
L134757364L
tp2814
sS'd_count_templates_scopes'
p2815
(L135132064L
L135132160L
tp2816
sS'dlang_function_args'
p2817
(L135174512L
L135174823L
tp2818
sS'snarf_numeric_literal'
p2819
(L135108720L
L135108883L
tp2820
sS'bfd_write_bigendian_4byte_int'
p2821
(L134703632L
L134703742L
tp2822
sS'getsym'
p2823
(L134744320L
L134744426L
tp2824
sS'hex_init'
p2825
(L135179712L
L135179714L
tp2826
sS'tekhex_object_p'
p2827
(L134748160L
L134748378L
tp2828
sS'aout_32_slurp_reloc_table'
p2829
(L135006208L
L135006720L
tp2830
sS'bfd_set_gp_size'
p2831
(L134680528L
L134680606L
tp2832
sS'bfd_follow_gnu_debugaltlink'
p2833
(L134711328L
L134711354L
tp2834
sS'_bfd_elf_attr_strdup'
p2835
(L134962656L
L134962714L
tp2836
sS'_bfd_fix_excluded_sec_syms'
p2837
(L134735648L
L134735686L
tp2838
sS'bfd_putl64'
p2839
(L134704848L
L134704925L
tp2840
sS'tekhex_set_section_contents'
p2841
(L134746704L
L134746777L
tp2842
sS'ieee_builtin_type'
p2843
(L134623568L
L134624782L
tp2844
sS'stab_find_slot'
p2845
(L134571680L
L134572094L
tp2846
sS'forget_types'
p2847
(L135107968L
L135108052L
tp2848
sS'linux_finish_dynamic_link'
p2849
(L134983248L
L134984210L
tp2850
sS'dlang_value'
p2851
(L135170752L
L135171832L
tp2852
sS'_bfd_default_assert_handler'
p2853
(L134677936L
L134677943L
tp2854
sS'bfd_get_section_by_name'
p2855
(L134712416L
L134712476L
tp2856
sS'elf_i386_is_local_label_name'
p2857
(L134786800L
L134786844L
tp2858
sS'_bfd_elf_swap_versym_out'
p2859
(L134824304L
L134824335L
tp2860
sS'debug_set_class_id'
p2861
(L134559024L
L134559305L
tp2862
sS'_bfd_elfcore_make_pseudosection'
p2863
(L134862624L
L134862953L
tp2864
sS'bfd_plugin_bfd_copy_private_section_data'
p2865
(L135088416L
L135088448L
tp2866
sS'_bfd_link_hash_table_init'
p2867
(L134723696L
L134723817L
tp2868
sS'bfd_i386linux_size_dynamic_sections'
p2869
(L134988432L
L134988655L
tp2870
sS'_bfd_elf_swap_verneed_in'
p2871
(L134823792L
L134823890L
tp2872
sS'comp_unit_maybe_decode_line_info'
p2873
(L134763328L
L134763443L
tp2874
sS'_bfd_elf_is_function_type'
p2875
(L134881920L
L134881937L
tp2876
sS'aout_32_canonicalize_symtab'
p2877
(L135004240L
L135004340L
tp2878
sS'ieee_range_type'
p2879
(L134602688L
L134602868L
tp2880
sS'strip_usage'
p2881
(L134536976L
L134537371L
tp2882
sS'bfd_elf_perform_complex_relocation'
p2883
(L134937152L
L134937959L
tp2884
sS'parse_coff_type'
p2885
(L134637984L
L134639875L
tp2886
sS'_bfd_elf_fixup_group_sections'
p2887
(L134847792L
L134847996L
tp2888
sS'tekhex_write_object_contents'
p2889
(L134747104L
L134747829L
tp2890
sS'writeargv'
p2891
(L135166576L
L135166738L
tp2892
sS'stash_maybe_update_info_hash_tables'
p2893
(L134763968L
L134764478L
tp2894
sS'simple_dummy_unattached_reloc'
p2895
(L134770928L
L134770934L
tp2896
sS'__do_global_dtors_aux'
p2897
(L134536096L
L134536126L
tp2898
sS'check_for_relocs'
p2899
(L135088000L
L135088106L
tp2900
sS'_bfd_elf_merge_object_attributes'
p2901
(L134964240L
L134964642L
tp2902
sS'trad_unix_core_file_failing_command'
p2903
(L135090384L
L135090413L
tp2904
sS'read_section'
p2905
(L134753408L
L134753866L
tp2906
sS'_bfd_archive_coff_construct_extended_name_table'
p2907
(L134669104L
L134669143L
tp2908
sS'bfd_cache_delete'
p2909
(L135091232L
L135091342L
tp2910
sS'cplus_demangle_fill_component'
p2911
(L135168144L
L135168212L
tp2912
sS'stab_start_block'
p2913
(L134643424L
L134643620L
tp2914
sS'elf_append_rela'
p2915
(L134961072L
L134961192L
tp2916
sS'stab_class_start_method'
p2917
(L134642448L
L134642662L
tp2918
sS'_bfd_pei_final_link_postscript'
p2919
(L135064528L
L135067381L
tp2920
sS'simple_restore_output_info'
p2921
(L134771040L
L134771074L
tp2922
sS'bfd_plugin_bfd_copy_private_symbol_data'
p2923
(L135088384L
L135088416L
tp2924
sS'delete_non_B_K_work_stuff'
p2925
(L135108064L
L135108230L
tp2926
sS'bfd_bsd_truncate_arname'
p2927
(L134670000L
L134670120L
tp2928
sS'debug_get_field_visibility'
p2929
(L134570320L
L134570338L
tp2930
sS'stab_find_type'
p2931
(L134572096L
L134573319L
tp2932
sS'_bfd_set_gp_value'
p2933
(L134680688L
L134680803L
tp2934
sS'write_ieee_debugging_info'
p2935
(L134635808L
L134637165L
tp2936
sS'pe_mkobject_hook'
p2937
(L135020416L
L135020633L
tp2938
sS'elfcore_write_linux_prpsinfo64'
p2939
(L134877360L
L134877754L
tp2940
sS'string_appends'
p2941
(L135108896L
L135108956L
tp2942
sS'_bfd_elf_gc_mark_extra_sections'
p2943
(L134955856L
L134956246L
tp2944
sS'stab_demangle_qualified'
p2945
(L134580160L
L134581033L
tp2946
sS'string_appendn'
p2947
(L135108352L
L135108400L
tp2948
sS'cplus_demangle_fill_dtor'
p2949
(L135153328L
L135153388L
tp2950
sS'_bfd_dwarf2_slurp_debug_info'
p2951
(L134765488L
L134767115L
tp2952
sS'cplus_demangle_v3'
p2953
(L135165536L
L135165560L
tp2954
sS'bfd_cache_close_all'
p2955
(L135091696L
L135091774L
tp2956
sS'_bfd_merge_sections_free'
p2957
(L135106944L
L135106993L
tp2958
sS'ieee_read_cxx_misc'
p2959
(L134520294L
L134525843L
tp2960
sS'bfd_new_link_order'
p2961
(L134732672L
L134732748L
tp2962
sS'ieee_class_method_variant'
p2963
(L134619312L
L134619375L
tp2964
sS'string_prepend_0'
p2965
(L135169392L
L135169500L
tp2966
sS'ieee_int_type'
p2967
(L134599424L
L134599602L
tp2968
sS'elf32_generic_link_add_symbols'
p2969
(L135087920L
L135087991L
tp2970
sS'elf_add_dt_needed_tag'
p2971
(L134911136L
L134911551L
tp2972
sS'_bfd_elf_relocs_compatible'
p2973
(L134911568L
L134911631L
tp2974
sS'ieee_class_baseclass'
p2975
(L134614448L
L134615136L
tp2976
sS'elfcore_write_register_note'
p2977
(L134879360L
L134880348L
tp2978
sS'elf_slurp_reloc_table_from_section'
p2979
(L134811600L
L134812239L
tp2980
sS'_bfd_elf_section_already_linked'
p2981
(L134959712L
L134960629L
tp2982
sS'demangle_function_name'
p2983
(L135124192L
L135125482L
tp2984
sS'generic_link_check_archive_element'
p2985
(L134730176L
L134730655L
tp2986
sS'_bfd_generic_link_add_symbols_collect'
p2987
(L134730160L
L134730175L
tp2988
sS'ieee_start_struct_type'
p2989
(L134606928L
L134607656L
tp2990
sS'bfd_elf_obj_attr_size'
p2991
(L134962016L
L134962067L
tp2992
sS'htab_clear_slot'
p2993
(L135178720L
L135178794L
tp2994
sS'_bfd_coff_link_hash_newfunc'
p2995
(L135067392L
L135067502L
tp2996
sS'_bfd_elf_swap_verdef_in'
p2997
(L134823360L
L134823490L
tp2998
sS'read_debugging_info'
p2999
(L134554272L
L134556321L
tp3000
sS'_bfd_elf_eh_frame_address_size'
p3001
(L134980992L
L134981020L
tp3002
sS'set_times'
p3003
(L134553008L
L134553122L
tp3004
sS'finish_stab'
p3005
(L134592864L
L134593028L
tp3006
sS'elfcore_write_aarch_tls'
p3007
(L134879120L
L134879187L
tp3008
sS'bfd_coff_get_syment'
p3009
(L134696032L
L134696176L
tp3010
sS'_bfd_generic_read_ar_hdr'
p3011
(L134664016L
L134664043L
tp3012
sS'aout_32_slurp_symbol_table'
p3013
(L135002800L
L135003031L
tp3014
sS'coff_i386_reloc'
p3015
(L135017760L
L135018175L
tp3016
sS'stab_find_tagged_type'
p3017
(L134573328L
L134573579L
tp3018
sS'dlang_parse_integer'
p3019
(L135169552L
L135170214L
tp3020
sS'_bfd_elf_copy_link_hash_symbol_type'
p3021
(L134960992L
L134961060L
tp3022
sS'bfd_elf_gnu_hash'
p3023
(L134824400L
L134824446L
tp3024
sS'htab_remove_elt'
p3025
(L135178672L
L135178712L
tp3026
sS'elfcore_write_xstatereg'
p3027
(L134878160L
L134878227L
tp3028
sS'_bfd_elf_strtab_size'
p3029
(L134966288L
L134966304L
tp3030
sS'copy_object'
p3031
(L134542896L
L134549613L
tp3032
sS'bfd_section_init'
p3033
(L134711936L
L134712056L
tp3034
sS'debug_find_tagged_type'
p3035
(L134569552L
L134569703L
tp3036
sS'_bfd_elf_strtab_init'
p3037
(L134965392L
L134965516L
tp3038
sS'bfd_void'
p3039
(L134702672L
L134702674L
tp3040
sS'stab_class_static_member'
p3041
(L134644720L
L134645046L
tp3042
sS'elf_swap_shdr_in'
p3043
(L134810272L
L134810488L
tp3044
sS'_bfd_elf_no_info_to_howto'
p3045
(L134862032L
L134862063L
tp3046
sS'elf_sort_sections'
p3047
(L134819072L
L134819244L
tp3048
sS'htab_elements'
p3049
(L135176704L
L135176715L
tp3050
sS'verilog_set_arch_mach'
p3051
(L134773792L
L134773829L
tp3052
sS'parse_stab_type_number'
p3053
(L134575984L
L134576100L
tp3054
sS'i386linux_bfd_final_link'
p3055
(L134984224L
L134984272L
tp3056
sS'd_print_expr_op'
p3057
(L135152608L
L135152793L
tp3058
sS'MY_final_link_callback'
p3059
(L134982928L
L134983234L
tp3060
sS'_bfd_elf_link_hash_table_init'
p3061
(L134936176L
L134936286L
tp3062
sS'is_dwo_section'
p3063
(L134539728L
L134539771L
tp3064
sS'debug_name_type'
p3065
(L134568512L
L134568730L
tp3066
sS'bfd_elf_allocate_object'
p3067
(L134824448L
L134824626L
tp3068
sS'debug_record_function'
p3069
(L134564112L
L134564457L
tp3070
sS'_bfd_pei_swap_aux_in'
p3071
(L135045440L
L135046128L
tp3072
sS'elfcore_write_s390_tdb'
p3073
(L134878960L
L134879027L
tp3074
sS'_bfd_pei_swap_lineno_in'
p3075
(L135046848L
L135046899L
tp3076
sS'cie_eq'
p3077
(L134967872L
L134968135L
tp3078
sS'_bfd_stringtab_size'
p3079
(L134722432L
L134722440L
tp3080
sS'_bfd_elf_check_kept_section'
p3081
(L134938048L
L134938210L
tp3082
sS'stab_demangle_class'
p3083
(L134576112L
L134576247L
tp3084
sS'coff_compute_section_file_positions'
p3085
(L135018304L
L135019823L
tp3086
sS'_bfd_elf_compute_section_file_positions'
p3087
(L134833600L
L134846267L
tp3088
sS'_bfd_stringtab_init'
p3089
(L134721920L
L134722036L
tp3090
sS'_bfd_elf_get_symbol_info'
p3091
(L134860848L
L134860869L
tp3092
sS'bfd_get_archive_filename'
p3093
(L134659568L
L134659816L
tp3094
sS'__x86.get_pc_thunk.bx'
p3095
(L134535968L
L134535972L
tp3096
sS'bfd_getl_signed_32'
p3097
(L134704080L
L134704117L
tp3098
sS'dlang_parse_symbol'
p3099
(L135172880L
L135173351L
tp3100
sS'd_parmlist'
p3101
(L135155968L
L135156168L
tp3102
sS'__moddi3'
p3103
(L135184416L
L135184866L
tp3104
sS'htab_set_functions_ex'
p3105
(L135177120L
L135177166L
tp3106
sS'__libc_csu_init'
p3107
(L135185232L
L135185329L
tp3108
sS'_bfd_coff_generic_relocate_section'
p3109
(L135086528L
L135087878L
tp3110
sS'bfd_mmap'
p3111
(L134684432L
L134684501L
tp3112
sS'_bfd_discard_section_stabs'
p3113
(L135101648L
L135102370L
tp3114
sS'ieee_alloc_type'
p3115
(L134597008L
L134597295L
tp3116
sS'bfd_get_assert_handler'
p3117
(L134678384L
L134678390L
tp3118
sS'cplus_demangle_v3_callback'
p3119
(L135165568L
L135165593L
tp3120
sS'stab_int_constant'
p3121
(L134643776L
L134643904L
tp3122
sS'_bfd_elf_link_create_dynamic_sections'
p3123
(L134900592L
L134901244L
tp3124
sS'bfd_arch_mach_octets_per_byte'
p3125
(L134677872L
L134677929L
tp3126
sS'elf_gc_propagate_vtable_entries_used'
p3127
(L134882256L
L134882450L
tp3128
sS'bfd_getb_signed_32'
p3129
(L134704032L
L134704067L
tp3130
sS'bfd_get_mach'
p3131
(L134677504L
L134677515L
tp3132
sS'rsrc_compute_region_sizes'
p3133
(L135036928L
L135037097L
tp3134
sS'bfd_cache_section_contents'
p3135
(L134772784L
L134772826L
tp3136
sS'bfd_putb32'
p3137
(L134704672L
L134704707L
tp3138
sS'bfd_cache_lookup_worker'
p3139
(L135092080L
L135092389L
tp3140
s.