(dp0
S'cplus_demangle_print_callback'
p1
(L135031920L
L135032241L
tp2
sS'elf_link_output_extsym'
p3
(L134743440L
L134746953L
tp4
sS'is_default_attr'
p5
(L134813840L
L134813886L
tp6
sS'i386_aout_linux_set_sizes'
p7
(L134835376L
L134835438L
tp8
sS'writevalue'
p9
(L134597056L
L134597197L
tp10
sS'find_separate_debug_file'
p11
(L134559888L
L134560623L
tp12
sS'elf_i386_local_htab_eq'
p13
(L134627600L
L134627638L
tp14
sS'bfd_default_set_arch_mach'
p15
(L134530192L
L134530266L
tp16
sS'generic_link_add_symbols'
p17
(L134582592L
L134582681L
tp18
sS'strrevcmp_align'
p19
(L134971024L
L134971151L
tp20
sS'_bfd_elf_swap_versym_in'
p21
(L134676784L
L134676815L
tp22
sS'pe_bfd_object_p'
p23
(L134885648L
L134888719L
tp24
sS'aout_link_add_symbols'
p25
(L134841824L
L134843036L
tp26
sS'bfd_set_section_contents'
p27
(L134566704L
L134566963L
tp28
sS'styp_to_sec_flags'
p29
(L134878880L
L134880992L
tp30
sS'dlang_type'
p31
(L135040400L
L135041541L
tp32
sS'_bfd_elf_copy_obj_attributes'
p33
(L134815680L
L134816047L
tp34
sS'bfd_hash_insert'
p35
(L134572880L
L134573398L
tp36
sS'ihex_mkobject'
p37
(L134600944L
L134601015L
tp38
sS'_bfd_xcoff_stringtab_init'
p39
(L134574592L
L134574615L
tp40
sS'rsrc_print_resource_directory'
p41
(L134891648L
L134892420L
tp42
sS'_bfd_elf_strtab_delref'
p43
(L134818432L
L134818588L
tp44
sS'bfd_coff_get_syment'
p45
(L134548576L
L134548720L
tp46
sS'bfd_make_section_old_way'
p47
(L134565632L
L134565883L
tp48
sS'coff_get_lineno'
p49
(L134543712L
L134543720L
tp50
sS'binary_sizeof_headers'
p51
(L134595776L
L134595779L
tp52
sS'bfd_init_section_compress_status'
p53
(L134625856L
L134626030L
tp54
sS'coff_write_symbols'
p55
(L134541600L
L134543269L
tp56
sS'bfd_elf_add_obj_attr_int'
p57
(L134815344L
L134815439L
tp58
sS'make_mapping'
p59
(L134671760L
L134671877L
tp60
sS'simple_dummy_warning'
p61
(L134623376L
L134623382L
tp62
sS'elf_new_obj_attr'
p63
(L134814160L
L134814275L
tp64
sS'_bfd_generic_link_hash_table_free'
p65
(L134575200L
L134575292L
tp66
sS'coff_write_alien_symbol'
p67
(L134541008L
L134541600L
tp68
sS'bfd_generic_stat_arch_elt'
p69
(L134952544L
L134952770L
tp70
sS'bfd_close'
p71
(L134561840L
L134562076L
tp72
sS'd_growable_string_callback_adapter'
p73
(L135001696L
L135001889L
tp74
sS'bfd_arch_i386_short_nop_fill'
p75
(L134942720L
L134942735L
tp76
sS'fix_syms'
p77
(L134588064L
L134588188L
tp78
sS'nacl_modify_segment_map'
p79
(L134656960L
L134657793L
tp80
sS'fatal'
p81
(L134524320L
L134524355L
tp82
sS'write_obj_attribute'
p83
(L134813984L
L134814145L
tp84
sS'd_print_cast'
p85
(L135019728L
L135020363L
tp86
sS'dlang_function_type'
p87
(L135041872L
L135042256L
tp88
sS'bfd_get_full_section_contents'
p89
(L134624544L
L134625284L
tp90
sS'simple_dummy_unattached_reloc'
p91
(L134623440L
L134623446L
tp92
sS'lrealpath'
p93
(L135046944L
L135047039L
tp94
sS'cplus_demangle_opname'
p95
(L134989456L
L134990464L
tp96
sS'generic_core_file_matches_executable_p'
p97
(L134961808L
L134961938L
tp98
sS'bfd_elf_gc_record_vtentry'
p99
(L134810368L
L134810698L
tp100
sS'_bfd_elf_export_symbol'
p101
(L134759728L
L134759848L
tp102
sS'strrevcmp_1'
p103
(L134970912L
L134971018L
tp104
sS'_bfd_elf_link_output_relocs'
p105
(L134762288L
L134762693L
tp106
sS'bfd_get_reloc_code_name'
p107
(L134965968L
L134965995L
tp108
sS'tekhex_set_arch_mach'
p109
(L134597408L
L134597463L
tp110
sS'first_phase'
p111
(L134598064L
L134598962L
tp112
sS'bfd_arch_default_fill'
p113
(L134529568L
L134529619L
tp114
sS'_bfd_generic_copy_link_hash_symbol_type'
p115
(L134578784L
L134578786L
tp116
sS'bfd_reloc_type_lookup'
p117
(L134965776L
L134965791L
tp118
sS'coff_symbol_from'
p119
(L134539808L
L134539848L
tp120
sS'demangle_class_name'
p121
(L134989344L
L134989444L
tp122
sS'_bfd_elf_rela_local_sym'
p123
(L134733040L
L134733204L
tp124
sS'd_demangle_callback'
p125
(L135032256L
L135032817L
tp126
sS'coff_canonicalize_symtab'
p127
(L134538928L
L134539034L
tp128
sS'_bfd_generic_reloc_link_order'
p129
(L134584464L
L134585211L
tp130
sS'_bfd_elf_default_relocs_compatible'
p131
(L134764064L
L134764079L
tp132
sS'coff_mangle_symbols'
p133
(L134540608L
L134540993L
tp134
sS'coff_print_aux'
p135
(L134875024L
L134875102L
tp136
sS'_bfd_append_relative_path'
p137
(L134946832L
L134946948L
tp138
sS'd_print_comp_inner'
p139
(L135001904L
L135015393L
tp140
sS'bfd_get_elf_phdr_upper_bound'
p141
(L134732864L
L134732915L
tp142
sS'elf_vxworks_add_dynamic_entries'
p143
(L134659424L
L134659647L
tp144
sS'elf_i386_reloc_type_lookup'
p145
(L134626960L
L134627542L
tp146
sS'_bfd_elf_get_sec_type_attr'
p147
(L134681280L
L134681428L
tp148
sS'd_print_mod_list'
p149
(L135017360L
L135018292L
tp150
sS'read_unsigned_leb128'
p151
(L134558720L
L134558771L
tp152
sS'_bfd_generic_get_elt_at_index'
p153
(L134947664L
L134947716L
tp154
sS'cache_bseek'
p155
(L134960640L
L134960729L
tp156
sS'aout_32_swap_ext_reloc_out'
p157
(L134857296L
L134857634L
tp158
sS'_bfd_generic_read_ar_hdr'
p159
(L134946800L
L134946827L
tp160
sS'bfd_elf_size_dynamic_sections'
p161
(L134778432L
L134784103L
tp162
sS'ignore_section_sym'
p163
(L134672976L
L134673083L
tp164
sS'_bfd_elf_discard_section_eh_frame_hdr'
p165
(L134828096L
L134828223L
tp166
sS'nacl_modify_program_headers'
p167
(L134657808L
L134658114L
tp168
sS'bfd_alloc'
p169
(L134562752L
L134562896L
tp170
sS'compute_bucket_count'
p171
(L134735904L
L134736495L
tp172
sS'_bfd_coff_final_link'
p173
(L134934240L
L134939025L
tp174
sS'_bfd_elf_link_read_relocs'
p175
(L134761152L
L134761748L
tp176
sS'getvalue'
p177
(L134596736L
L134596863L
tp178
sS'bfd_zmalloc'
p179
(L134555952L
L134556022L
tp180
sS'cache_bmmap'
p181
(L134960128L
L134960431L
tp182
sS'd_source_name'
p183
(L135000432L
L135000628L
tp184
sS'aout_link_check_archive_element'
p185
(L134843216L
L134844023L
tp186
sS'elf_link_renumber_local_hash_table_dynsyms'
p187
(L134739216L
L134739252L
tp188
sS'_bfd_elf_hash_symbol'
p189
(L134777808L
L134777864L
tp190
sS'coff_find_nearest_line'
p191
(L134551840L
L134551943L
tp192
sS'coff_get_reloc_upper_bound'
p193
(L134548256L
L134548315L
tp194
sS'aout_32_print_symbol'
p195
(L134860096L
L134860346L
tp196
sS'_bfd_nocore_core_file_matches_executable_p'
p197
(L134555264L
L134555285L
tp198
sS'coff_i386_reloc'
p199
(L134870272L
L134870687L
tp200
sS'_bfd_coff_free_symbols'
p201
(L134546480L
L134546583L
tp202
sS'srec_scan'
p203
(L134592880L
L134595168L
tp204
sS'_bfd_elf_swap_verdef_out'
p205
(L134676016L
L134676176L
tp206
sS'aout_32_swap_std_reloc_in'
p207
(L134858112L
L134858709L
tp208
sS'tekhex_print_symbol'
p209
(L134599408L
L134599526L
tp210
sS'bfd_malloc_and_get_section'
p211
(L134567328L
L134567343L
tp212
sS'bfd_default_reloc_type_lookup'
p213
(L134965808L
L134965960L
tp214
sS'tekhex_mkobject'
p215
(L134597984L
L134598063L
tp216
sS'_bfd_calloc_wrapper'
p217
(L134943664L
L134943669L
tp218
sS'elf_i386_hash_symbol'
p219
(L134627696L
L134627731L
tp220
sS'_bfd_pei_swap_sym_out'
p221
(L134897792L
L134897950L
tp222
sS'bfd_cache_close_all'
p223
(L134959424L
L134959502L
tp224
sS'aout_32_swap_ext_reloc_in'
p225
(L134857648L
L134858108L
tp226
sS'dwarf1_unit_find_nearest_line'
p227
(L134834112L
L134834799L
tp228
sS'decode_line_info'
p229
(L134610336L
L134613302L
tp230
sS'_bfd_elf_find_inliner_info'
p231
(L134714176L
L134714235L
tp232
sS'is_valid_archive_path'
p233
(L134527920L
L134528052L
tp234
sS'_bfd_archive_bsd44_construct_extended_name_table'
p235
(L134951936L
L134952150L
tp236
sS'aout_link_write_other_symbol'
p237
(L134844032L
L134844836L
tp238
sS'coff_link_output_has_begun'
p239
(L134869872L
L134869887L
tp240
sS'real_ftell'
p241
(L134535792L
L134535797L
tp242
sS'default_indirect_link_order'
p243
(L134576912L
L134578001L
tp244
sS'cplus_demangle_v3_callback'
p245
(L135033328L
L135033353L
tp246
sS'symbolsrec_object_p'
p247
(L134595488L
L134595732L
tp248
sS'pe_bfd_copy_private_bfd_data'
p249
(L134881120L
L134881193L
tp250
sS'_bfd_merge_sections'
p251
(L134972512L
L134973808L
tp252
sS'bfd_elf32_write_out_phdrs'
p253
(L134665744L
L134665876L
tp254
sS'_bfd_elf_link_sec_merge_syms'
p255
(L134743328L
L134743432L
tp256
sS'bfd_get_section_by_name_if'
p257
(L134565200L
L134565348L
tp258
sS'bfd_openstreamr'
p259
(L134561616L
L134561724L
tp260
sS'bfd_getb16'
p261
(L134556288L
L134556305L
tp262
sS'_bfd_elf_reloc_type_class'
p263
(L134733024L
L134733027L
tp264
sS'elf_generic_info_to_howto_rel'
p265
(L134940416L
L134940428L
tp266
sS'elf32_r_info'
p267
(L134670000L
L134670015L
tp268
sS'concat_filename'
p269
(L134609888L
L134610327L
tp270
sS'bfd_elf_string_from_elf_section_0'
p271
(L134677312L
L134677778L
tp272
sS'htab_size'
p273
(L135043728L
L135043736L
tp274
sS'bfd_hash_replace'
p275
(L134573952L
L134574047L
tp276
sS'compare_sequences'
p277
(L134607376L
L134607447L
tp278
sS'freeargv'
p279
(L135033696L
L135033758L
tp280
sS'bfd_plugin_print_symbol'
p281
(L134940672L
L134940693L
tp282
sS'bfd_zalloc2'
p283
(L134563232L
L134563349L
tp284
sS'demangle_arm_hp_template'
p285
(L134987440L
L134989335L
tp286
sS'_bfd_elf_init_reloc_shdr'
p287
(L134674064L
L134674498L
tp288
sS'bfd_get_relocated_section_contents'
p289
(L134533376L
L134533465L
tp290
sS'cplus_demangle_fill_ctor'
p291
(L135021024L
L135021084L
tp292
sS'_bfd_coff_link_hash_table_create'
p293
(L134924320L
L134924412L
tp294
sS'htab_traverse_noresize'
p295
(L135045840L
L135045905L
tp296
sS'register_claim_file'
p297
(L134940624L
L134940636L
tp298
sS'cache_bwrite'
p299
(L134960816L
L134960978L
tp300
sS'bfd_cache_max_open'
p301
(L134958832L
L134958945L
tp302
sS'do_arg'
p303
(L134990784L
L134991112L
tp304
sS'_bfd_generic_minisymbol_to_symbol'
p305
(L134568704L
L134568711L
tp306
sS'bfd_elf32_swap_reloc_out'
p307
(L134660208L
L134660269L
tp308
sS'_bfd_elf_validate_reloc'
p309
(L134714576L
L134714996L
tp310
sS'undefined_reference'
p311
(L134735488L
L134735552L
tp312
sS'bfd_elf32_swap_symbol_out'
p313
(L134660480L
L134660663L
tp314
sS'_bfd_ar_spacepad'
p315
(L134944816L
L134944979L
tp316
sS'elf_i386_allocate_dynrelocs'
p317
(L134632592L
L134633944L
tp318
sS'_bfd_coff_internal_syment_name'
p319
(L134546320L
L134546468L
tp320
sS'_bfd_new_bfd_contained_in'
p321
(L134560832L
L134560932L
tp322
sS'bfd_getl_signed_64'
p323
(L134557072L
L134557214L
tp324
sS'coff_slurp_symbol_table_0'
p325
(L134875680L
L134877980L
tp326
sS'aout_32_get_symbol_info'
p327
(L134859936L
L134860087L
tp328
sS'_bfd_elf_gc_mark_fdes'
p329
(L134826160L
L134826309L
tp330
sS'bfd_default_scan'
p331
(L134528592L
L134529560L
tp332
sS'bfd_elf_get_dyn_lib_class'
p333
(L134788960L
L134789009L
tp334
sS'bfd_put_bits'
p335
(L134557472L
L134557593L
tp336
sS'd_abi_tags'
p337
(L135000640L
L135000713L
tp338
sS'coff_bfd_make_debug_symbol'
p339
(L134548384L
L134548492L
tp340
sS'_bfd_coff_get_external_symbols'
p341
(L134543728L
L134543895L
tp342
sS'bfd_open_file'
p343
(L134959504L
L134959799L
tp344
sS'trad_unix_core_file_failing_signal'
p345
(L134942928L
L134942934L
tp346
sS'xstrdup'
p347
(L135050848L
L135050898L
tp348
sS'cmpindexentry'
p349
(L134567376L
L134567404L
tp350
sS'bfd_alloc2'
p351
(L134562896L
L134562988L
tp352
sS'bfd_elf_add_obj_attr_int_string'
p353
(L134815552L
L134815671L
tp354
sS'd_number'
p355
(L135000048L
L135000139L
tp356
sS'elfcore_write_linux_prpsinfo64'
p357
(L134729872L
L134730266L
tp358
sS'_bfd_coff_link_hash_newfunc'
p359
(L134919904L
L134920014L
tp360
sS'bfd_set_section_size'
p361
(L134566640L
L134566698L
tp362
sS'bfd_get_next_section_by_name'
p363
(L134565024L
L134565097L
tp364
sS'sec_merge_hash_newfunc'
p365
(L134971152L
L134971266L
tp366
sS'_start'
p367
(L134522122L
L134522156L
tp368
sS'coff_i386_is_local_label_name'
p369
(L134874288L
L134874310L
tp370
sS'bfd_elf_record_link_assignment'
p371
(L134759856L
L134760431L
tp372
sS'coff_i386_rtype_to_howto'
p373
(L134869888L
L134870264L
tp374
sS'elf_i386_get_plt_sym_val'
p375
(L134638384L
L134638838L
tp376
sS'elf_parse_notes'
p377
(L134715584L
L134720608L
tp378
sS'bfd_fprintf_vma'
p379
(L134533808L
L134533851L
tp380
sS'parse_vma'
p381
(L134526960L
L134527054L
tp382
sS'coff_swap_reloc_in'
p383
(L134869296L
L134869363L
tp384
sS'elf_i386_create_dynamic_sections'
p385
(L134654608L
L134654915L
tp386
sS'bfd_get_target_info'
p387
(L134572016L
L134572345L
tp388
sS'bfd_elf32_swap_reloca_in'
p389
(L134660128L
L134660194L
tp390
sS'make_tempname'
p391
(L134526864L
L134526924L
tp392
sS'_bfd_pei_swap_aouthdr_out'
p393
(L134900336L
L134901826L
tp394
sS'coff_write_armap'
p395
(L134957632L
L134958572L
tp396
sS'sec_merge_add'
p397
(L134971760L
L134971852L
tp398
sS'_bfd_elf_merge_unknown_attribute_low'
p399
(L134817168L
L134817380L
tp400
sS'demangle_template'
p401
(L134981344L
L134982945L
tp402
sS'bfd_lookup_arch'
p403
(L134530112L
L134530181L
tp404
sS'verilog_set_section_contents'
p405
(L134626032L
L134626293L
tp406
sS'_bfd_elf_create_dynamic_sections'
p407
(L134753760L
L134754151L
tp408
sS'_bfd_n1'
p409
(L134555184L
L134555208L
tp410
sS'simple_dummy_reloc_overflow'
p411
(L134623408L
L134623414L
tp412
sS'bfd_elf32_core_file_failing_command'
p413
(L134670032L
L134670052L
tp414
sS'coff_get_symtab_upper_bound'
p415
(L134538864L
L134538919L
tp416
sS'separate_debug_file_exists'
p417
(L134559680L
L134559879L
tp418
sS'archive_close_worker'
p419
(L134944784L
L134944813L
tp420
sS'cache_bclose'
p421
(L134959168L
L134959211L
tp422
sS'd_demangle'
p423
(L135032832L
L135032942L
tp424
sS'elf_i386_gc_mark_hook'
p425
(L134629152L
L134629230L
tp426
sS'_bfd_elf_new_section_hook'
p427
(L134681440L
L134681647L
tp428
sS'bfd_bwrite'
p429
(L134536096L
L134536208L
tp430
sS'aout_link_free_symbols'
p431
(L134843136L
L134843204L
tp432
sS'_bfd_elf_symbol_from_bfd_symbol'
p433
(L134699536L
L134699738L
tp434
sS'aout_32_swap_exec_header_out'
p435
(L134850176L
L134850351L
tp436
sS'writesym'
p437
(L134597856L
L134597975L
tp438
sS'_bfd_elf_parse_attributes'
p439
(L134816048L
L134816745L
tp440
sS'elf_link_flush_output_syms'
p441
(L134742752L
L134742910L
tp442
sS'bfd_get_error_handler'
p443
(L134530896L
L134530902L
tp444
sS'bfd_section_list_clear'
p445
(L134564880L
L134564954L
tp446
sS'_bfd_nocore_core_file_pid'
p447
(L134555360L
L134555381L
tp448
sS'bfd_gnu_truncate_arname'
p449
(L134953088L
L134953234L
tp450
sS'bfd_find_version_for_sym'
p451
(L134588432L
L134588872L
tp452
sS'd_make_name'
p453
(L134999392L
L134999458L
tp454
sS'real_fopen'
p455
(L134535824L
L134535924L
tp456
sS'bfd_putb64'
p457
(L134557312L
L134557389L
tp458
sS'_bfd_elf_make_section_from_shdr'
p459
(L134723984L
L134724026L
tp460
sS'_bfd_coff_link_add_symbols'
p461
(L134924416L
L134924496L
tp462
sS'htab_empty'
p463
(L135044496L
L135044731L
tp464
sS'd_template_param'
p465
(L135000288L
L135000374L
tp466
sS'bfd_elf32_swap_phdr_out'
p467
(L134665536L
L134665730L
tp468
sS'elf_collect_hash_codes'
p469
(L134736784L
L134736989L
tp470
sS'_bfd_coff_read_internal_relocs'
p471
(L134539040L
L134539568L
tp472
sS'tekhex_init'
p473
(L134599536L
L134599642L
tp474
sS'bfd_get_gp_size'
p475
(L134532992L
L134533058L
tp476
sS'resolve_symbol'
p477
(L134746960L
L134747291L
tp478
sS'_bfd_elf_single_rel_hdr'
p479
(L134682512L
L134682584L
tp480
sS'elfcore_write_prstatus'
p481
(L134730272L
L134730500L
tp482
sS'bfd_set_start_address'
p483
(L134532960L
L134532977L
tp484
sS'_bfd_elf_merge_object_attributes'
p485
(L134816752L
L134817154L
tp486
sS'buy_and_read'
p487
(L134872624L
L134872737L
tp488
sS'bfd_elf_link_record_local_dynamic_symbol'
p489
(L134760432L
L134760868L
tp490
sS'elf_link_renumber_hash_table_dynsyms'
p491
(L134739168L
L134739204L
tp492
sS'elf_i386_finish_local_dynamic_symbol'
p493
(L134632544L
L134632588L
tp494
sS'bfd_elf32_swap_reloc_in'
p495
(L134660064L
L134660122L
tp496
sS'_bfd_pei_swap_lineno_out'
p497
(L134899424L
L134899488L
tp498
sS'parse_die'
p499
(L134833600L
L134834103L
tp500
sS'_bfd_elf_create_ifunc_sections'
p501
(L134654928L
L134655333L
tp502
sS'elfcore_write_s390_timer'
p503
(L134730912L
L134730979L
tp504
sS'warn_deprecated'
p505
(L134558512L
L134558711L
tp506
sS'htab_find_with_hash'
p507
(L135044736L
L135045061L
tp508
sS'bfd_compress_section_contents'
p509
(L134624304L
L134624538L
tp510
sS'_bfd_elf_parse_eh_frame'
p511
(L134821024L
L134826146L
tp512
sS'_bfd_elf_link_hash_fixup_symbol'
p513
(L134762704L
L134762747L
tp514
sS'__libc_csu_fini'
p515
(L135052320L
L135052322L
tp516
sS'opncls_btell'
p517
(L134558880L
L134558894L
tp518
sS'elf_fake_sections'
p519
(L134674512L
L134675872L
tp520
sS'_bfd_elf_canonicalize_reloc'
p521
(L134707440L
L134707561L
tp522
sS'bfd_cache_delete'
p523
(L134958960L
L134959070L
tp524
sS'register_Btype'
p525
(L134975264L
L134975373L
tp526
sS'bfd_link_hash_lookup'
p527
(L134576368L
L134576443L
tp528
sS'string_need_1'
p529
(L135035904L
L135036004L
tp530
sS'aout_32_get_lineno'
p531
(L134859920L
L134859923L
tp532
sS'_bfd_elf_default_action_discarded'
p533
(L134790480L
L134790556L
tp534
sS'bfd_elf_discard_info'
p535
(L134811584L
L134812218L
tp536
sS'_bfd_pei_swap_sym_in'
p537
(L134897136L
L134897784L
tp538
sS'bfd_elf_gc_common_finalize_got_offsets'
p539
(L134811104L
L134811507L
tp540
sS'elf_link_sort_cmp2'
p541
(L134739744L
L134739807L
tp542
sS'bfd_release'
p543
(L134563360L
L134563379L
tp544
sS'elf_i386_link_hash_table_create'
p545
(L134639024L
L134639216L
tp546
sS'bfd_elf32_core_file_failing_signal'
p547
(L134670064L
L134670083L
tp548
sS'_bfd_coff_link_input_bfd'
p549
(L134924496L
L134933495L
tp550
sS'_bfd_elf_symbol_refs_local_p'
p551
(L134763136L
L134763315L
tp552
sS'_bfd_archive_bsd_construct_extended_name_table'
p553
(L134951840L
L134951879L
tp554
sS'bfd_symbol_info'
p555
(L134568400L
L134568482L
tp556
sS'java_demangle_v3'
p557
(L135033360L
L135033385L
tp558
sS'aout_32_reloc_type_lookup'
p559
(L134849680L
L134849804L
tp560
sS'opncls_bseek'
p561
(L134558896L
L134558971L
tp562
sS'bfd_bsd_truncate_arname'
p563
(L134952784L
L134952904L
tp564
sS'_bfd_elf_link_hash_table_free'
p565
(L134737216L
L134737271L
tp566
sS'simple_dummy_einfo'
p567
(L134623472L
L134623474L
tp568
sS'_bfd_pei_write_codeview_record'
p569
(L134905744L
L134905985L
tp570
sS'coff_pe_i386_relocate_section'
p571
(L134870752L
L134870804L
tp572
sS'ihex_set_arch_mach'
p573
(L134601024L
L134601079L
tp574
sS'aout_32_swap_std_reloc_out'
p575
(L134856864L
L134857296L
tp576
sS'bfd_install_relocation'
p577
(L134963408L
L134964330L
tp578
sS'_bfd_get_elt_at_filepos'
p579
(L134946960L
L134947662L
tp580
sS'writeargv'
p581
(L135034336L
L135034498L
tp582
sS'_bfd_elf_get_dynamic_reloc_upper_bound'
p583
(L134707696L
L134707836L
tp584
sS'elfcore_maybe_make_sect'
p585
(L134673632L
L134673732L
tp586
sS'bfd_printable_name'
p587
(L134529680L
L134529691L
tp588
sS'_bfd_elf_define_linkage_sym'
p589
(L134752528L
L134752777L
tp590
sS'aout_32_link_hash_newfunc'
p591
(L134841712L
L134841810L
tp592
sS'bfd_generic_relax_section'
p593
(L134966000L
L134966072L
tp594
sS'd_unqualified_name'
p595
(L135023936L
L135024798L
tp596
sS'memory_bwrite'
p597
(L134535552L
L134535791L
tp598
sS'_bfd_clear_contents'
p599
(L134965376L
L134965771L
tp600
sS'elf_i386_fake_sections'
p601
(L134627744L
L134627785L
tp602
sS'i386_aout_linux_mkobject'
p603
(L134837760L
L134837765L
tp604
sS'_bfd_elf_is_local_label_name'
p605
(L134713392L
L134713470L
tp606
sS'dupargv'
p607
(L135033520L
L135033690L
tp608
sS'_bfd_elf_make_dynamic_reloc_section'
p609
(L134813328L
L134813490L
tp610
sS'_bfd_pe_only_swap_filehdr_out'
p611
(L134902944L
L134903128L
tp612
sS'bfd_get_size'
p613
(L134536912L
L134536968L
tp614
sS'_bfd_archive_close_and_cleanup'
p615
(L134958576L
L134958831L
tp616
sS'elf_collect_gnu_hash_codes'
p617
(L134742432L
L134742689L
tp618
sS'merge_sections_remove_hook'
p619
(L134735840L
L134735893L
tp620
sS'elf_link_output_sym'
p621
(L134742912L
L134743324L
tp622
sS'coff_set_arch_mach'
p623
(L134880992L
L134881072L
tp624
sS'bfd_hash_set_default_size'
p625
(L134574416L
L134574454L
tp626
sS'filename_cmp'
p627
(L135042464L
L135042469L
tp628
sS'lbasename'
p629
(L135046896L
L135046930L
tp630
sS'_bfd_generic_link_add_archive_symbols'
p631
(L134578800L
L134579592L
tp632
sS'ada_demangle'
p633
(L134977872L
L134979250L
tp634
sS'elf_vxworks_finish_dynamic_entry'
p635
(L134659648L
L134659844L
tp636
sS'_bfd_elf_swap_verdaux_out'
p637
(L134676240L
L134676301L
tp638
sS'opncls_bread'
p639
(L134558976L
L134559052L
tp640
sS'opncls_bmmap'
p641
(L134559136L
L134559142L
tp642
sS'bfd_sections_find_if'
p643
(L134566544L
L134566628L
tp644
sS'_bfd_default_link_order'
p645
(L134585296L
L134585836L
tp646
sS'_bfd_coff_is_local_label_name'
p647
(L134550464L
L134550490L
tp648
sS'bfd_arch_i386_fill'
p649
(L134942512L
L134942705L
tp650
sS'bfd_elf_get_elf_syms'
p651
(L134677792L
L134678649L
tp652
sS'_bfd_elf_setup_sections'
p653
(L134678784L
L134679356L
tp654
sS'vma_compare'
p655
(L134820656L
L134820711L
tp656
sS'aout_32_mkobject'
p657
(L134851312L
L134851423L
tp658
sS'bfd_elf_final_link'
p659
(L134796656L
L134807307L
tp660
sS'bfd_bread'
p661
(L134535936L
L134536096L
tp662
sS'filename_eq'
p663
(L135042560L
L135042595L
tp664
sS'elf_i386_reloc_type_class'
p665
(L134627648L
L134627675L
tp666
sS'aout_32_make_empty_symbol'
p667
(L134854416L
L134854451L
tp668
sS'elf_i386_get_local_sym_hash'
p669
(L134639536L
L134639855L
tp670
sS'_bfd_elf_stringtab_init'
p671
(L134680528L
L134680644L
tp672
sS'elf_sort_elf_symbol'
p673
(L134734736L
L134734755L
tp674
sS'elf_i386_readonly_dynrelocs'
p675
(L134628768L
L134628938L
tp676
sS'xrealloc'
p677
(L135050768L
L135050834L
tp678
sS'bfd_assert'
p679
(L134530976L
L134531048L
tp680
sS'read_rangelist'
p681
(L134608176L
L134608421L
tp682
sS'display_info'
p683
(L134525088L
L134526531L
tp684
sS'_bfd_write_section_stabs'
p685
(L134970112L
L134970563L
tp686
sS'linux_tally_symbols'
p687
(L134839520L
L134840250L
tp688
sS'_bfd_elf_copy_private_bfd_data'
p689
(L134679472L
L134679622L
tp690
sS'elfcore_write_s390_last_break'
p691
(L134731312L
L134731379L
tp692
sS'_bfd_coff_reloc_link_order'
p693
(L134933504L
L134934235L
tp694
sS'coff_write_linenumbers'
p695
(L134543280L
L134543708L
tp696
sS'd_compact_number'
p697
(L135000224L
L135000279L
tp698
sS'null_error_handler'
p699
(L134537056L
L134537058L
tp700
sS'find_target'
p701
(L134571600L
L134571767L
tp702
sS'bfd_arch_i386_onebyte_nop_fill'
p703
(L134942768L
L134942830L
tp704
sS'iterative_hash'
p705
(L135046112L
L135046752L
tp706
sS'sec_merge_hash_lookup'
p707
(L134971280L
L134971756L
tp708
sS'rsrc_write_directory'
p709
(L134890128L
L134890614L
tp710
sS'_bfd_generic_link_just_syms'
p711
(L134578736L
L134578770L
tp712
sS'opncls_bstat'
p713
(L134559152L
L134559286L
tp714
sS'elfcore_write_aarch_tls'
p715
(L134731632L
L134731699L
tp716
sS'ihex_get_section_contents'
p717
(L134605200L
L134605917L
tp718
sS'elfcore_write_s390_todpreg'
p719
(L134731072L
L134731139L
tp720
sS'_bfd_nocore_core_file_failing_signal'
p721
(L134555328L
L134555349L
tp722
sS'list_matching_formats'
p723
(L134524496L
L134524637L
tp724
sS'bfd_plugin_canonicalize_symtab'
p725
(L134942160L
L134942465L
tp726
sS'bfd_set_symtab'
p727
(L134567456L
L134567530L
tp728
sS'_bfd_pei_swap_debugdir_out'
p729
(L134905552L
L134905732L
tp730
sS'_bfd_new_bfd'
p731
(L134560624L
L134560824L
tp732
sS'ihex_bad_byte'
p733
(L134602576L
L134602794L
tp734
sS'_bfd_elf_merge_sections'
p735
(L134788080L
L134788288L
tp736
sS'main'
p737
(L134520624L
L134522122L
tp738
sS'srec_get_section_contents'
p739
(L134590672L
L134591715L
tp740
sS'_bfd_elf_write_object_contents'
p741
(L134698784L
L134699509L
tp742
sS'elf_i386_tls_transition'
p743
(L134639856L
L134641428L
tp744
sS'write_value'
p745
(L134820896L
L134821017L
tp746
sS'eval_symbol'
p747
(L134747296L
L134752259L
tp748
sS'bfd_follow_gnu_debuglink'
p749
(L134563840L
L134563866L
tp750
sS'bfd_elf_make_object'
p751
(L134677152L
L134677195L
tp752
sS'_bfd_link_section_stabs'
p753
(L134967168L
L134969371L
tp754
sS'bfd_elf_add_obj_attr_string'
p755
(L134815440L
L134815551L
tp756
sS'coff_real_object_p'
p757
(L134544304L
L134545856L
tp758
sS'bfd_set_assert_handler'
p759
(L134530912L
L134530928L
tp760
sS'aout_32_translate_symbol_table'
p761
(L134854464L
L134855305L
tp762
sS'_bfd_elf_map_sections_to_segments'
p763
(L134682896L
L134685874L
tp764
sS'bfd_cache_init'
p765
(L134959216L
L134959369L
tp766
sS'non_fatal'
p767
(L134524368L
L134524395L
tp768
sS'_bfd_generic_link_add_symbols'
p769
(L134582688L
L134582700L
tp770
sS'bfd_hash_table_init'
p771
(L134572800L
L134572844L
tp772
sS'bfd_getl32'
p773
(L134556528L
L134556565L
tp774
sS'reconcat'
p775
(L135035728L
L135035893L
tp776
sS'bfd_section_from_shdr'
p777
(L134724032L
L134728337L
tp778
sS'elf_vxworks_gott_symbol_p'
p779
(L134658480L
L134658560L
tp780
sS'bfd_section_already_linked_table_free'
p781
(L134586832L
L134586851L
tp782
sS'bfd_generic_define_common_symbol'
p783
(L134588240L
L134588428L
tp784
sS'already_linked_newfunc'
p785
(L134575152L
L134575190L
tp786
sS'_bfd_generic_write_ar_hdr'
p787
(L134952160L
L134952209L
tp788
sS'coff_section_from_bfd_index'
p789
(L134538784L
L134538862L
tp790
sS'coff_sort_func_alent'
p791
(L134869808L
L134869860L
tp792
sS'bfd_elf_size_dynsym_hash_dynstr'
p793
(L134784384L
L134788069L
tp794
sS'coff_get_symbol_info'
p795
(L134548496L
L134548565L
tp796
sS'htab_remove_elt_with_hash'
p797
(L135045632L
L135045709L
tp798
sS'bfd_0'
p799
(L134555136L
L134555139L
tp800
sS'make_temp_file'
p801
(L135049328L
L135049564L
tp802
sS'_bfd_elf_link_lookup_local_dynindx'
p803
(L134760880L
L134760942L
tp804
sS'rsrc_count_directory'
p805
(L134888992L
L134889438L
tp806
sS'make_relative_prefix_1'
p807
(L135047488L
L135048759L
tp808
sS'bfd_map_over_sections'
p809
(L134566448L
L134566538L
tp810
sS'strtab_hash_newfunc'
p811
(L134574176L
L134574238L
tp812
sS'bfd_malloc2'
p813
(L134555488L
L134555599L
tp814
sS'print_strings'
p815
(L134522928L
L134523520L
tp816
sS'string_appendn_0'
p817
(L135036544L
L135036592L
tp818
sS'_bfd_generic_set_section_contents'
p819
(L134558144L
L134558260L
tp820
sS'elf_swap_shdr_in'
p821
(L134662784L
L134663000L
tp822
sS'srec_set_section_contents'
p823
(L134589152L
L134589696L
tp824
sS'elfcore_write_prpsinfo'
p825
(L134729184L
L134729467L
tp826
sS'strings_a_section'
p827
(L134523520L
L134523766L
tp828
sS'_bfd_elf_swap_verdaux_in'
p829
(L134676176L
L134676227L
tp830
sS'_bfd_write_archive_contents'
p831
(L134954240L
L134956021L
tp832
sS'__umoddi3'
p833
(L135051856L
L135052199L
tp834
sS'srec_get_symtab_upper_bound'
p835
(L134588944L
L134588959L
tp836
sS'bfd_set_error_program_name'
p837
(L134530880L
L134530890L
tp838
sS'sym_is_global'
p839
(L134672896L
L134672971L
tp840
sS'bfd_generic_discard_group'
p841
(L134567360L
L134567366L
tp842
sS'_bfd_pei_swap_lineno_in'
p843
(L134899360L
L134899411L
tp844
sS'd_print_function_type'
p845
(L135018944L
L135019727L
tp846
sS'bfd_coff_set_symbol_class'
p847
(L134552080L
L134552326L
tp848
sS'_bfd_stab_section_find_nearest_line'
p849
(L134568720L
L134571472L
tp850
sS'bfd_i386_compatible'
p851
(L134942832L
L134942884L
tp852
sS'cache_bstat'
p853
(L134960432L
L134960543L
tp854
sS'htab_find_slot_with_hash'
p855
(L135045120L
L135045580L
tp856
sS'd_expression_1'
p857
(L135026768L
L135028238L
tp858
sS'out'
p859
(L134597504L
L134597851L
tp860
sS'_bfd_elf_copy_private_symbol_data'
p861
(L134706960L
L134707239L
tp862
sS'_bfd_elf_eh_frame_section_offset'
p863
(L134828432L
L134828924L
tp864
sS'is_ctor_or_dtor'
p865
(L135031648L
L135031909L
tp866
sS'bfd_coff_set_long_section_names_allowed'
p867
(L134869664L
L134869690L
tp868
sS'_bfd_generic_link_add_one_symbol'
p869
(L134579600L
L134582082L
tp870
sS'bfd_coff_get_auxent'
p871
(L134548720L
L134549009L
tp872
sS'bfd_perror'
p873
(L134530720L
L134530863L
tp874
sS'bfd_generic_is_group_section'
p875
(L134567344L
L134567347L
tp876
sS'_bfd_pei_swap_scnhdr_out'
p877
(L134903136L
L134904064L
tp878
sS'_bfd_add_merge_section'
p879
(L134971856L
L134972504L
tp880
sS'nacl_final_write_processing'
p881
(L134658128L
L134658467L
tp882
sS'generic_link_add_object_symbols'
p883
(L134582096L
L134582587L
tp884
sS'simple_save_output_info'
p885
(L134623488L
L134623539L
tp886
sS'bfd_generic_lookup_section_flags'
p887
(L134966096L
L134966159L
tp888
sS'bfd_plugin_core_file_failing_signal'
p889
(L134940800L
L134940829L
tp890
sS'htab_create_alloc'
p891
(L135044096L
L135044159L
tp892
sS'bfd_format_string'
p893
(L134554992L
L134555028L
tp894
sS'_bfd_elf_swap_vernaux_out'
p895
(L134676656L
L134676776L
tp896
sS'bfd_elf_generic_reloc'
p897
(L134679392L
L134679465L
tp898
sS'bfd_elf_get_dt_soname'
p899
(L134789136L
L134789177L
tp900
sS'bfd_putl16'
p901
(L134556448L
L134556465L
tp902
sS'string_prepend_0'
p903
(L135036432L
L135036540L
tp904
sS'elf_append_rel'
p905
(L134813712L
L134813832L
tp906
sS'pe_mkobject'
p907
(L134872752L
L134872915L
tp908
sS'bfd_set_archive_head'
p909
(L134945376L
L134945396L
tp910
sS'binary_set_section_contents'
p911
(L134596368L
L134596632L
tp912
sS'cplus_demangle_init_info'
p913
(L135033200L
L135033291L
tp914
sS'memory_bmmap'
p915
(L134534928L
L134534934L
tp916
sS'pe_print_private_bfd_data'
p917
(L134881072L
L134881107L
tp918
sS'aout_32_find_nearest_line'
p919
(L134860752L
L134861903L
tp920
sS'bfd_elf32_swap_symbol_in'
p921
(L134659856L
L134660061L
tp922
sS'_bfd_final_link_relocate'
p923
(L134965184L
L134965374L
tp924
sS'htab_set_functions_ex'
p925
(L135044160L
L135044206L
tp926
sS'_bfd_elf_write_section_eh_frame_hdr'
p927
(L134832496L
L134833498L
tp928
sS'MY_bfd_copy_private_section_data'
p929
(L134839376L
L134839437L
tp930
sS'check_dynsym'
p931
(L134740448L
L134740535L
tp932
sS'memory_bread'
p933
(L134535376L
L134535538L
tp934
sS'bfd_get_sign_extend_vma'
p935
(L134532688L
L134532946L
tp936
sS'bfd_plugin_object_p'
p937
(L134941792L
L134942151L
tp938
sS'binary_object_p'
p939
(L134596192L
L134596356L
tp940
sS'resolve_section'
p941
(L134740672L
L134740858L
tp942
sS'pe_ILF_make_a_section'
p943
(L134874736L
L134875012L
tp944
sS'stab_link_includes_newfunc'
p945
(L134967072L
L134967162L
tp946
sS'_bfd_elf_swap_verneed_out'
p947
(L134676416L
L134676536L
tp948
sS'bfd_realloc'
p949
(L134555600L
L134555682L
tp950
sS'scan_unit_for_symbols'
p951
(L134614096L
L134615831L
tp952
sS'aout_32_slurp_symbol_table'
p953
(L134855312L
L134855543L
tp954
sS'aout_32_link_add_symbols'
p955
(L134862224L
L134862366L
tp956
sS'd_exprlist'
p957
(L135024992L
L135026757L
tp958
sS'elf_strtab_hash_newfunc'
p959
(L134817792L
L134817898L
tp960
sS'_bfd_elf_make_section_from_phdr'
p961
(L134681648L
L134682504L
tp962
sS'xmalloc_set_program_name'
p963
(L135050448L
L135050501L
tp964
sS'bfd_hash_table_init_n'
p965
(L134572576L
L134572791L
tp966
sS'_bfd_elf_copy_private_header_data'
p967
(L134700512L
L134706945L
tp968
sS'bfd_elf_get_bfd_needed_list'
p969
(L134789184L
L134789561L
tp970
sS'bfd_0u'
p971
(L134555152L
L134555155L
tp972
sS'elf_i386_link_hash_table_free'
p973
(L134638944L
L134639009L
tp974
sS'_bfd_elf_copy_private_section_data'
p975
(L134700144L
L134700293L
tp976
sS'_bfd_elf_canonicalize_symtab'
p977
(L134707568L
L134707625L
tp978
sS'_bfd_dwarf2_find_nearest_line'
p979
(L134619632L
L134623372L
tp980
sS'bfd_0l'
p981
(L134555168L
L134555171L
tp982
sS'get_program_header_size'
p983
(L134672432L
L134672889L
tp984
sS'bfd_canonicalize_reloc'
p985
(L134531408L
L134531471L
tp986
sS'_bfd_merge_sections_free'
p987
(L134974704L
L134974753L
tp988
sS'_bfd_elf_can_make_relative'
p989
(L134833536L
L134833542L
tp990
sS'elf_find_function'
p991
(L134671888L
L134672421L
tp992
sS'htab_hash_string'
p993
(L135046064L
L135046102L
tp994
sS'coff_slurp_symbol_table'
p995
(L134877984L
L134878013L
tp996
sS'message'
p997
(L134941136L
L134941225L
tp998
sS'_bfd_elf_init_2_index_sections'
p999
(L134784192L
L134784377L
tp1000
sS'_bfd_elf_slurp_version_tables'
p1001
(L134708128L
L134710377L
tp1002
sS'elfcore_write_s390_todcmp'
p1003
(L134730992L
L134731059L
tp1004
sS'bfd_section_hash_newfunc'
p1005
(L134564608L
L134564782L
tp1006
sS'info_hash_table_newfunc'
p1007
(L134606496L
L134606583L
tp1008
sS'bfd_malloc'
p1009
(L134555424L
L134555485L
tp1010
sS'bfd_elf_reloc_symbol_deleted_p'
p1011
(L134735088L
L134735371L
tp1012
sS'elf_sym_name_compare'
p1013
(L134735376L
L134735403L
tp1014
sS'_bfd_pei_swap_aouthdr_in'
p1015
(L134899488L
L134900336L
tp1016
sS'ihex_write_record'
p1017
(L134601088L
L134601461L
tp1018
sS'_bfd_get_gp_value'
p1019
(L134533152L
L134533226L
tp1020
sS'coff_canonicalize_reloc'
p1021
(L134878016L
L134878872L
tp1022
sS'elfcore_write_s390_system_call'
p1023
(L134731392L
L134731459L
tp1024
sS'bfd_emul_get_maxpagesize'
p1025
(L134533984L
L134534034L
tp1026
sS'_bfd_elf_link_hash_copy_indirect'
p1027
(L134788288L
L134788585L
tp1028
sS'_bfd_elf_strtab_emit'
p1029
(L134818976L
L134819202L
tp1030
sS'htab_traverse'
p1031
(L135045920L
L135045985L
tp1032
sS'htab_create_typed_alloc'
p1033
(L135043936L
L135044089L
tp1034
sS'_bfd_generic_mkarchive'
p1035
(L134945200L
L134945243L
tp1036
sS'elf_final_link_free'
p1037
(L134752272L
L134752517L
tp1038
sS'rsrc_sort_entries'
p1039
(L134893488L
L134897128L
tp1040
sS'endian_string'
p1041
(L134523904L
L134524016L
tp1042
sS'elf_vxworks_link_output_symbol_hook'
p1043
(L134658832L
L134658902L
tp1044
sS'elfcore_write_s390_ctrs'
p1045
(L134731152L
L134731219L
tp1046
sS'elf_link_check_versioned_symbol'
p1047
(L134741440L
L134742312L
tp1048
sS'init_reloc_cookie_for_section'
p1049
(L134761760L
L134761981L
tp1050
sS'bfd_stat'
p1051
(L134536352L
L134536424L
tp1052
sS'_bfd_elf_fix_symbol_flags'
p1053
(L134757760L
L134758525L
tp1054
sS'bfd_arch_get_compatible'
p1055
(L134529920L
L134530016L
tp1056
sS'elfcore_write_ppc_vsx'
p1057
(L134730832L
L134730899L
tp1058
sS'is_gnu_v3_mangled_ctor'
p1059
(L135033424L
L135033459L
tp1060
sS'coff_object_p'
p1061
(L134545856L
L134546320L
tp1062
sS'd_cv_qualifiers'
p1063
(L134999472L
L134999737L
tp1064
sS'make_relative_prefix_ignore_links'
p1065
(L135048800L
L135048825L
tp1066
sS'd_print_expr_op'
p1067
(L135020368L
L135020553L
tp1068
sS'bfd_emul_set_commonpagesize'
p1069
(L134534208L
L134534293L
tp1070
sS'_bfd_elf_section_from_bfd_section'
p1071
(L134685888L
L134686107L
tp1072
sS'htab_find'
p1073
(L135045072L
L135045112L
tp1074
sS'bfd_getb_signed_16'
p1075
(L134556352L
L134556377L
tp1076
sS'_bfd_dummy_target'
p1077
(L134555392L
L134555413L
tp1078
sS'coff_write_object_contents'
p1079
(L134881200L
L134885497L
tp1080
sS'd_print_subexpr'
p1081
(L135020560L
L135020885L
tp1082
sS'srec_write_object_contents'
p1083
(L134592624L
L134592635L
tp1084
sS'bfd_elf32_core_file_pid'
p1085
(L134670096L
L134670116L
tp1086
sS'bfd_core_file_failing_command'
p1087
(L134961536L
L134961586L
tp1088
sS'_bfd_coff_write_global_sym'
p1089
(L134922752L
L134924052L
tp1090
sS'gnu_special'
p1091
(L134995936L
L134997511L
tp1092
sS'tekhex_sizeof_headers'
p1093
(L134597200L
L134597203L
tp1094
sS'_bfd_generic_link_split_section'
p1095
(L134586592L
L134586595L
tp1096
sS'bfd_getb_signed_64'
p1097
(L134556928L
L134557070L
tp1098
sS'coff_new_section_hook'
p1099
(L134888720L
L134888950L
tp1100
sS'bfd_find_target'
p1101
(L134571856L
L134572002L
tp1102
sS'dummy_reloc16_estimate'
p1103
(L134870688L
L134870719L
tp1104
sS'bfd_generic_gc_sections'
p1105
(L134966080L
L134966086L
tp1106
sS'bfd_section_already_linked_table_traverse'
p1107
(L134586608L
L134586643L
tp1108
sS'string_prepend'
p1109
(L134976256L
L134976304L
tp1110
sS'cache_bread'
p1111
(L134960992L
L134961536L
tp1112
sS'bfd_set_reloc'
p1113
(L134530944L
L134530963L
tp1114
sS'verilog_mkobject'
p1115
(L134626352L
L134626455L
tp1116
sS'bfd_hash_traverse'
p1117
(L134574288L
L134574408L
tp1118
sS'd_lookup_template_argument'
p1119
(L135001344L
L135001454L
tp1120
sS'_bfd_elf_rel_vtable_reloc_fn'
p1121
(L134715120L
L134715123L
tp1122
sS'_bfd_dwarf2_cleanup_debug_info'
p1123
(L134617504L
L134617999L
tp1124
sS'_bfd_elf_gc_mark_reloc'
p1125
(L134808240L
L134808360L
tp1126
sS'bfd_elf32_slurp_reloc_table'
p1127
(L134664752L
L134665313L
tp1128
sS'bfd_hash_lookup'
p1129
(L134573408L
L134573742L
tp1130
sS'_bfd_elf_strtab_add'
p1131
(L134818080L
L134818313L
tp1132
sS'htab_create'
p1133
(L135044208L
L135044275L
tp1134
sS'aout_32_canonicalize_reloc'
p1135
(L134859504L
L134859699L
tp1136
sS'_bfd_elf_find_segment_containing_section'
p1137
(L134682736L
L134682827L
tp1138
sS'd_template_args'
p1139
(L135028240L
L135028514L
tp1140
sS'_bfd_elf_obj_attrs_arg_type'
p1141
(L134815232L
L134815343L
tp1142
sS'bsd_write_armap'
p1143
(L134956032L
L134957280L
tp1144
sS'bfd_get_unique_section_name'
p1145
(L134565360L
L134565618L
tp1146
sS'bfd_generic_get_relocated_section_contents'
p1147
(L134966176L
L134967057L
tp1148
sS'srec_mkobject'
p1149
(L134590352L
L134590479L
tp1150
sS'is_vma_in_section'
p1151
(L134888960L
L134888992L
tp1152
sS'aout_32_bfd_free_cached_info'
p1153
(L134861920L
L134862111L
tp1154
sS'bfd_plugin_get_symbol_info'
p1155
(L134940992L
L134941013L
tp1156
sS'real_fseek'
p1157
(L134535808L
L134535813L
tp1158
sS'bfd_set_error_handler'
p1159
(L134530864L
L134530880L
tp1160
sS'srec_canonicalize_symtab'
p1161
(L134588960L
L134589137L
tp1162
sS'bfd_default_compatible'
p1163
(L134529632L
L134529675L
tp1164
sS'bfd_elf_allocate_object'
p1165
(L134676960L
L134677138L
tp1166
sS'linux_add_one_symbol'
p1167
(L134840256L
L134840937L
tp1168
sS'bfd_section_from_phdr'
p1169
(L134728352L
L134728858L
tp1170
sS'add_data_entry'
p1171
(L134889616L
L134889696L
tp1172
sS'find_abstract_instance_name'
p1173
(L134613312L
L134614092L
tp1174
sS'coff_i386_reloc_type_lookup'
p1175
(L134875104L
L134875282L
tp1176
sS'print_version'
p1177
(L134528064L
L134528203L
tp1178
sS'bfd_section_from_elf_index'
p1179
(L134681008L
L134681043L
tp1180
sS'_bfd_free_cached_info'
p1181
(L134560944L
L134561048L
tp1182
sS'd_function_type'
p1183
(L135024896L
L135024978L
tp1184
sS'cplus_demangle_print'
p1185
(L135032944L
L135033195L
tp1186
sS'expandargv'
p1187
(L135034512L
L135035261L
tp1188
sS'bfd_get_section_contents'
p1189
(L134566976L
L134567313L
tp1190
sS'_bfd_elf_size_group_sections'
p1191
(L134777872L
L134777954L
tp1192
sS'elf_vxworks_add_symbol_hook'
p1193
(L134658560L
L134658634L
tp1194
sS'elf_vxworks_emit_relocs'
p1195
(L134658912L
L134659308L
tp1196
sS'coff_set_arch_mach_hook'
p1197
(L134874096L
L134874181L
tp1198
sS'set_cplus_marker_for_demangling'
p1199
(L134977600L
L134977610L
tp1200
sS'aout_32_make_sections'
p1201
(L134850352L
L134850500L
tp1202
sS'ihex_object_p'
p1203
(L134602800L
L134605198L
tp1204
sS'bfd_set_format'
p1205
(L134554864L
L134554987L
tp1206
sS'_bfd_elf_match_sections_by_type'
p1207
(L134789568L
L134789658L
tp1208
sS'bfd_make_readable'
p1209
(L134562480L
L134562743L
tp1210
sS'emit_stringtab'
p1211
(L134841584L
L134841709L
tp1212
sS'_bfd_default_error_handler'
p1213
(L134531600L
L134532622L
tp1214
sS'cplus_demangle_fill_name'
p1215
(L135020896L
L135020954L
tp1216
sS'_bfd_merged_section_offset'
p1217
(L134974192L
L134974702L
tp1218
sS'bfd_set_default_target'
p1219
(L134571776L
L134571852L
tp1220
sS'_bfd_elf_make_section_from_shdr_0'
p1221
(L134720608L
L134723974L
tp1222
sS'bfd_fdopenr'
p1223
(L134561440L
L134561611L
tp1224
sS'srec_print_symbol'
p1225
(L134590480L
L134590585L
tp1226
sS'_bfd_pe_bfd_copy_private_bfd_data_common'
p1227
(L134916256L
L134916811L
tp1228
sS'bfd_errmsg'
p1229
(L134530512L
L134530705L
tp1230
sS'bfd_plugin_set_plugin'
p1231
(L134942496L
L134942506L
tp1232
sS'binary_get_symtab_upper_bound'
p1233
(L134595760L
L134595766L
tp1234
sS'bfd_elf_bfd_from_remote_memory'
p1235
(L134733440L
L134733461L
tp1236
sS'elf_i386_finish_dynamic_symbol'
p1237
(L134630816L
L134632535L
tp1238
sS'_bfd_coff_link_hash_table_init'
p1239
(L134924160L
L134924310L
tp1240
sS'rsrc_write_entry'
p1241
(L134889776L
L134890126L
tp1242
sS'generic_add_output_symbol'
p1243
(L134575568L
L134575692L
tp1244
sS'_bfd_generic_final_link'
p1245
(L134585840L
L134586542L
tp1246
sS'obj_attr_size'
p1247
(L134813888L
L134813984L
tp1248
sS'bfd_get_arch_size'
p1249
(L134532624L
L134532684L
tp1250
sS'_bfd_elf_link_size_reloc_section'
p1251
(L134742320L
L134742431L
tp1252
sS'separate_alt_debug_file_exists'
p1253
(L134559600L
L134559678L
tp1254
sS'bfd_elf_get_needed_list'
p1255
(L134789072L
L134789092L
tp1256
sS'core_file_matches_executable_p'
p1257
(L134961728L
L134961798L
tp1258
sS'internal_srec_write_object_contents'
p1259
(L134591728L
L134592618L
tp1260
sS'd_substitution'
p1261
(L135000720L
L135001227L
tp1262
sS'bfd_sym_from_r_symndx'
p1263
(L134680656L
L134680998L
tp1264
sS'_bfd_elf_adjust_dynamic_symbol'
p1265
(L134758528L
L134758834L
tp1266
sS'elf_renumber_gnu_hash_syms'
p1267
(L134739376L
L134739644L
tp1268
sS'make_relative_prefix'
p1269
(L135048768L
L135048793L
tp1270
sS'add_line_info'
p1271
(L134606592L
L134607366L
tp1272
sS'bfd_create_gnu_debuglink_section'
p1273
(L134563904L
L134564060L
tp1274
sS'bfd_plugin_get_symtab_upper_bound'
p1275
(L134940704L
L134940768L
tp1276
sS'd_bare_function_type'
p1277
(L135024800L
L135024884L
tp1278
sS'objalloc_create'
p1279
(L135049568L
L135049664L
tp1280
sS'bfd_elf_sym_name'
p1281
(L134678656L
L134678783L
tp1282
sS'_bfd_relocate_contents'
p1283
(L134964336L
L134965183L
tp1284
sS'bfd_tell'
p1285
(L134536208L
L134536309L
tp1286
sS'cache_btell'
p1287
(L134960736L
L134960802L
tp1288
sS'_bfd_elf_gc_mark_hook'
p1289
(L134807312L
L134807540L
tp1290
sS'bfd_cache_close'
p1291
(L134959376L
L134959412L
tp1292
sS'_bfd_pe_print_private_bfd_data_common'
p1293
(L134907280L
L134916249L
tp1294
sS'elf32_i386_nacl_elf_object_p'
p1295
(L134639408L
L134639448L
tp1296
sS'sort_by_secaddr'
p1297
(L134869760L
L134869794L
tp1298
sS'htab_find_slot'
p1299
(L135045584L
L135045632L
tp1300
sS'eq_pointer'
p1301
(L135042896L
L135042911L
tp1302
sS'd_ref_qualifier'
p1303
(L134999744L
L134999823L
tp1304
sS'aout_32_set_arch_mach'
p1305
(L134852112L
L134852253L
tp1306
sS'elfcore_write_s390_prefix'
p1307
(L134731232L
L134731299L
tp1308
sS'bfd_getl_signed_16'
p1309
(L134556384L
L134556409L
tp1310
sS'srec_get_symbol_info'
p1311
(L134589744L
L134589765L
tp1312
sS'print_arelt_descr'
p1313
(L134526544L
L134526857L
tp1314
sS'list_supported_architectures'
p1315
(L134524864L
L134525077L
tp1316
sS'unix_lbasename'
p1317
(L135046768L
L135046802L
tp1318
sS'_bfd_pe_get_symbol_info'
p1319
(L134917024L
L134917029L
tp1320
sS'hash_pointer'
p1321
(L135042912L
L135043037L
tp1322
sS'elf_gc_allocate_got_offsets'
p1323
(L134734976L
L134735086L
tp1324
sS'elf_merge_st_other'
p1325
(L134739264L
L134739363L
tp1326
sS'memory_btell'
p1327
(L134534896L
L134534907L
tp1328
sS'aout_32_adjust_sizes_and_vmas'
p1329
(L134852256L
L134853777L
tp1330
sS'bfd_log2'
p1331
(L134558272L
L134558307L
tp1332
sS'i386linux_write_object_contents'
p1333
(L134837008L
L134837745L
tp1334
sS'binary_get_section_contents'
p1335
(L134596640L
L134596726L
tp1336
sS'_bfd_elf_assign_file_position_for_section'
p1337
(L134682624L
L134682722L
tp1338
sS'_bfd_elf_link_omit_section_dynsym'
p1339
(L134760944L
L134761138L
tp1340
sS'cplus_demangle'
p1341
(L134979264L
L134979537L
tp1342
sS'_bfd_elf_get_symtab_upper_bound'
p1343
(L134707248L
L134707302L
tp1344
sS'_bfd_dwarf2_find_inliner_info'
p1345
(L134617424L
L134617500L
tp1346
sS'_bfd_elf_link_renumber_dynsyms'
p1347
(L134736496L
L134736777L
tp1348
sS'd_append_string'
p1349
(L135001552L
L135001695L
tp1350
sS'bfd_elf_gc_common_final_link'
p1351
(L134811520L
L134811578L
tp1352
sS'bfd_arch_bits_per_address'
p1353
(L134530080L
L134530091L
tp1354
sS'_bfd_ar_sizepad'
p1355
(L134944992L
L134945189L
tp1356
sS'_bfd_elf_find_line'
p1357
(L134714048L
L134714163L
tp1358
sS'string_append'
p1359
(L135036016L
L135036074L
tp1360
sS'bfd_false'
p1361
(L134555056L
L134555077L
tp1362
sS'_bfd_elf_make_empty_symbol'
p1363
(L134713312L
L134713347L
tp1364
sS'read_value'
p1365
(L134820720L
L134820881L
tp1366
sS'symbolsrec_write_object_contents'
p1367
(L134592640L
L134592654L
tp1368
sS'elf_i386_add_symbol_hook'
p1369
(L134639456L
L134639536L
tp1370
sS'bfd_init_section_decompress_status'
p1371
(L134625568L
L134625847L
tp1372
sS'squangle_mop_up'
p1373
(L134975072L
L134975255L
tp1374
sS'coff_swap_reloc_out'
p1375
(L134869376L
L134869460L
tp1376
sS'elfcore_write_ppc_vmx'
p1377
(L134730752L
L134730819L
tp1378
sS'bfd_slurp_bsd_armap_f2'
p1379
(L134949600L
L134950199L
tp1380
sS'mark_entry'
p1381
(L134820256L
L134820381L
tp1382
sS'elf_i386_adjust_dynamic_symbol'
p1383
(L134637712L
L134638280L
tp1384
sS'bfd_perform_relocation'
p1385
(L134962320L
L134963394L
tp1386
sS'bfd_getb32'
p1387
(L134556480L
L134556515L
tp1388
sS'coff_sizeof_headers'
p1389
(L134552016L
L134552072L
tp1390
sS'_bfd_generic_get_section_contents'
p1391
(L134557760L
L134558107L
tp1392
sS'ihex_sizeof_headers'
p1393
(L134600928L
L134600931L
tp1394
sS'i386_aout_linux_object_p'
p1395
(L134837776L
L134837980L
tp1396
sS'bfd_make_writable'
p1397
(L134562336L
L134562476L
tp1398
sS'elfcore_write_aarch_hw_watch'
p1399
(L134731792L
L134731859L
tp1400
sS'get_count'
p1401
(L134974928L
L134975061L
tp1402
sS'report'
p1403
(L134524192L
L134524312L
tp1404
sS'bfd_fill_in_gnu_debuglink_section'
p1405
(L134564064L
L134564471L
tp1406
sS'is_gnu_v3_mangled_dtor'
p1407
(L135033472L
L135033507L
tp1408
sS'set_symbol_from_hash'
p1409
(L134575296L
L134575562L
tp1410
sS'elf_swap_ehdr_in'
p1411
(L134662160L
L134662435L
tp1412
sS'_bfd_elf_link_hash_table_create'
p1413
(L134788800L
L134788900L
tp1414
sS'bfd_plugin_bfd_copy_private_bfd_data'
p1415
(L134940960L
L134940992L
tp1416
sS'try_load_plugin'
p1417
(L134941232L
L134941780L
tp1418
sS'get_alt_debug_link_info_shim'
p1419
(L134563760L
L134563831L
tp1420
sS'_bfd_elf_gc_mark_extra_sections'
p1421
(L134808368L
L134808758L
tp1422
sS'_bfd_elf_link_find_version_dependencies'
p1423
(L134741088L
L134741437L
tp1424
sS'demangle_nested_args'
p1425
(L134991824L
L134991948L
tp1426
sS'bfd_openr_iovec'
p1427
(L134563056L
L134563227L
tp1428
sS'_bfd_elf32_bfd_from_remote_memory'
p1429
(L134668624L
L134669998L
tp1430
sS'bfd_elf_stack_segment_size'
p1431
(L134777968L
L134778429L
tp1432
sS'free_split_directories'
p1433
(L135047040L
L135047096L
tp1434
sS'find_debug_info'
p1435
(L134607616L
L134607750L
tp1436
sS'demangle_signature'
p1437
(L134993248L
L134995519L
tp1438
sS'bfd_elf32_swap_dyn_in'
p1439
(L134660352L
L134660403L
tp1440
sS'bfd_rename_section'
p1441
(L134566400L
L134566437L
tp1442
sS'bfd_elf_set_group_contents'
p1443
(L134673088L
L134673626L
tp1444
sS'move_section_contents'
p1445
(L134598976L
L134599233L
tp1446
sS'bfd_core_file_failing_signal'
p1447
(L134961600L
L134961654L
tp1448
sS'bfd_octets_per_byte'
p1449
(L134530336L
L134530401L
tp1450
sS'dlang_parse_real'
p1451
(L135037264L
L135037784L
tp1452
sS'opncls_bwrite'
p1453
(L134559056L
L134559067L
tp1454
sS'_bfd_coff_debug_merge_hash_newfunc'
p1455
(L134920016L
L134920102L
tp1456
sS'srec_sizeof_headers'
p1457
(L134588928L
L134588931L
tp1458
sS'consume_count_with_underscores'
p1459
(L134974848L
L134974927L
tp1460
sS'bfd_plugin_sizeof_headers'
p1461
(L134940640L
L134940669L
tp1462
sS'dlang_call_convention'
p1463
(L135036080L
L135036236L
tp1464
sS'coff_classify_symbol'
p1465
(L134875424L
L134875675L
tp1466
sS'elf_i386_info_to_howto_rel'
p1467
(L134629120L
L134629151L
tp1468
sS'find_chunk'
p1469
(L134597216L
L134597354L
tp1470
sS'bfd_get_arch_info'
p1471
(L134530096L
L134530104L
tp1472
sS'bfd_true'
p1473
(L134555088L
L134555094L
tp1474
sS'coff_get_normalized_symtab'
p1475
(L134546592L
L134548250L
tp1476
sS'coff_swap_filehdr_in'
p1477
(L134869472L
L134869658L
tp1478
sS'elf_i386_grok_prstatus'
p1479
(L134628160L
L134628450L
tp1480
sS'bfd_emul_get_commonpagesize'
p1481
(L134534144L
L134534194L
tp1482
sS'make_tempdir'
p1483
(L134526928L
L134526952L
tp1484
sS'ihex_set_section_contents'
p1485
(L134602304L
L134602575L
tp1486
sS'_bfd_elf_get_lineno'
p1487
(L134713472L
L134713503L
tp1488
sS'copy_name'
p1489
(L134537072L
L134537168L
tp1490
sS'bfd_print_symbol_vandf'
p1491
(L134567536L
L134567900L
tp1492
sS'bfd_slurp_armap'
p1493
(L134948416L
L134949596L
tp1494
sS'_bfd_elf_find_nearest_line'
p1495
(L134713568L
L134714039L
tp1496
sS'elfcore_write_note'
p1497
(L134728864L
L134729169L
tp1498
sS'bfd_elf_lookup_section_flags'
p1499
(L134810704L
L134811094L
tp1500
sS'_bfd_elf_get_dynamic_symtab_upper_bound'
p1501
(L134707312L
L134707411L
tp1502
sS'template_in_dir'
p1503
(L134523776L
L134523890L
tp1504
sS'_bfd_generic_link_output_symbols'
p1505
(L134583264L
L134584450L
tp1506
sS'_bfd_compute_and_write_armap'
p1507
(L134953248L
L134954235L
tp1508
sS'tekhex_get_symbol_info'
p1509
(L134597472L
L134597493L
tp1510
sS'bfd_get_mtime'
p1511
(L134536832L
L134536904L
tp1512
sS'coff_set_section_contents'
p1513
(L134872336L
L134872618L
tp1514
sS'elf_sort_symbol'
p1515
(L134734640L
L134734721L
tp1516
sS'd_find_pack'
p1517
(L135001456L
L135001545L
tp1518
sS'bfd_elf_hash'
p1519
(L134676848L
L134676902L
tp1520
sS'bfd_elf32_swap_phdr_in'
p1521
(L134665328L
L134665527L
tp1522
sS'_bfd_generic_make_empty_symbol'
p1523
(L134567904L
L134567939L
tp1524
sS'bfd_plugin_core_file_pid'
p1525
(L134940768L
L134940797L
tp1526
sS'd_print_comp'
p1527
(L135015408L
L135015460L
tp1528
sS'hash_file_ptr'
p1529
(L134943616L
L134943623L
tp1530
sS'_bfd_write_stab_strings'
p1531
(L134970576L
L134970775L
tp1532
sS'bfd_realloc_or_free'
p1533
(L134555840L
L134555946L
tp1534
sS'_bfd_elf_set_section_contents'
p1535
(L134714384L
L134714529L
tp1536
sS'demangle_expression'
p1537
(L134980944L
L134981330L
tp1538
sS'bfd_elf32_swap_reloca_out'
p1539
(L134660272L
L134660352L
tp1540
sS'strrevcmp'
p1541
(L134817680L
L134817786L
tp1542
sS'aout_32_write_syms'
p1543
(L134855552L
L134856748L
tp1544
sS'd_name'
p1545
(L135028528L
L135029589L
tp1546
sS'_bfd_pe_bfd_copy_private_section_data'
p1547
(L134916816L
L134917022L
tp1548
sS'aout_32_link_hash_table_create'
p1549
(L134862128L
L134862220L
tp1550
sS'htab_collisions'
p1551
(L135046000L
L135046063L
tp1552
sS'aout_32_machine_type'
p1553
(L134851424L
L134852101L
tp1554
sS'frame_dummy'
p1555
(L134522320L
L134522365L
tp1556
sS'bfd_coff_get_comdat_section'
p1557
(L134552336L
L134552370L
tp1558
sS'read_attribute_value'
p1559
(L134608432L
L134609876L
tp1560
sS'tekhex_canonicalize_symtab'
p1561
(L134596976L
L134597031L
tp1562
sS'set_default_bfd_target'
p1563
(L134524400L
L134524488L
tp1564
sS'd_count_templates_scopes'
p1565
(L134999824L
L134999920L
tp1566
sS'_bfd_find_arch_match'
p1567
(L134571472L
L134571594L
tp1568
sS'dlang_function_args'
p1569
(L135041552L
L135041863L
tp1570
sS'bfd_hash_allocate'
p1571
(L134574048L
L134574163L
tp1572
sS'demangle_template_template_parm'
p1573
(L134990464L
L134990774L
tp1574
sS'rsrc_parse_entries'
p1575
(L134892432L
L134893057L
tp1576
sS'bfd_hash_table_free'
p1577
(L134572848L
L134572879L
tp1578
sS'vendor_obj_attr_size'
p1579
(L134814288L
L134814523L
tp1580
sS'bfd_write_bigendian_4byte_int'
p1581
(L134556176L
L134556286L
tp1582
sS'getsym'
p1583
(L134596864L
L134596970L
tp1584
sS'pass_over'
p1585
(L134600384L
L134600695L
tp1586
sS'_bfd_dwarf1_find_nearest_line'
p1587
(L134834800L
L134835365L
tp1588
sS'__do_global_dtors_aux'
p1589
(L134522288L
L134522318L
tp1590
sS'higher_prime_index'
p1591
(L135043040L
L135043175L
tp1592
sS'_bfd_look_for_bfd_in_cache'
p1593
(L134945408L
L134945476L
tp1594
sS'tekhex_object_p'
p1595
(L134600704L
L134600922L
tp1596
sS'elf_i386_always_size_sections'
p1597
(L134637440L
L134637698L
tp1598
sS'coff_compute_section_file_positions'
p1599
(L134870816L
L134872335L
tp1600
sS'bfd_set_gp_size'
p1601
(L134533072L
L134533150L
tp1602
sS'bfd_alt_mach_code'
p1603
(L134533856L
L134533970L
tp1604
sS'_bfd_elf_ifunc_get_synthetic_symtab'
p1605
(L134656032L
L134656953L
tp1606
sS'compare_link_order'
p1607
(L134741024L
L134741080L
tp1608
sS'MY_close_and_cleanup'
p1609
(L134836960L
L134837005L
tp1610
sS'bfd_follow_gnu_debugaltlink'
p1611
(L134563872L
L134563898L
tp1612
sS'bfd_openw'
p1613
(L134561728L
L134561832L
tp1614
sS'_bfd_elf_get_dynamic_reloc_section'
p1615
(L134813232L
L134813316L
tp1616
sS'_bfd_elf_attr_strdup'
p1617
(L134815168L
L134815226L
tp1618
sS'bfd_openr'
p1619
(L134561392L
L134561435L
tp1620
sS'htab_expand'
p1621
(L135043184L
L135043715L
tp1622
sS'_bfd_fix_excluded_sec_syms'
p1623
(L134588192L
L134588230L
tp1624
sS'bfd_putl64'
p1625
(L134557392L
L134557469L
tp1626
sS'tekhex_set_section_contents'
p1627
(L134599248L
L134599321L
tp1628
sS'_bfd_elf_tls_setup'
p1629
(L134763328L
L134763434L
tp1630
sS'bfd_check_format_matches'
p1631
(L134552800L
L134554813L
tp1632
sS'bfd_get_bits'
p1633
(L134557600L
L134557756L
tp1634
sS'_bfd_create_empty_archive_element_shell'
p1635
(L134945360L
L134945365L
tp1636
sS'simple_dummy_multiple_definition'
p1637
(L134623456L
L134623462L
tp1638
sS'bfd_elf_get_runpath_list'
p1639
(L134789104L
L134789127L
tp1640
sS'elf_link_input_bfd'
p1641
(L134790736L
L134796652L
tp1642
sS'forget_types'
p1643
(L134975728L
L134975812L
tp1644
sS'elf_i386_gc_sweep_hook'
p1645
(L134641440L
L134642218L
tp1646
sS'string_need'
p1647
(L134976000L
L134976100L
tp1648
sS'elf_i386_reloc_name_lookup'
p1649
(L134639216L
L134639297L
tp1650
sS'dlang_demangle'
p1651
(L135042256L
L135042458L
tp1652
sS'linux_finish_dynamic_link'
p1653
(L134835760L
L134836722L
tp1654
sS'd_expr_primary'
p1655
(L135031360L
L135031648L
tp1656
sS'd_print_mod_0'
p1657
(L135015472L
L135017355L
tp1658
sS'bfd_get_alt_debug_link_info'
p1659
(L134563456L
L134563745L
tp1660
sS'dlang_value'
p1661
(L135037792L
L135038872L
tp1662
sS'_bfd_default_assert_handler'
p1663
(L134530480L
L134530487L
tp1664
sS'elf_vxworks_create_dynamic_sections'
p1665
(L134658640L
L134658828L
tp1666
sS'swap_abort'
p1667
(L134943584L
L134943615L
tp1668
sS'_bfd_elf_sizeof_headers'
p1669
(L134714240L
L134714377L
tp1670
sS'aout_32_get_reloc_upper_bound'
p1671
(L134859712L
L134859859L
tp1672
sS'bfd_decode_symclass'
p1673
(L134567952L
L134568357L
tp1674
sS'bfd_fatal'
p1675
(L134524160L
L134524187L
tp1676
sS'_bfd_generic_verify_endian_match'
p1677
(L134558368L
L134558506L
tp1678
sS'tekhex_get_section_contents'
p1679
(L134599328L
L134599401L
tp1680
sS'srec_set_arch_mach'
p1681
(L134589696L
L134589733L
tp1682
sS'elf_i386_is_local_label_name'
p1683
(L134639312L
L134639356L
tp1684
sS'_bfd_elf_swap_versym_out'
p1685
(L134676816L
L134676847L
tp1686
sS'_bfd_elf_strtab_clear_all_refs'
p1687
(L134818624L
L134818666L
tp1688
sS'elf_link_adjust_relocs'
p1689
(L134519744L
L134520143L
tp1690
sS'_bfd_elfcore_make_pseudosection'
p1691
(L134715136L
L134715465L
tp1692
sS'i386linux_bfd_final_link'
p1693
(L134836736L
L134836784L
tp1694
sS'coff_bad_format_hook'
p1695
(L134869696L
L134869746L
tp1696
sS'bfd_plugin_bfd_copy_private_section_data'
p1697
(L134940928L
L134940960L
tp1698
sS'elf32_r_sym'
p1699
(L134670016L
L134670024L
tp1700
sS'_bfd_link_hash_table_init'
p1701
(L134576240L
L134576361L
tp1702
sS'bfd_i386linux_size_dynamic_sections'
p1703
(L134840944L
L134841167L
tp1704
sS'bfd_elf32_write_relocs'
p1705
(L134663584L
L134664100L
tp1706
sS'filename_ncmp'
p1707
(L135042480L
L135042485L
tp1708
sS'_bfd_elf_default_got_elt_size'
p1709
(L134813200L
L134813230L
tp1710
sS'_bfd_elf_swap_verneed_in'
p1711
(L134676304L
L134676402L
tp1712
sS'elf_i386_relocate_section'
p1713
(L134642224L
L134652089L
tp1714
sS'coff_write_symbol'
p1715
(L134537168L
L134538778L
tp1716
sS'bfd_nullvoidptr'
p1717
(L134555104L
L134555125L
tp1718
sS'cplus_demangle_name_to_style'
p1719
(L134977808L
L134977869L
tp1720
sS'dlang_attributes'
p1721
(L135036240L
L135036422L
tp1722
sS'comp_unit_maybe_decode_line_info'
p1723
(L134615840L
L134615955L
tp1724
sS'_bfd_elf_is_function_type'
p1725
(L134734432L
L134734449L
tp1726
sS'coff_renumber_symbols'
p1727
(L134539856L
L134540602L
tp1728
sS'_bfd_elf_strtab_offset'
p1729
(L134818816L
L134818976L
tp1730
sS'aout_32_canonicalize_symtab'
p1731
(L134856752L
L134856852L
tp1732
sS'_bfd_norelocs_get_reloc_upper_bound'
p1733
(L134555232L
L134555238L
tp1734
sS'_bfd_elf_post_process_headers'
p1735
(L134734368L
L134734419L
tp1736
sS'_bfd_elf_common_definition'
p1737
(L134813152L
L134813167L
tp1738
sS'bfd_is_local_label'
p1739
(L134567408L
L134567451L
tp1740
sS'opncls_bflush'
p1741
(L134559120L
L134559123L
tp1742
sS'_bfd_elf_eh_frame_present'
p1743
(L134828224L
L134828310L
tp1744
sS'snarf_numeric_literal'
p1745
(L134976480L
L134976643L
tp1746
sS'bfd_make_section'
p1747
(L134566320L
L134566355L
tp1748
sS'_bfd_archive_bsd_update_armap_timestamp'
p1749
(L134957280L
L134957630L
tp1750
sS'list_supported_targets'
p1751
(L134524640L
L134524853L
tp1752
sS'_bfd_generic_link_write_global_symbol'
p1753
(L134575696L
L134575935L
tp1754
sS'bfd_generic_link_read_symbols_0'
p1755
(L134575936L
L134576032L
tp1756
sS'concat_length'
p1757
(L135035328L
L135035380L
tp1758
sS'_bfd_elf_print_private_bfd_data'
p1759
(L134710384L
L134713299L
tp1760
sS'bfd_get_debug_link_info'
p1761
(L134559376L
L134559593L
tp1762
sS'split_directories'
p1763
(L135047104L
L135047477L
tp1764
sS'aout_32_squirt_out_relocs'
p1765
(L134859232L
L134859492L
tp1766
sS'aout_link_input_section'
p1767
(L134844848L
L134849670L
tp1768
sS'demangle_qualified'
p1769
(L134982960L
L134984151L
tp1770
sS'bfd_plugin_bfd_print_private_bfd_data'
p1771
(L134940864L
L134940896L
tp1772
sS'bfd_check_format'
p1773
(L134554816L
L134554851L
tp1774
sS'coff_read_word'
p1775
(L134520525L
L134520611L
tp1776
sS'demangle_template_value_parm'
p1777
(L134979552L
L134980935L
tp1778
sS'_bfd_elf_canonicalize_dynamic_symtab'
p1779
(L134707632L
L134707689L
tp1780
sS'_bfd_elf_fixup_group_sections'
p1781
(L134700304L
L134700508L
tp1782
sS'bfd_core_file_pid'
p1783
(L134961664L
L134961718L
tp1784
sS'tekhex_write_object_contents'
p1785
(L134599648L
L134600373L
tp1786
sS'tekhex_make_empty_symbol'
p1787
(L134597360L
L134597402L
tp1788
sS'aout_get_external_symbols'
p1789
(L134841168L
L134841579L
tp1790
sS'read_address'
p1791
(L134607952L
L134608172L
tp1792
sS'bfd_flush'
p1793
(L134536320L
L134536339L
tp1794
sS'stash_maybe_update_info_hash_tables'
p1795
(L134616480L
L134616990L
tp1796
sS'_bfd_norelocs_canonicalize_reloc'
p1797
(L134555248L
L134555261L
tp1798
sS'bfd_arch_i386_long_nop_fill'
p1799
(L134942736L
L134942754L
tp1800
sS'_bfd_elf_maybe_function_sym'
p1801
(L134734464L
L134734528L
tp1802
sS'concat_copy'
p1803
(L135035392L
L135035469L
tp1804
sS'new_fixup'
p1805
(L134839440L
L134839516L
tp1806
sS'bfd_create'
p1807
(L134562256L
L134562332L
tp1808
sS'bfd_scan_arch'
p1809
(L134529696L
L134529769L
tp1810
sS'_bfd_elf_section_offset'
p1811
(L134733296L
L134733439L
tp1812
sS'remember_Btype'
p1813
(L134975664L
L134975727L
tp1814
sS'check_for_relocs'
p1815
(L134940512L
L134940618L
tp1816
sS'bfd_nonfatal_message'
p1817
(L134527584L
L134527907L
tp1818
sS'bfd_realloc2'
p1819
(L134555696L
L134555826L
tp1820
sS'coff_set_alignment_hook'
p1821
(L134873152L
L134873809L
tp1822
sS'_bfd_elf_init_1_index_section'
p1823
(L134784112L
L134784191L
tp1824
sS'hex_init'
p1825
(L135046752L
L135046754L
tp1826
sS'_bfd_generic_read_ar_hdr_mag'
p1827
(L134945696L
L134946790L
tp1828
sS'cplus_demangle_mangled_name'
p1829
(L135031072L
L135031353L
tp1830
sS'trad_unix_core_file_failing_command'
p1831
(L134942896L
L134942925L
tp1832
sS'_bfd_elf_add_dynamic_entry'
p1833
(L134763440L
L134763641L
tp1834
sS'_bfd_pe_print_ce_compressed_pdata'
p1835
(L134906000L
L134907278L
tp1836
sS'read_section'
p1837
(L134605920L
L134606378L
tp1838
sS'_bfd_archive_coff_construct_extended_name_table'
p1839
(L134951888L
L134951927L
tp1840
sS'elfcore_write_arm_vfp'
p1841
(L134731552L
L134731619L
tp1842
sS'elf_i386_mkobject'
p1843
(L134639360L
L134639395L
tp1844
sS'bfd_elf32_write_shdrs_and_ehdr'
p1845
(L134663216L
L134663575L
tp1846
sS'memory_bflush'
p1847
(L134534912L
L134534915L
tp1848
sS'elf_append_rela'
p1849
(L134813584L
L134813704L
tp1850
sS'cplus_demangle_type'
p1851
(L135021152L
L135023292L
tp1852
sS'_objalloc_alloc'
p1853
(L135049664L
L135049935L
tp1854
sS'aout_32_slurp_reloc_table'
p1855
(L134858720L
L134859232L
tp1856
sS'_bfd_construct_extended_name_table'
p1857
(L134950816L
L134951840L
tp1858
sS'bfd_set_error'
p1859
(L134531264L
L134531339L
tp1860
sS'_bfd_pei_final_link_postscript'
p1861
(L134917040L
L134919893L
tp1862
sS'_bfd_elf_common_section'
p1863
(L134813184L
L134813190L
tp1864
sS'bfd_set_file_flags'
p1865
(L134531472L
L134531594L
tp1866
sS'elf32_generic_link_add_symbols'
p1867
(L134940432L
L134940503L
tp1868
sS'_bfd_elf_discard_section_eh_frame'
p1869
(L134826320L
L134828094L
tp1870
sS'binary_get_symbol_info'
p1871
(L134595792L
L134595813L
tp1872
sS'bfd_seek'
p1873
(L134536432L
L134536827L
tp1874
sS'simple_restore_output_info'
p1875
(L134623552L
L134623586L
tp1876
sS'd_append_char'
p1877
(L134999920L
L135000034L
tp1878
sS'add_symbols'
p1879
(L134941072L
L134941135L
tp1880
sS'cplus_mangle_opname'
p1881
(L134977616L
L134977754L
tp1882
sS'_bfd_elf_merge_symbol'
p1883
(L134754384L
L134757745L
tp1884
sS'bfd_link_add_undef'
p1885
(L134578432L
L134578516L
tp1886
sS'_bfd_nocore_core_file_failing_command'
p1887
(L134555296L
L134555317L
tp1888
sS'bfd_plugin_bfd_copy_private_symbol_data'
p1889
(L134940896L
L134940928L
tp1890
sS'bfd_link_repair_undef_list'
p1891
(L134578528L
L134578606L
tp1892
sS'srec_write_record'
p1893
(L134589776L
L134590343L
tp1894
sS'deregister_tm_clones'
p1895
(L134522176L
L134522218L
tp1896
sS'delete_non_B_K_work_stuff'
p1897
(L134975824L
L134975990L
tp1898
sS'bfd_sprintf_vma'
p1899
(L134533744L
L134533795L
tp1900
sS'bfd_hash_newfunc'
p1901
(L134574240L
L134574273L
tp1902
sS'elfcore_write_linux_prpsinfo32'
p1903
(L134729472L
L134729858L
tp1904
sS'_bfd_set_gp_value'
p1905
(L134533232L
L134533347L
tp1906
sS'_bfd_elf_maybe_strip_eh_frame_hdr'
p1907
(L134828320L
L134828424L
tp1908
sS'bfd_getl16'
p1909
(L134556320L
L134556337L
tp1910
sS'bfd_get_error'
p1911
(L134530496L
L134530502L
tp1912
sS'remember_type'
p1913
(L134977456L
L134977589L
tp1914
sS'_bfd_elf_init_private_section_data'
p1915
(L134699744L
L134700144L
tp1916
sS'bfd_getl64'
p1917
(L134556800L
L134556925L
tp1918
sS'_bfd_elf_canonicalize_dynamic_reloc'
p1919
(L134707840L
L134708128L
tp1920
sS'_bfd_add_bfd_to_archive_cache'
p1921
(L134945488L
L134945684L
tp1922
sS'elfcore_write_aarch_hw_break'
p1923
(L134731712L
L134731779L
tp1924
sS'simple_dummy_undefined_symbol'
p1925
(L134623392L
L134623398L
tp1926
sS'buildargv'
p1927
(L135033760L
L135034336L
tp1928
sS'bfd_openr_next_archived_file'
p1929
(L134947728L
L134947795L
tp1930
sS'code_for_qualifier'
p1931
(L134975520L
L134975566L
tp1932
sS'bfd_section_already_linked_table_insert'
p1933
(L134586704L
L134586775L
tp1934
sS'bfd_generic_is_local_label_name'
p1935
(L134558320L
L134558357L
tp1936
sS'elf_create_symbuf'
p1937
(L134520143L
L134520525L
tp1938
sS'coff_link_check_archive_element'
p1939
(L134922640L
L134922749L
tp1940
sS'_bfd_elf_gc_keep'
p1941
(L134808960L
L134809078L
tp1942
sS'pe_mkobject_hook'
p1943
(L134872928L
L134873145L
tp1944
sS'memory_bseek'
p1945
(L134535136L
L134535363L
tp1946
sS'_bfd_elf_close_and_cleanup'
p1947
(L134715008L
L134715109L
tp1948
sS'read_uleb128'
p1949
(L134819648L
L134819750L
tp1950
sS'_bfd_elf_strtab_restore_size'
p1951
(L134818672L
L134818790L
tp1952
sS'd_call_offset'
p1953
(L135001232L
L135001340L
tp1954
sS'_bfd_handle_already_linked'
p1955
(L134586864L
L134587523L
tp1956
sS'string_appends'
p1957
(L134976656L
L134976716L
tp1958
sS'elf_gc_smash_unused_vtentry_relocs'
p1959
(L134761984L
L134762286L
tp1960
sS'register_tm_clones'
p1961
(L134522224L
L134522279L
tp1962
sS'bfd_emul_set_maxpagesize'
p1963
(L134534048L
L134534133L
tp1964
sS'bfd_elf_gnu_hash'
p1965
(L134676912L
L134676958L
tp1966
sS'binary_mkobject'
p1967
(L134595744L
L134595750L
tp1968
sS'srec_object_p'
p1969
(L134595168L
L134595481L
tp1970
sS'elf_adjust_dynstr_offsets'
p1971
(L134742704L
L134742750L
tp1972
sS'string_appendn'
p1973
(L134976112L
L134976160L
tp1974
sS'cplus_demangle_fill_dtor'
p1975
(L135021088L
L135021148L
tp1976
sS'find_debug_info_0'
p1977
(L134607504L
L134607605L
tp1978
sS'bfd_get_elf_phdrs'
p1979
(L134732928L
L134733011L
tp1980
sS'_bfd_dwarf2_slurp_debug_info'
p1981
(L134618000L
L134619627L
tp1982
sS'_bfd_elf_make_dynamic_segment'
p1983
(L134682832L
L134682890L
tp1984
sS'close_one'
p1985
(L134959072L
L134959158L
tp1986
sS'mangle_name'
p1987
(L134595824L
L134595968L
tp1988
sS'srec_bad_byte'
p1989
(L134592656L
L134592874L
tp1990
sS'bfd_close_all_done'
p1991
(L134562080L
L134562252L
tp1992
sS'bfd_elf_get_obj_attr_int'
p1993
(L134815056L
L134815162L
tp1994
sS'iterate_demangle_function'
p1995
(L134995520L
L134995933L
tp1996
sS'_bfd_elf_allocate_ifunc_dyn_relocs'
p1997
(L134655344L
L134656030L
tp1998
sS'elf_gc_sweep_symbol'
p1999
(L134739808L
L134739906L
tp2000
sS'cplus_demangle_v3'
p2001
(L135033296L
L135033320L
tp2002
sS'xexit'
p2003
(L135050416L
L135050442L
tp2004
sS'elf_i386_check_relocs'
p2005
(L134652192L
L134654608L
tp2006
sS'in_reloc_p'
p2007
(L134869264L
L134869294L
tp2008
sS'elf_i386_get_synthetic_symtab'
p2009
(L134638288L
L134638377L
tp2010
sS'_bfd_elf_dynamic_symbol_p'
p2011
(L134762848L
L134763129L
tp2012
sS'_bfd_elf_strtab_finalize'
p2013
(L134819216L
L134819640L
tp2014
sS'bfd_printable_arch_mach'
p2015
(L134530272L
L134530321L
tp2016
sS'bfd_putb16'
p2017
(L134556416L
L134556435L
tp2018
sS'usage'
p2019
(L134522576L
L134522923L
tp2020
sS'choose_tmpdir'
p2021
(L135048832L
L135049320L
tp2022
sS'_bfd_elf_notice_as_needed'
p2023
(L134764144L
L134764212L
tp2024
sS'mode_string'
p2025
(L134528208L
L134528580L
tp2026
sS'bfd_new_link_order'
p2027
(L134585216L
L134585292L
tp2028
sS'do_slurp_bsd_armap'
p2029
(L134943680L
L134944085L
tp2030
sS'trad_unix_core_file_p'
p2031
(L134942944L
L134943574L
tp2032
sS'bfd_elf_set_obj_attr_contents'
p2033
(L134814592L
L134815053L
tp2034
sS'elfcore_grok_nto_regs'
p2035
(L134673744L
L134674064L
tp2036
sS'elf_get_linked_section_vma'
p2037
(L134740864L
L134741017L
tp2038
sS'bfd_putl32'
p2039
(L134557264L
L134557297L
tp2040
sS'elfcore_write_register_note'
p2041
(L134731872L
L134732860L
tp2042
sS'bfd_elf_gc_sections'
p2043
(L134809088L
L134810127L
tp2044
sS'elf_i386_local_htab_hash'
p2045
(L134627552L
L134627586L
tp2046
sS'bfd_elf32_core_file_matches_executable_p'
p2047
(L134670128L
L134670255L
tp2048
sS'qualifier_string'
p2049
(L134975568L
L134975656L
tp2050
sS'xmalloc'
p2051
(L135050640L
L135050683L
tp2052
sS'elf_add_dt_needed_tag'
p2053
(L134763648L
L134764063L
tp2054
sS'bfd_elf_string_from_elf_section'
p2055
(L134677280L
L134677310L
tp2056
sS'_bfd_elf_gc_mark_rsec'
p2057
(L134807552L
L134807797L
tp2058
sS'_bfd_elf_relocs_compatible'
p2059
(L134764080L
L134764143L
tp2060
sS'bfd_generic_archive_p'
p2061
(L134947968L
L134948408L
tp2062
sS'bfd_nonfatal'
p2063
(L134524016L
L134524160L
tp2064
sS'aout_32_new_section_hook'
p2065
(L134853792L
L134853987L
tp2066
sS'_bfd_count_link_order_relocs'
p2067
(L134586544L
L134586582L
tp2068
sS'create_info_hash_table'
p2069
(L134606384L
L134606488L
tp2070
sS'elf_slurp_reloc_table_from_section'
p2071
(L134664112L
L134664751L
tp2072
sS'_bfd_generic_init_private_section_data'
p2073
(L134558864L
L134558870L
tp2074
sS'demangle_function_name'
p2075
(L134991952L
L134993242L
tp2076
sS'_bfd_pei_swap_aux_out'
p2077
(L134898640L
L134899347L
tp2078
sS'bfd_get_arch'
p2079
(L134530032L
L134530043L
tp2080
sS'_bfd_elf_rel_local_sym'
p2081
(L134733216L
L134733288L
tp2082
sS'rsrc_parse_directory'
p2083
(L134893072L
L134893380L
tp2084
sS'_bfd_elf_get_reloc_upper_bound'
p2085
(L134707424L
L134707439L
tp2086
sS'string_append_template_idx'
p2087
(L134976368L
L134976469L
tp2088
sS'srec_get_byte'
p2089
(L134590592L
L134590666L
tp2090
sS'_bfd_delete_bfd'
p2091
(L134559296L
L134559375L
tp2092
sS'bfd_elf32_core_file_p'
p2093
(L134670256L
L134671413L
tp2094
sS'_bfd_generic_link_add_symbols_collect'
p2095
(L134582704L
L134582719L
tp2096
sS'coff_find_inliner_info'
p2097
(L134551952L
L134552008L
tp2098
sS'bfd_fopen'
p2099
(L134561056L
L134561388L
tp2100
sS'bfd_elf_obj_attr_size'
p2101
(L134814528L
L134814579L
tp2102
sS'string_append_0'
p2103
(L134976304L
L134976362L
tp2104
sS'bfd_init'
p2105
(L134555040L
L134555042L
tp2106
sS'rsrc_print_name'
p2107
(L134889696L
L134889773L
tp2108
sS'_bfd_link_hash_newfunc'
p2109
(L134576032L
L134576136L
tp2110
sS'bfd_set_section_flags'
p2111
(L134566368L
L134566385L
tp2112
sS'_bfd_stab_section_offset'
p2113
(L134970784L
L134970869L
tp2114
sS'bfd_elf32_object_p'
p2115
(L134666656L
L134668618L
tp2116
sS'_bfd_elf_section_already_linked'
p2117
(L134812224L
L134813141L
tp2118
sS'htab_clear_slot'
p2119
(L135045760L
L135045834L
tp2120
sS'_bfd_elf_get_synthetic_symtab'
p2121
(L134733472L
L134734353L
tp2122
sS'_bfd_elf_swap_verdef_in'
p2123
(L134675872L
L134676002L
tp2124
sS'memory_bstat'
p2125
(L134534944L
L134535062L
tp2126
sS'bfd_elf_gc_record_vtinherit'
p2127
(L134810128L
L134810366L
tp2128
sS'bfd_elf32_swap_dyn_out'
p2129
(L134660416L
L134660477L
tp2130
sS'dlang_parse_symbol'
p2131
(L135039920L
L135040391L
tp2132
sS'bfd_get_next_mapent'
p2133
(L134945248L
L134945350L
tp2134
sS'insert_info_hash_table'
p2135
(L134616368L
L134616465L
tp2136
sS'java_demangle_v3_callback'
p2137
(L135033392L
L135033418L
tp2138
sS'elf_i386_fbsd_post_process_headers'
p2139
(L134627680L
L134627685L
tp2140
sS'bfd_plugin_make_empty_symbol'
p2141
(L134941024L
L134941059L
tp2142
sS'elf_i386_finish_dynamic_sections'
p2143
(L134629232L
L134630816L
tp2144
sS'_bfd_elf_eh_frame_address_size'
p2145
(L134833504L
L134833532L
tp2146
sS'dos_lbasename'
p2147
(L135046816L
L135046889L
tp2148
sS'bfd_simple_get_relocated_section_contents'
p2149
(L134623600L
L134624297L
tp2150
sS'aout_32_get_symtab_upper_bound'
p2151
(L134859872L
L134859919L
tp2152
sS'internal_cplus_demangle'
p2153
(L134997520L
L134999266L
tp2154
sS'bfd_get_reloc_upper_bound'
p2155
(L134531344L
L134531397L
tp2156
sS'bfd_zmalloc2'
p2157
(L134556032L
L134556168L
tp2158
sS'bfd_make_section_anyway'
p2159
(L134566064L
L134566099L
tp2160
sS'_bfd_coff_write_task_globals'
p2161
(L134924064L
L134924157L
tp2162
sS'bfd_section_already_linked_table_init'
p2163
(L134586784L
L134586827L
tp2164
sS'bfd_get_reloc_size'
p2165
(L134961952L
L134962100L
tp2166
sS'_bfd_elf_link_hash_newfunc'
p2167
(L134736992L
L134737211L
tp2168
sS'bfd_generic_merge_sections'
p2169
(L134966160L
L134966166L
tp2170
sS'bfd_is_section_compressed'
p2171
(L134625344L
L134625556L
tp2172
sS'_bfd_slurp_extended_name_table'
p2173
(L134950208L
L134950811L
tp2174
sS'bfd_elf_match_symbols_in_sections'
p2175
(L134737280L
L134739155L
tp2176
sS'elf_generic_info_to_howto'
p2177
(L134940400L
L134940412L
tp2178
sS'generic_link_check_archive_element_collect'
p2179
(L134583232L
L134583257L
tp2180
sS'ihex_write_object_contents'
p2181
(L134601472L
L134602301L
tp2182
sS'_bfd_elf_strtab_refcount'
p2183
(L134818592L
L134818610L
tp2184
sS'init_reloc_cookie'
p2185
(L134735552L
L134735826L
tp2186
sS'aout_32_read_minisymbols'
p2187
(L134860352L
L134860479L
tp2188
sS'_bfd_elf_get_special_section'
p2189
(L134681056L
L134681268L
tp2190
sS'string_prependn'
p2191
(L134976160L
L134976247L
tp2192
sS'linux_link_hash_table_create'
p2193
(L134836784L
L134836876L
tp2194
sS'elf_gc_propagate_vtable_entries_used'
p2195
(L134734768L
L134734962L
tp2196
sS'd_discriminator'
p2197
(L135000384L
L135000419L
tp2198
sS'elf_i386_size_dynamic_sections'
p2199
(L134633952L
L134637429L
tp2200
sS'bfd_elf_print_symbol'
p2201
(L134679632L
L134680524L
tp2202
sS'cplus_demangle_set_style'
p2203
(L134977760L
L134977801L
tp2204
sS'_bfd_generic_new_section_hook'
p2205
(L134564784L
L134564871L
tp2206
sS'_bfd_elf_swap_vernaux_in'
p2207
(L134676544L
L134676642L
tp2208
sS'aout_32_final_link'
p2209
(L134862368L
L134869252L
tp2210
sS'_bfd_elf_copy_link_hash_symbol_type'
p2211
(L134813504L
L134813572L
tp2212
sS'_bfd_bsd44_write_ar_hdr'
p2213
(L134952224L
L134952529L
tp2214
sS'coff_count_linenumbers'
p2215
(L134539568L
L134539805L
tp2216
sS'get_file_size'
p2217
(L134527056L
L134527324L
tp2218
sS'htab_remove_elt'
p2219
(L135045712L
L135045752L
tp2220
sS'bfd_get_section_by_name'
p2221
(L134564960L
L134565020L
tp2222
sS'bfd_elf_gc_mark_dynamic_ref_symbol'
p2223
(L134808768L
L134808952L
tp2224
sS'_bfd_elfcore_strndup'
p2225
(L134715472L
L134715569L
tp2226
sS'_bfd_coff_section_already_linked'
p2227
(L134552384L
L134552785L
tp2228
sS'bfd_record_phdr'
p2229
(L134533472L
L134533730L
tp2230
sS'elfcore_write_xstatereg'
p2231
(L134730672L
L134730739L
tp2232
sS'bfd_elf_is_group_section'
p2233
(L134679360L
L134679382L
tp2234
sS'_bfd_stringtab_add'
p2235
(L134574672L
L134574965L
tp2236
sS'generic_link_check_archive_element'
p2237
(L134582720L
L134583199L
tp2238
sS'i386_aout_linux_callback'
p2239
(L134837984L
L134839366L
tp2240
sS'eq_file_ptr'
p2241
(L134943632L
L134943659L
tp2242
sS'_bfd_elf_strtab_size'
p2243
(L134818800L
L134818816L
tp2244
sS'd_print_array_type'
p2245
(L135018304L
L135018943L
tp2246
sS'd_number_component'
p2247
(L135000144L
L135000211L
tp2248
sS'_bfd_elf_strtab_addref'
p2249
(L134818320L
L134818427L
tp2250
sS'bfd_search_for_target'
p2251
(L134572496L
L134572569L
tp2252
sS'bfd_section_init'
p2253
(L134564480L
L134564600L
tp2254
sS'countargv'
p2255
(L135035264L
L135035314L
tp2256
sS'elf_link_sort_cmp1'
p2257
(L134739648L
L134739735L
tp2258
sS'_bfd_elf_link_hash_hide_symbol'
p2259
(L134788592L
L134788674L
tp2260
sS'elf_i386_link_hash_newfunc'
p2261
(L134638848L
L134638943L
tp2262
sS'cplus_demangle_fill_extended_operator'
p2263
(L135020960L
L135021020L
tp2264
sS'aout_32_sizeof_headers'
p2265
(L134861904L
L134861918L
tp2266
sS'_bfd_elf_strtab_init'
p2267
(L134817904L
L134818028L
tp2268
sS'd_make_comp'
p2269
(L134999280L
L134999387L
tp2270
sS'bfd_hide_sym_by_version'
p2271
(L134588880L
L134588927L
tp2272
sS'_bfd_elf_common_section_index'
p2273
(L134813168L
L134813174L
tp2274
sS'bfd_void'
p2275
(L134555216L
L134555218L
tp2276
sS'aout_32_minisymbol_to_symbol'
p2277
(L134860480L
L134860737L
tp2278
sS'bfd_scan_vma'
p2279
(L134533360L
L134533365L
tp2280
sS'pe_ILF_make_a_symbol_reloc'
p2281
(L134885504L
L134885644L
tp2282
sS'_bfd_nearby_section'
p2283
(L134587744L
L134588053L
tp2284
sS'comp_unit_find_nearest_line'
p2285
(L134616992L
L134617415L
tp2286
sS'bfd_check_overflow'
p2287
(L134962112L
L134962314L
tp2288
sS'_bfd_elf_set_arch_mach'
p2289
(L134713504L
L134713564L
tp2290
sS'_bfd_generic_read_minisymbols'
p2291
(L134568496L
L134568698L
tp2292
sS'simple_dummy_reloc_dangerous'
p2293
(L134623424L
L134623430L
tp2294
sS'get_char'
p2295
(L134522368L
L134522573L
tp2296
sS'bfd_zalloc'
p2297
(L134562992L
L134563051L
tp2298
sS'elf_i386_copy_indirect_symbol'
p2299
(L134628464L
L134628758L
tp2300
sS'bfd_hash_rename'
p2301
(L134573744L
L134573939L
tp2302
sS'bfd_wrapped_link_hash_lookup'
p2303
(L134576448L
L134576911L
tp2304
sS'_bfd_elf_no_info_to_howto'
p2305
(L134714544L
L134714575L
tp2306
sS'elf_sort_sections'
p2307
(L134671584L
L134671756L
tp2308
sS'opncls_bclose'
p2309
(L134559072L
L134559115L
tp2310
sS'htab_elements'
p2311
(L135043744L
L135043755L
tp2312
sS'verilog_set_arch_mach'
p2313
(L134626304L
L134626341L
tp2314
sS'bfd_make_section_anyway_with_flags'
p2315
(L134565888L
L134566062L
tp2316
sS'htab_create_alloc_ex'
p2317
(L135043760L
L135043933L
tp2318
sS'coff_find_nearest_line_with_names'
p2319
(L134550496L
L134551827L
tp2320
sS'xstrerror'
p2321
(L135050912L
L135050994L
tp2322
sS'bfd_plugin_core_file_failing_command'
p2323
(L134940832L
L134940861L
tp2324
sS'work_stuff_copy_to_from'
p2325
(L134976720L
L134977446L
tp2326
sS'_bfd_elf_write_section_eh_frame'
p2327
(L134828928L
L134832486L
tp2328
sS'_bfd_elf_write_corefile_contents'
p2329
(L134699520L
L134699525L
tp2330
sS'bfd_arch_list'
p2331
(L134529776L
L134529905L
tp2332
sS'bfd_elf_mkcorefile'
p2333
(L134677200L
L134677279L
tp2334
sS'coff_swap_scnhdr_in'
p2335
(L134873824L
L134874089L
tp2336
sS'u16_mbtouc'
p2337
(L134893392L
L134893481L
tp2338
sS'bfd_elf_link_mark_dynamic_symbol'
p2339
(L134734528L
L134734634L
tp2340
sS'_bfd_coff_read_string_table'
p2341
(L134543904L
L134544298L
tp2342
sS'_bfd_generic_link_hash_newfunc'
p2343
(L134576144L
L134576239L
tp2344
sS'dummy_reloc16_extra_cases'
p2345
(L134870720L
L134870751L
tp2346
sS'coff_print_symbol'
p2347
(L134549024L
L134550449L
tp2348
sS'elf_i386_grok_psinfo'
p2349
(L134627792L
L134628154L
tp2350
sS'skip_cfa_op'
p2351
(L134819856L
L134820256L
tp2352
sS'MY_final_link_callback'
p2353
(L134835440L
L134835746L
tp2354
sS'bfd_generic_link_read_symbols'
p2355
(L134578704L
L134578733L
tp2356
sS'_bfd_elf_link_hash_table_init'
p2357
(L134788688L
L134788798L
tp2358
sS'aout_32_reloc_name_lookup'
p2359
(L134849808L
L134849915L
tp2360
sS'bfd_generic_openr_next_archived_file'
p2361
(L134947808L
L134947961L
tp2362
sS'fini_reloc_cookie_for_section'
p2363
(L134735408L
L134735480L
tp2364
sS'binary_canonicalize_symtab'
p2365
(L134595968L
L134596183L
tp2366
sS'arange_add'
p2367
(L134607760L
L134607949L
tp2368
sS'coff_make_empty_symbol'
p2369
(L134548320L
L134548383L
tp2370
sS'coff_i386_reloc_name_lookup'
p2371
(L134874192L
L134874279L
tp2372
sS'elfcore_write_prxfpreg'
p2373
(L134730592L
L134730659L
tp2374
sS'unwrap_hash_lookup'
p2375
(L134578016L
L134578278L
tp2376
sS'get_dynamic_reloc_section_name'
p2377
(L134740544L
L134740668L
tp2378
sS'aout_32_swap_exec_header_in'
p2379
(L134849920L
L134850169L
tp2380
sS'_bfd_pei_swap_aux_in'
p2381
(L134897952L
L134898640L
tp2382
sS'elfcore_write_prfpreg'
p2383
(L134730512L
L134730579L
tp2384
sS'_bfd_elf_strtab_free'
p2385
(L134818032L
L134818072L
tp2386
sS'htab_delete'
p2387
(L135044368L
L135044487L
tp2388
sS'bfd_demangle'
p2389
(L134534304L
L134534889L
tp2390
sS'elfcore_write_s390_tdb'
p2391
(L134731472L
L134731539L
tp2392
sS'bfd_get_stab_name'
p2393
(L134970880L
L134970906L
tp2394
sS'size_of_output_cie_fde'
p2395
(L134819776L
L134819850L
tp2396
sS'_bfd_write_merged_section'
p2397
(L134973808L
L134974185L
tp2398
sS'comp_unit_find_line'
p2399
(L134615968L
L134616356L
tp2400
sS'cache_bflush'
p2401
(L134960544L
L134960632L
tp2402
sS'bfd_section_already_linked_table_lookup'
p2403
(L134586656L
L134586699L
tp2404
sS'bfd_elf_get_default_section_type'
p2405
(L134682592L
L134682619L
tp2406
sS'dlang_identifier'
p2407
(L135038880L
L135039918L
tp2408
sS'd_encoding'
p2409
(L135029600L
L135031059L
tp2410
sS'bfd_is_undefined_symclass'
p2411
(L134568368L
L134568395L
tp2412
sS'cie_eq'
p2413
(L134820384L
L134820647L
tp2414
sS'bfd_link_hash_traverse'
p2415
(L134578288L
L134578432L
tp2416
sS'tekhex_get_symtab_upper_bound'
p2417
(L134597040L
L134597055L
tp2418
sS'coff_link_add_object_symbols'
p2419
(L134920112L
L134922630L
tp2420
sS'_bfd_elf_link_assign_sym_version'
p2421
(L134758848L
L134759721L
tp2422
sS'_bfd_elf_merge_unknown_attribute_list'
p2423
(L134817392L
L134817671L
tp2424
sS'_bfd_stringtab_size'
p2425
(L134574976L
L134574984L
tp2426
sS'htab_try_create'
p2427
(L135044288L
L135044355L
tp2428
sS'bfd_dont_truncate_arname'
p2429
(L134952912L
L134953082L
tp2430
sS'_bfd_elf_check_kept_section'
p2431
(L134790560L
L134790722L
tp2432
sS'elf_swap_ehdr_out'
p2433
(L134662448L
L134662784L
tp2434
sS'_bfd_pei_only_swap_filehdr_out'
p2435
(L134901840L
L134902942L
tp2436
sS'_bfd_elf_encode_eh_address'
p2437
(L134833552L
L134833594L
tp2438
sS'_bfd_elf_compute_section_file_positions'
p2439
(L134686112L
L134698779L
tp2440
sS'bfd_arch_bits_per_byte'
p2441
(L134530064L
L134530075L
tp2442
sS'_bfd_stringtab_init'
p2443
(L134574464L
L134574580L
tp2444
sS'aout_32_link_hash_table_init'
p2445
(L134862112L
L134862117L
tp2446
sS'_bfd_elf_get_symbol_info'
p2447
(L134713360L
L134713381L
tp2448
sS'bfd_get_archive_filename'
p2449
(L134527328L
L134527576L
tp2450
sS'bfd_elf32_checksum_contents'
p2451
(L134665888L
L134666645L
tp2452
sS'__x86.get_pc_thunk.bx'
p2453
(L134522160L
L134522164L
tp2454
sS'do_type'
p2455
(L134984160L
L134987429L
tp2456
sS'getpwd'
p2457
(L135042608L
L135042891L
tp2458
sS'bfd_getl_signed_32'
p2459
(L134556624L
L134556661L
tp2460
sS'bfd_calc_gnu_debuglink_crc32'
p2461
(L134563392L
L134563445L
tp2462
sS'linux_link_hash_newfunc'
p2463
(L134836880L
L134836956L
tp2464
sS'generic_link_check_archive_element_no_collect'
p2465
(L134583200L
L134583225L
tp2466
sS'bfd_getb64'
p2467
(L134556672L
L134556797L
tp2468
sS'd_parmlist'
p2469
(L135023728L
L135023928L
tp2470
sS'_bfd_elf_archive_symbol_lookup'
p2471
(L134764224L
L134764544L
tp2472
sS'aout_32_some_aout_object_p'
p2473
(L134850512L
L134851302L
tp2474
sS'__moddi3'
p2475
(L135051392L
L135051842L
tp2476
sS'pe_print_debugdata'
p2477
(L134904208L
L134905547L
tp2478
sS'_bfd_generic_get_section_contents_in_window'
p2479
(L134558112L
L134558143L
tp2480
sS'bfd_elf_link_record_dynamic_symbol'
p2481
(L134754160L
L134754382L
tp2482
sS'__divdi3'
p2483
(L135051008L
L135051378L
tp2484
sS'cie_hash'
p2485
(L134819760L
L134819768L
tp2486
sS'xmalloc_failed'
p2487
(L135050512L
L135050635L
tp2488
sS'bfd_plugin_set_program_name'
p2489
(L134942480L
L134942490L
tp2490
sS'__libc_csu_init'
p2491
(L135052208L
L135052305L
tp2492
sS'_bfd_elf_adjust_dynamic_copy'
p2493
(L134762752L
L134762847L
tp2494
sS'_bfd_coff_generic_relocate_section'
p2495
(L134939040L
L134940390L
tp2496
sS'_bfd_elf_create_got_section'
p2497
(L134752784L
L134753104L
tp2498
sS'd_operator_name'
p2499
(L135023296L
L135023726L
tp2500
sS'bfd_set_arch_info'
p2501
(L134530016L
L134530028L
tp2502
sS'bfd_target_list'
p2503
(L134572352L
L134572482L
tp2504
sS'elf_vxworks_final_write_processing'
p2505
(L134659312L
L134659422L
tp2506
sS'elf_i386_rtype_to_howto'
p2507
(L134628944L
L134629110L
tp2508
sS'filename_hash'
p2509
(L135042496L
L135042557L
tp2510
sS'_bfd_generic_link_hash_table_create'
p2511
(L134578608L
L134578700L
tp2512
sS'bfd_mmap'
p2513
(L134536976L
L134537045L
tp2514
sS'read_signed_leb128'
p2515
(L134558784L
L134558853L
tp2516
sS'aout_32_set_section_contents'
p2517
(L134854000L
L134854403L
tp2518
sS'_bfd_stringtab_emit'
p2519
(L134574992L
L134575149L
tp2520
sS'_bfd_discard_section_stabs'
p2521
(L134969376L
L134970098L
tp2522
sS'pe_ILF_make_a_symbol'
p2523
(L134874320L
L134874721L
tp2524
sS'comp_unit_contains_address'
p2525
(L134607456L
L134607494L
tp2526
sS'objalloc_free'
p2527
(L135049936L
L135049990L
tp2528
sS'bfd_get_assert_handler'
p2529
(L134530928L
L134530934L
tp2530
sS'pe_ILF_save_relocs'
p2531
(L134875296L
L134875420L
tp2532
sS'elf_link_read_relocs_from_section'
p2533
(L134739920L
L134740440L
tp2534
sS'objalloc_free_block'
p2535
(L135050000L
L135050318L
tp2536
sS'_bfd_elf_link_create_dynamic_sections'
p2537
(L134753104L
L134753756L
tp2538
sS'bfd_arch_mach_octets_per_byte'
p2539
(L134530416L
L134530473L
tp2540
sS'aout_link_includes_newfunc'
p2541
(L134843040L
L134843130L
tp2542
sS'bfd_elf_set_dt_needed_name'
p2543
(L134788912L
L134788957L
tp2544
sS'verilog_write_object_contents'
p2545
(L134626464L
L134626960L
tp2546
sS'elf_i386_allocate_local_dynrelocs'
p2547
(L134652096L
L134652182L
tp2548
sS'bfd_get_linker_section'
p2549
(L134565104L
L134565198L
tp2550
sS'_bfd_generic_section_already_linked'
p2551
(L134587536L
L134587729L
tp2552
sS'_bfd_stringtab_free'
p2553
(L134574624L
L134574663L
tp2554
sS'dlang_parse_integer'
p2555
(L135036592L
L135037254L
tp2556
sS'get_segment_type'
p2557
(L134671424L
L134671582L
tp2558
sS'bfd_getb_signed_32'
p2559
(L134556576L
L134556611L
tp2560
sS'_bfd_pei_swap_debugdir_in'
p2561
(L134904064L
L134904207L
tp2562
sS'bfd_make_section_with_flags'
p2563
(L134566112L
L134566310L
tp2564
sS'_bfd_abort'
p2565
(L134531056L
L134531252L
tp2566
sS'rsrc_print_resource_entries'
p2567
(L134890624L
L134891640L
tp2568
sS'concat'
p2569
(L135035568L
L135035713L
tp2570
sS'bfd_elf_link_add_symbols'
p2571
(L134764544L
L134777804L
tp2572
sS'unlink_if_ordinary'
p2573
(L135050320L
L135050409L
tp2574
sS'xcalloc'
p2575
(L135050688L
L135050759L
tp2576
sS'consume_count'
p2577
(L134974768L
L134974848L
tp2578
sS'memory_bclose'
p2579
(L134535072L
L134535122L
tp2580
sS'_bfd_elf_gc_mark'
p2581
(L134807808L
L134808227L
tp2582
sS'adjust_relative_path'
p2583
(L134944096L
L134944780L
tp2584
sS'bfd_get_mach'
p2585
(L134530048L
L134530059L
tp2586
sS'bfd_elf_perform_complex_relocation'
p2587
(L134789664L
L134790471L
tp2588
sS'bfd_elf32_slurp_symbol_table'
p2589
(L134660672L
L134662151L
tp2590
sS'rsrc_compute_region_sizes'
p2591
(L134889440L
L134889609L
tp2592
sS'bfd_reloc_name_lookup'
p2593
(L134965792L
L134965807L
tp2594
sS'concat_copy2'
p2595
(L135035472L
L135035558L
tp2596
sS'demangle_args'
p2597
(L134991120L
L134991811L
tp2598
sS'bfd_cache_lookup_worker'
p2599
(L134959808L
L134960117L
tp2600
sS'bfd_putb32'
p2601
(L134557216L
L134557251L
tp2602
sS'remember_Ktype'
p2603
(L134975376L
L134975512L
tp2604
sS'elf_swap_shdr_out'
p2605
(L134663008L
L134663203L
tp2606
sS'bfd_cache_section_contents'
p2607
(L134625296L
L134625338L
tp2608
sS'bfd_elf_set_dyn_lib_class'
p2609
(L134789024L
L134789069L
tp2610
s.