(dp0
S'sub_3720'
p1
(L14112L
L14209L
tp2
sS'sub_31D0'
p3
(L12752L
L14112L
tp4
sS'sub_2B40'
p5
(L11072L
L11141L
tp6
sS'sub_2AA0'
p7
(L10912L
L10916L
tp8
sS'sub_3120'
p9
(L12576L
L12743L
tp10
sS'sub_2AF0'
p11
(L10992L
L11065L
tp12
sS'sub_2C30'
p13
(L11312L
L11910L
tp14
sS'sub_2AB0'
p15
(L10928L
L10988L
tp16
sS'start'
p17
(L10848L
L10898L
tp18
sS'sub_2B90'
p19
(L11152L
L11211L
tp20
sS'sub_2A92'
p21
(L10898L
L10902L
tp22
sS'main'
p23
(L5200L
L10848L
tp24
sS'sub_2E90'
p25
(L11920L
L12570L
tp26
sS'nullsub_1'
p27
(L14224L
L14226L
tp28
s.